
out/example_processing_peak_interpolation.elf:     file format elf32-littlearm

Sections:
Idx Name          Size      VMA       LMA       File off  Algn
  0 .isr_vector   00000190  08000000  08000000  00010000  2**0
                  CONTENTS, ALLOC, LOAD, READONLY, DATA
  1 .text         0000b450  08000190  08000190  00010190  2**4
                  CONTENTS, ALLOC, LOAD, READONLY, CODE
  2 .rodata       00005500  0800b5e0  0800b5e0  0001b5e0  2**2
                  CONTENTS, ALLOC, LOAD, READONLY, DATA
  3 .ARM.extab    00000000  08010ae0  08010ae0  00030090  2**0
                  CONTENTS
  4 .ARM          00000008  08010ae0  08010ae0  00020ae0  2**2
                  CONTENTS, ALLOC, LOAD, READONLY, DATA
  5 .preinit_array 00000000  08010ae8  08010ae8  00030090  2**0
                  CONTENTS, ALLOC, LOAD, DATA
  6 .init_array   00000008  08010ae8  08010ae8  00020ae8  2**2
                  CONTENTS, ALLOC, LOAD, DATA
  7 .fini_array   00000008  08010af0  08010af0  00020af0  2**2
                  CONTENTS, ALLOC, LOAD, DATA
  8 .data         00000090  20000000  08010af8  00030000  2**2
                  CONTENTS, ALLOC, LOAD, DATA
  9 .bss          00000368  20000090  08010b88  00030090  2**2
                  ALLOC
 10 ._user_heap_stack 00001600  200003f8  08010b88  000303f8  2**0
                  ALLOC
 11 .ARM.attributes 00000030  00000000  00000000  00030090  2**0
                  CONTENTS, READONLY
 12 .comment      0000004c  00000000  00000000  000300c0  2**0
                  CONTENTS, READONLY
 13 .debug_info   00004066  00000000  00000000  0003010c  2**0
                  CONTENTS, READONLY, DEBUGGING, OCTETS
 14 .debug_abbrev 00000b9f  00000000  00000000  00034172  2**0
                  CONTENTS, READONLY, DEBUGGING, OCTETS
 15 .debug_loc    0000250f  00000000  00000000  00034d11  2**0
                  CONTENTS, READONLY, DEBUGGING, OCTETS
 16 .debug_aranges 00000158  00000000  00000000  00037220  2**0
                  CONTENTS, READONLY, DEBUGGING, OCTETS
 17 .debug_ranges 000002d8  00000000  00000000  00037378  2**0
                  CONTENTS, READONLY, DEBUGGING, OCTETS
 18 .debug_line   00001699  00000000  00000000  00037650  2**0
                  CONTENTS, READONLY, DEBUGGING, OCTETS
 19 .debug_str    00001008  00000000  00000000  00038ce9  2**0
                  CONTENTS, READONLY, DEBUGGING, OCTETS
 20 .debug_frame  00001334  00000000  00000000  00039cf4  2**2
                  CONTENTS, READONLY, DEBUGGING, OCTETS

Disassembly of section .text:

08000190 <__do_global_dtors_aux>:
 8000190:	b510      	push	{r4, lr}
 8000192:	4c05      	ldr	r4, [pc, #20]	; (80001a8 <__do_global_dtors_aux+0x18>)
 8000194:	7823      	ldrb	r3, [r4, #0]
 8000196:	b933      	cbnz	r3, 80001a6 <__do_global_dtors_aux+0x16>
 8000198:	4b04      	ldr	r3, [pc, #16]	; (80001ac <__do_global_dtors_aux+0x1c>)
 800019a:	b113      	cbz	r3, 80001a2 <__do_global_dtors_aux+0x12>
 800019c:	4804      	ldr	r0, [pc, #16]	; (80001b0 <__do_global_dtors_aux+0x20>)
 800019e:	f3af 8000 	nop.w
 80001a2:	2301      	movs	r3, #1
 80001a4:	7023      	strb	r3, [r4, #0]
 80001a6:	bd10      	pop	{r4, pc}
 80001a8:	20000090 	.word	0x20000090
 80001ac:	00000000 	.word	0x00000000
 80001b0:	0800b5c8 	.word	0x0800b5c8

080001b4 <frame_dummy>:
 80001b4:	b508      	push	{r3, lr}
 80001b6:	4b03      	ldr	r3, [pc, #12]	; (80001c4 <frame_dummy+0x10>)
 80001b8:	b11b      	cbz	r3, 80001c2 <frame_dummy+0xe>
 80001ba:	4903      	ldr	r1, [pc, #12]	; (80001c8 <frame_dummy+0x14>)
 80001bc:	4803      	ldr	r0, [pc, #12]	; (80001cc <frame_dummy+0x18>)
 80001be:	f3af 8000 	nop.w
 80001c2:	bd08      	pop	{r3, pc}
 80001c4:	00000000 	.word	0x00000000
 80001c8:	20000094 	.word	0x20000094
 80001cc:	0800b5c8 	.word	0x0800b5c8

080001d0 <acc_hal_integration_wait_for_sensor_interrupt.constprop.0>:
 80001d0:	490e      	ldr	r1, [pc, #56]	; (800020c <acc_hal_integration_wait_for_sensor_interrupt.constprop.0+0x3c>)
 80001d2:	4a0f      	ldr	r2, [pc, #60]	; (8000210 <acc_hal_integration_wait_for_sensor_interrupt.constprop.0+0x40>)
 80001d4:	b410      	push	{r4}
 80001d6:	680c      	ldr	r4, [r1, #0]
 80001d8:	6913      	ldr	r3, [r2, #16]
 80001da:	071b      	lsls	r3, r3, #28
 80001dc:	d506      	bpl.n	80001ec <acc_hal_integration_wait_for_sensor_interrupt.constprop.0+0x1c>
 80001de:	4b0c      	ldr	r3, [pc, #48]	; (8000210 <acc_hal_integration_wait_for_sensor_interrupt.constprop.0+0x40>)
 80001e0:	f85d 4b04 	ldr.w	r4, [sp], #4
 80001e4:	6918      	ldr	r0, [r3, #16]
 80001e6:	f3c0 00c0 	ubfx	r0, r0, #3, #1
 80001ea:	4770      	bx	lr
 80001ec:	680b      	ldr	r3, [r1, #0]
 80001ee:	1b1b      	subs	r3, r3, r4
 80001f0:	4283      	cmp	r3, r0
 80001f2:	d2f4      	bcs.n	80001de <acc_hal_integration_wait_for_sensor_interrupt.constprop.0+0xe>
 80001f4:	b672      	cpsid	i
 80001f6:	6913      	ldr	r3, [r2, #16]
 80001f8:	071b      	lsls	r3, r3, #28
 80001fa:	d400      	bmi.n	80001fe <acc_hal_integration_wait_for_sensor_interrupt.constprop.0+0x2e>
 80001fc:	bf30      	wfi
 80001fe:	b662      	cpsie	i
 8000200:	f3bf 8f6f 	isb	sy
 8000204:	6913      	ldr	r3, [r2, #16]
 8000206:	071b      	lsls	r3, r3, #28
 8000208:	d4e9      	bmi.n	80001de <acc_hal_integration_wait_for_sensor_interrupt.constprop.0+0xe>
 800020a:	e7ef      	b.n	80001ec <acc_hal_integration_wait_for_sensor_interrupt.constprop.0+0x1c>
 800020c:	200000ac 	.word	0x200000ac
 8000210:	48000400 	.word	0x48000400

08000214 <HAL_NVIC_SetPriority.constprop.0>:
 8000214:	4b14      	ldr	r3, [pc, #80]	; (8000268 <HAL_NVIC_SetPriority.constprop.0+0x54>)
 8000216:	68db      	ldr	r3, [r3, #12]
 8000218:	f3c3 2302 	ubfx	r3, r3, #8, #3
 800021c:	b410      	push	{r4}
 800021e:	f1c3 0407 	rsb	r4, r3, #7
 8000222:	1d1a      	adds	r2, r3, #4
 8000224:	2c04      	cmp	r4, #4
 8000226:	bf28      	it	cs
 8000228:	2404      	movcs	r4, #4
 800022a:	2a06      	cmp	r2, #6
 800022c:	f04f 32ff 	mov.w	r2, #4294967295	; 0xffffffff
 8000230:	fa02 f204 	lsl.w	r2, r2, r4
 8000234:	bf8c      	ite	hi
 8000236:	3b03      	subhi	r3, #3
 8000238:	2300      	movls	r3, #0
 800023a:	ea21 0102 	bic.w	r1, r1, r2
 800023e:	4099      	lsls	r1, r3
 8000240:	1c43      	adds	r3, r0, #1
 8000242:	d00a      	beq.n	800025a <HAL_NVIC_SetPriority.constprop.0+0x46>
 8000244:	f100 4060 	add.w	r0, r0, #3758096384	; 0xe0000000
 8000248:	f500 4061 	add.w	r0, r0, #57600	; 0xe100
 800024c:	0109      	lsls	r1, r1, #4
 800024e:	b2c9      	uxtb	r1, r1
 8000250:	f880 1300 	strb.w	r1, [r0, #768]	; 0x300
 8000254:	f85d 4b04 	ldr.w	r4, [sp], #4
 8000258:	4770      	bx	lr
 800025a:	4b03      	ldr	r3, [pc, #12]	; (8000268 <HAL_NVIC_SetPriority.constprop.0+0x54>)
 800025c:	0109      	lsls	r1, r1, #4
 800025e:	b2c9      	uxtb	r1, r1
 8000260:	f883 1023 	strb.w	r1, [r3, #35]	; 0x23
 8000264:	e7f6      	b.n	8000254 <HAL_NVIC_SetPriority.constprop.0+0x40>
 8000266:	bf00      	nop
 8000268:	e000ed00 	.word	0xe000ed00

0800026c <UART_WaitOnFlagUntilTimeout.constprop.0>:
 800026c:	b4f0      	push	{r4, r5, r6, r7}
 800026e:	6805      	ldr	r5, [r0, #0]
 8000270:	4f29      	ldr	r7, [pc, #164]	; (8000318 <UART_WaitOnFlagUntilTimeout.constprop.0+0xac>)
 8000272:	4606      	mov	r6, r0
 8000274:	e001      	b.n	800027a <UART_WaitOnFlagUntilTimeout.constprop.0+0xe>
 8000276:	1c58      	adds	r0, r3, #1
 8000278:	d106      	bne.n	8000288 <UART_WaitOnFlagUntilTimeout.constprop.0+0x1c>
 800027a:	69ec      	ldr	r4, [r5, #28]
 800027c:	ea31 0004 	bics.w	r0, r1, r4
 8000280:	d1f9      	bne.n	8000276 <UART_WaitOnFlagUntilTimeout.constprop.0+0xa>
 8000282:	2000      	movs	r0, #0
 8000284:	bcf0      	pop	{r4, r5, r6, r7}
 8000286:	4770      	bx	lr
 8000288:	6838      	ldr	r0, [r7, #0]
 800028a:	1a80      	subs	r0, r0, r2
 800028c:	4283      	cmp	r3, r0
 800028e:	d327      	bcc.n	80002e0 <UART_WaitOnFlagUntilTimeout.constprop.0+0x74>
 8000290:	b333      	cbz	r3, 80002e0 <UART_WaitOnFlagUntilTimeout.constprop.0+0x74>
 8000292:	6828      	ldr	r0, [r5, #0]
 8000294:	0744      	lsls	r4, r0, #29
 8000296:	d5f0      	bpl.n	800027a <UART_WaitOnFlagUntilTimeout.constprop.0+0xe>
 8000298:	69e8      	ldr	r0, [r5, #28]
 800029a:	0500      	lsls	r0, r0, #20
 800029c:	d5ed      	bpl.n	800027a <UART_WaitOnFlagUntilTimeout.constprop.0+0xe>
 800029e:	f44f 6300 	mov.w	r3, #2048	; 0x800
 80002a2:	622b      	str	r3, [r5, #32]
 80002a4:	e855 3f00 	ldrex	r3, [r5]
 80002a8:	f423 73d0 	bic.w	r3, r3, #416	; 0x1a0
 80002ac:	e845 3200 	strex	r2, r3, [r5]
 80002b0:	2a00      	cmp	r2, #0
 80002b2:	d1f7      	bne.n	80002a4 <UART_WaitOnFlagUntilTimeout.constprop.0+0x38>
 80002b4:	6832      	ldr	r2, [r6, #0]
 80002b6:	f102 0308 	add.w	r3, r2, #8
 80002ba:	e853 3f00 	ldrex	r3, [r3]
 80002be:	f023 0301 	bic.w	r3, r3, #1
 80002c2:	f102 0008 	add.w	r0, r2, #8
 80002c6:	e840 3100 	strex	r1, r3, [r0]
 80002ca:	2900      	cmp	r1, #0
 80002cc:	d1f3      	bne.n	80002b6 <UART_WaitOnFlagUntilTimeout.constprop.0+0x4a>
 80002ce:	2320      	movs	r3, #32
 80002d0:	67b3      	str	r3, [r6, #120]	; 0x78
 80002d2:	f886 1074 	strb.w	r1, [r6, #116]	; 0x74
 80002d6:	67f3      	str	r3, [r6, #124]	; 0x7c
 80002d8:	2003      	movs	r0, #3
 80002da:	f8c6 3080 	str.w	r3, [r6, #128]	; 0x80
 80002de:	e7d1      	b.n	8000284 <UART_WaitOnFlagUntilTimeout.constprop.0+0x18>
 80002e0:	e855 3f00 	ldrex	r3, [r5]
 80002e4:	f423 73d0 	bic.w	r3, r3, #416	; 0x1a0
 80002e8:	e845 3200 	strex	r2, r3, [r5]
 80002ec:	2a00      	cmp	r2, #0
 80002ee:	d1f7      	bne.n	80002e0 <UART_WaitOnFlagUntilTimeout.constprop.0+0x74>
 80002f0:	6832      	ldr	r2, [r6, #0]
 80002f2:	f102 0308 	add.w	r3, r2, #8
 80002f6:	e853 3f00 	ldrex	r3, [r3]
 80002fa:	f023 0301 	bic.w	r3, r3, #1
 80002fe:	f102 0008 	add.w	r0, r2, #8
 8000302:	e840 3100 	strex	r1, r3, [r0]
 8000306:	2900      	cmp	r1, #0
 8000308:	d1f3      	bne.n	80002f2 <UART_WaitOnFlagUntilTimeout.constprop.0+0x86>
 800030a:	2320      	movs	r3, #32
 800030c:	67b3      	str	r3, [r6, #120]	; 0x78
 800030e:	f886 1074 	strb.w	r1, [r6, #116]	; 0x74
 8000312:	2003      	movs	r0, #3
 8000314:	67f3      	str	r3, [r6, #124]	; 0x7c
 8000316:	e7b5      	b.n	8000284 <UART_WaitOnFlagUntilTimeout.constprop.0+0x18>
 8000318:	200000ac 	.word	0x200000ac

0800031c <HAL_DMA_Init.constprop.0>:
 800031c:	4603      	mov	r3, r0
 800031e:	4a21      	ldr	r2, [pc, #132]	; (80003a4 <HAL_DMA_Init.constprop.0+0x88>)
 8000320:	6800      	ldr	r0, [r0, #0]
 8000322:	4290      	cmp	r0, r2
 8000324:	bf95      	itete	ls
 8000326:	4a20      	ldrls	r2, [pc, #128]	; (80003a8 <HAL_DMA_Init.constprop.0+0x8c>)
 8000328:	4a20      	ldrhi	r2, [pc, #128]	; (80003ac <HAL_DMA_Init.constprop.0+0x90>)
 800032a:	4921      	ldrls	r1, [pc, #132]	; (80003b0 <HAL_DMA_Init.constprop.0+0x94>)
 800032c:	4921      	ldrhi	r1, [pc, #132]	; (80003b4 <HAL_DMA_Init.constprop.0+0x98>)
 800032e:	b430      	push	{r4, r5}
 8000330:	4402      	add	r2, r0
 8000332:	6419      	str	r1, [r3, #64]	; 0x40
 8000334:	2114      	movs	r1, #20
 8000336:	fbb2 f2f1 	udiv	r2, r2, r1
 800033a:	0092      	lsls	r2, r2, #2
 800033c:	645a      	str	r2, [r3, #68]	; 0x44
 800033e:	2202      	movs	r2, #2
 8000340:	f883 2025 	strb.w	r2, [r3, #37]	; 0x25
 8000344:	6801      	ldr	r1, [r0, #0]
 8000346:	689d      	ldr	r5, [r3, #8]
 8000348:	e9d3 2405 	ldrd	r2, r4, [r3, #20]
 800034c:	f421 41ff 	bic.w	r1, r1, #32640	; 0x7f80
 8000350:	f021 0170 	bic.w	r1, r1, #112	; 0x70
 8000354:	432a      	orrs	r2, r5
 8000356:	430a      	orrs	r2, r1
 8000358:	4322      	orrs	r2, r4
 800035a:	f042 0280 	orr.w	r2, r2, #128	; 0x80
 800035e:	f5b5 4f80 	cmp.w	r5, #16384	; 0x4000
 8000362:	6002      	str	r2, [r0, #0]
 8000364:	d014      	beq.n	8000390 <HAL_DMA_Init.constprop.0+0x74>
 8000366:	6c19      	ldr	r1, [r3, #64]	; 0x40
 8000368:	4a11      	ldr	r2, [pc, #68]	; (80003b0 <HAL_DMA_Init.constprop.0+0x94>)
 800036a:	4291      	cmp	r1, r2
 800036c:	bf08      	it	eq
 800036e:	4912      	ldreq	r1, [pc, #72]	; (80003b8 <HAL_DMA_Init.constprop.0+0x9c>)
 8000370:	6c5a      	ldr	r2, [r3, #68]	; 0x44
 8000372:	bf18      	it	ne
 8000374:	4911      	ldrne	r1, [pc, #68]	; (80003bc <HAL_DMA_Init.constprop.0+0xa0>)
 8000376:	f002 001c 	and.w	r0, r2, #28
 800037a:	240f      	movs	r4, #15
 800037c:	680a      	ldr	r2, [r1, #0]
 800037e:	4084      	lsls	r4, r0
 8000380:	ea22 0204 	bic.w	r2, r2, r4
 8000384:	600a      	str	r2, [r1, #0]
 8000386:	685a      	ldr	r2, [r3, #4]
 8000388:	680c      	ldr	r4, [r1, #0]
 800038a:	4082      	lsls	r2, r0
 800038c:	4322      	orrs	r2, r4
 800038e:	600a      	str	r2, [r1, #0]
 8000390:	2000      	movs	r0, #0
 8000392:	2201      	movs	r2, #1
 8000394:	63d8      	str	r0, [r3, #60]	; 0x3c
 8000396:	f883 0024 	strb.w	r0, [r3, #36]	; 0x24
 800039a:	f883 2025 	strb.w	r2, [r3, #37]	; 0x25
 800039e:	bc30      	pop	{r4, r5}
 80003a0:	4770      	bx	lr
 80003a2:	bf00      	nop
 80003a4:	40020407 	.word	0x40020407
 80003a8:	bffdfff8 	.word	0xbffdfff8
 80003ac:	bffdfbf8 	.word	0xbffdfbf8
 80003b0:	40020000 	.word	0x40020000
 80003b4:	40020400 	.word	0x40020400
 80003b8:	400200a8 	.word	0x400200a8
 80003bc:	400204a8 	.word	0x400204a8

080003c0 <HAL_RTC_SetAlarm_IT.constprop.0>:
 80003c0:	e92d 41f0 	stmdb	sp!, {r4, r5, r6, r7, r8, lr}
 80003c4:	4c65      	ldr	r4, [pc, #404]	; (800055c <HAL_RTC_SetAlarm_IT.constprop.0+0x19c>)
 80003c6:	f894 3024 	ldrb.w	r3, [r4, #36]	; 0x24
 80003ca:	2b01      	cmp	r3, #1
 80003cc:	f000 80c2 	beq.w	8000554 <HAL_RTC_SetAlarm_IT.constprop.0+0x194>
 80003d0:	6861      	ldr	r1, [r4, #4]
 80003d2:	2201      	movs	r2, #1
 80003d4:	2302      	movs	r3, #2
 80003d6:	f884 2024 	strb.w	r2, [r4, #36]	; 0x24
 80003da:	f884 3025 	strb.w	r3, [r4, #37]	; 0x25
 80003de:	688e      	ldr	r6, [r1, #8]
 80003e0:	7802      	ldrb	r2, [r0, #0]
 80003e2:	6a05      	ldr	r5, [r0, #32]
 80003e4:	f016 0640 	ands.w	r6, r6, #64	; 0x40
 80003e8:	bf16      	itet	ne
 80003ea:	78c6      	ldrbne	r6, [r0, #3]
 80003ec:	70c6      	strbeq	r6, [r0, #3]
 80003ee:	05b6      	lslne	r6, r6, #22
 80003f0:	2a09      	cmp	r2, #9
 80003f2:	d909      	bls.n	8000408 <HAL_RTC_SetAlarm_IT.constprop.0+0x48>
 80003f4:	2300      	movs	r3, #0
 80003f6:	3a0a      	subs	r2, #10
 80003f8:	b2d2      	uxtb	r2, r2
 80003fa:	2a09      	cmp	r2, #9
 80003fc:	f103 0301 	add.w	r3, r3, #1
 8000400:	d8f9      	bhi.n	80003f6 <HAL_RTC_SetAlarm_IT.constprop.0+0x36>
 8000402:	ea42 1203 	orr.w	r2, r2, r3, lsl #4
 8000406:	b2d2      	uxtb	r2, r2
 8000408:	7843      	ldrb	r3, [r0, #1]
 800040a:	2b09      	cmp	r3, #9
 800040c:	ea4f 4202 	mov.w	r2, r2, lsl #16
 8000410:	d909      	bls.n	8000426 <HAL_RTC_SetAlarm_IT.constprop.0+0x66>
 8000412:	2700      	movs	r7, #0
 8000414:	3b0a      	subs	r3, #10
 8000416:	b2db      	uxtb	r3, r3
 8000418:	2b09      	cmp	r3, #9
 800041a:	f107 0701 	add.w	r7, r7, #1
 800041e:	d8f9      	bhi.n	8000414 <HAL_RTC_SetAlarm_IT.constprop.0+0x54>
 8000420:	ea43 1307 	orr.w	r3, r3, r7, lsl #4
 8000424:	b2db      	uxtb	r3, r3
 8000426:	f890 e002 	ldrb.w	lr, [r0, #2]
 800042a:	f1be 0f09 	cmp.w	lr, #9
 800042e:	ea4f 2803 	mov.w	r8, r3, lsl #8
 8000432:	d90d      	bls.n	8000450 <HAL_RTC_SetAlarm_IT.constprop.0+0x90>
 8000434:	2700      	movs	r7, #0
 8000436:	f1ae 0e0a 	sub.w	lr, lr, #10
 800043a:	fa5f fe8e 	uxtb.w	lr, lr
 800043e:	f1be 0f09 	cmp.w	lr, #9
 8000442:	f107 0701 	add.w	r7, r7, #1
 8000446:	d8f6      	bhi.n	8000436 <HAL_RTC_SetAlarm_IT.constprop.0+0x76>
 8000448:	ea4e 1e07 	orr.w	lr, lr, r7, lsl #4
 800044c:	fa5f fe8e 	uxtb.w	lr, lr
 8000450:	f890 c024 	ldrb.w	ip, [r0, #36]	; 0x24
 8000454:	f1bc 0f09 	cmp.w	ip, #9
 8000458:	d90d      	bls.n	8000476 <HAL_RTC_SetAlarm_IT.constprop.0+0xb6>
 800045a:	2700      	movs	r7, #0
 800045c:	f1ac 0c0a 	sub.w	ip, ip, #10
 8000460:	fa5f fc8c 	uxtb.w	ip, ip
 8000464:	f1bc 0f09 	cmp.w	ip, #9
 8000468:	f107 0701 	add.w	r7, r7, #1
 800046c:	d8f6      	bhi.n	800045c <HAL_RTC_SetAlarm_IT.constprop.0+0x9c>
 800046e:	ea4c 1c07 	orr.w	ip, ip, r7, lsl #4
 8000472:	fa5f fc8c 	uxtb.w	ip, ip
 8000476:	6943      	ldr	r3, [r0, #20]
 8000478:	6847      	ldr	r7, [r0, #4]
 800047a:	431d      	orrs	r5, r3
 800047c:	432e      	orrs	r6, r5
 800047e:	4332      	orrs	r2, r6
 8000480:	ea48 0302 	orr.w	r3, r8, r2
 8000484:	6a82      	ldr	r2, [r0, #40]	; 0x28
 8000486:	69c6      	ldr	r6, [r0, #28]
 8000488:	25ca      	movs	r5, #202	; 0xca
 800048a:	2053      	movs	r0, #83	; 0x53
 800048c:	624d      	str	r5, [r1, #36]	; 0x24
 800048e:	ea43 0e0e 	orr.w	lr, r3, lr
 8000492:	6248      	str	r0, [r1, #36]	; 0x24
 8000494:	f5b2 7f80 	cmp.w	r2, #256	; 0x100
 8000498:	ea4e 630c 	orr.w	r3, lr, ip, lsl #24
 800049c:	688a      	ldr	r2, [r1, #8]
 800049e:	ea46 0607 	orr.w	r6, r6, r7
 80004a2:	d039      	beq.n	8000518 <HAL_RTC_SetAlarm_IT.constprop.0+0x158>
 80004a4:	f422 7200 	bic.w	r2, r2, #512	; 0x200
 80004a8:	608a      	str	r2, [r1, #8]
 80004aa:	68ca      	ldr	r2, [r1, #12]
 80004ac:	b2d2      	uxtb	r2, r2
 80004ae:	f462 7220 	orn	r2, r2, #640	; 0x280
 80004b2:	60ca      	str	r2, [r1, #12]
 80004b4:	6825      	ldr	r5, [r4, #0]
 80004b6:	e004      	b.n	80004c2 <HAL_RTC_SetAlarm_IT.constprop.0+0x102>
 80004b8:	6820      	ldr	r0, [r4, #0]
 80004ba:	1b40      	subs	r0, r0, r5
 80004bc:	f5b0 7f7a 	cmp.w	r0, #1000	; 0x3e8
 80004c0:	d820      	bhi.n	8000504 <HAL_RTC_SetAlarm_IT.constprop.0+0x144>
 80004c2:	68ca      	ldr	r2, [r1, #12]
 80004c4:	f012 0202 	ands.w	r2, r2, #2
 80004c8:	d0f6      	beq.n	80004b8 <HAL_RTC_SetAlarm_IT.constprop.0+0xf8>
 80004ca:	620b      	str	r3, [r1, #32]
 80004cc:	648e      	str	r6, [r1, #72]	; 0x48
 80004ce:	688b      	ldr	r3, [r1, #8]
 80004d0:	f443 7300 	orr.w	r3, r3, #512	; 0x200
 80004d4:	608b      	str	r3, [r1, #8]
 80004d6:	688b      	ldr	r3, [r1, #8]
 80004d8:	f443 5300 	orr.w	r3, r3, #8192	; 0x2000
 80004dc:	608b      	str	r3, [r1, #8]
 80004de:	4b20      	ldr	r3, [pc, #128]	; (8000560 <HAL_RTC_SetAlarm_IT.constprop.0+0x1a0>)
 80004e0:	681a      	ldr	r2, [r3, #0]
 80004e2:	f442 2280 	orr.w	r2, r2, #262144	; 0x40000
 80004e6:	601a      	str	r2, [r3, #0]
 80004e8:	689a      	ldr	r2, [r3, #8]
 80004ea:	26ff      	movs	r6, #255	; 0xff
 80004ec:	f442 2280 	orr.w	r2, r2, #262144	; 0x40000
 80004f0:	2501      	movs	r5, #1
 80004f2:	2000      	movs	r0, #0
 80004f4:	609a      	str	r2, [r3, #8]
 80004f6:	624e      	str	r6, [r1, #36]	; 0x24
 80004f8:	f884 0024 	strb.w	r0, [r4, #36]	; 0x24
 80004fc:	f884 5025 	strb.w	r5, [r4, #37]	; 0x25
 8000500:	e8bd 81f0 	ldmia.w	sp!, {r4, r5, r6, r7, r8, pc}
 8000504:	2303      	movs	r3, #3
 8000506:	20ff      	movs	r0, #255	; 0xff
 8000508:	f884 2024 	strb.w	r2, [r4, #36]	; 0x24
 800050c:	6248      	str	r0, [r1, #36]	; 0x24
 800050e:	4618      	mov	r0, r3
 8000510:	f884 3025 	strb.w	r3, [r4, #37]	; 0x25
 8000514:	e8bd 81f0 	ldmia.w	sp!, {r4, r5, r6, r7, r8, pc}
 8000518:	f422 7280 	bic.w	r2, r2, #256	; 0x100
 800051c:	608a      	str	r2, [r1, #8]
 800051e:	68ca      	ldr	r2, [r1, #12]
 8000520:	b2d2      	uxtb	r2, r2
 8000522:	f462 72c0 	orn	r2, r2, #384	; 0x180
 8000526:	60ca      	str	r2, [r1, #12]
 8000528:	6825      	ldr	r5, [r4, #0]
 800052a:	e004      	b.n	8000536 <HAL_RTC_SetAlarm_IT.constprop.0+0x176>
 800052c:	6820      	ldr	r0, [r4, #0]
 800052e:	1b40      	subs	r0, r0, r5
 8000530:	f5b0 7f7a 	cmp.w	r0, #1000	; 0x3e8
 8000534:	d8e6      	bhi.n	8000504 <HAL_RTC_SetAlarm_IT.constprop.0+0x144>
 8000536:	68ca      	ldr	r2, [r1, #12]
 8000538:	f012 0201 	ands.w	r2, r2, #1
 800053c:	d0f6      	beq.n	800052c <HAL_RTC_SetAlarm_IT.constprop.0+0x16c>
 800053e:	61cb      	str	r3, [r1, #28]
 8000540:	644e      	str	r6, [r1, #68]	; 0x44
 8000542:	688b      	ldr	r3, [r1, #8]
 8000544:	f443 7380 	orr.w	r3, r3, #256	; 0x100
 8000548:	608b      	str	r3, [r1, #8]
 800054a:	688b      	ldr	r3, [r1, #8]
 800054c:	f443 5380 	orr.w	r3, r3, #4096	; 0x1000
 8000550:	608b      	str	r3, [r1, #8]
 8000552:	e7c4      	b.n	80004de <HAL_RTC_SetAlarm_IT.constprop.0+0x11e>
 8000554:	2002      	movs	r0, #2
 8000556:	e8bd 81f0 	ldmia.w	sp!, {r4, r5, r6, r7, r8, pc}
 800055a:	bf00      	nop
 800055c:	200000ac 	.word	0x200000ac
 8000560:	40010400 	.word	0x40010400

08000564 <HAL_RTC_WaitForSynchro.constprop.0>:
 8000564:	4909      	ldr	r1, [pc, #36]	; (800058c <HAL_RTC_WaitForSynchro.constprop.0+0x28>)
 8000566:	684a      	ldr	r2, [r1, #4]
 8000568:	68d3      	ldr	r3, [r2, #12]
 800056a:	f023 03a0 	bic.w	r3, r3, #160	; 0xa0
 800056e:	60d3      	str	r3, [r2, #12]
 8000570:	6808      	ldr	r0, [r1, #0]
 8000572:	e004      	b.n	800057e <HAL_RTC_WaitForSynchro.constprop.0+0x1a>
 8000574:	680b      	ldr	r3, [r1, #0]
 8000576:	1a1b      	subs	r3, r3, r0
 8000578:	f5b3 7f7a 	cmp.w	r3, #1000	; 0x3e8
 800057c:	d804      	bhi.n	8000588 <HAL_RTC_WaitForSynchro.constprop.0+0x24>
 800057e:	68d3      	ldr	r3, [r2, #12]
 8000580:	069b      	lsls	r3, r3, #26
 8000582:	d5f7      	bpl.n	8000574 <HAL_RTC_WaitForSynchro.constprop.0+0x10>
 8000584:	2000      	movs	r0, #0
 8000586:	4770      	bx	lr
 8000588:	2003      	movs	r0, #3
 800058a:	4770      	bx	lr
 800058c:	200000ac 	.word	0x200000ac

08000590 <RTC_ExitInitMode.constprop.0>:
 8000590:	b508      	push	{r3, lr}
 8000592:	4b11      	ldr	r3, [pc, #68]	; (80005d8 <RTC_ExitInitMode.constprop.0+0x48>)
 8000594:	68da      	ldr	r2, [r3, #12]
 8000596:	f022 0280 	bic.w	r2, r2, #128	; 0x80
 800059a:	60da      	str	r2, [r3, #12]
 800059c:	689a      	ldr	r2, [r3, #8]
 800059e:	0692      	lsls	r2, r2, #26
 80005a0:	d403      	bmi.n	80005aa <RTC_ExitInitMode.constprop.0+0x1a>
 80005a2:	f7ff ffdf 	bl	8000564 <HAL_RTC_WaitForSynchro.constprop.0>
 80005a6:	b988      	cbnz	r0, 80005cc <RTC_ExitInitMode.constprop.0+0x3c>
 80005a8:	bd08      	pop	{r3, pc}
 80005aa:	689a      	ldr	r2, [r3, #8]
 80005ac:	f022 0220 	bic.w	r2, r2, #32
 80005b0:	609a      	str	r2, [r3, #8]
 80005b2:	f7ff ffd7 	bl	8000564 <HAL_RTC_WaitForSynchro.constprop.0>
 80005b6:	b118      	cbz	r0, 80005c0 <RTC_ExitInitMode.constprop.0+0x30>
 80005b8:	4b08      	ldr	r3, [pc, #32]	; (80005dc <RTC_ExitInitMode.constprop.0+0x4c>)
 80005ba:	2003      	movs	r0, #3
 80005bc:	f883 0025 	strb.w	r0, [r3, #37]	; 0x25
 80005c0:	4a05      	ldr	r2, [pc, #20]	; (80005d8 <RTC_ExitInitMode.constprop.0+0x48>)
 80005c2:	6893      	ldr	r3, [r2, #8]
 80005c4:	f043 0320 	orr.w	r3, r3, #32
 80005c8:	6093      	str	r3, [r2, #8]
 80005ca:	bd08      	pop	{r3, pc}
 80005cc:	4b03      	ldr	r3, [pc, #12]	; (80005dc <RTC_ExitInitMode.constprop.0+0x4c>)
 80005ce:	2003      	movs	r0, #3
 80005d0:	f883 0025 	strb.w	r0, [r3, #37]	; 0x25
 80005d4:	bd08      	pop	{r3, pc}
 80005d6:	bf00      	nop
 80005d8:	40002800 	.word	0x40002800
 80005dc:	200000ac 	.word	0x200000ac

080005e0 <RTC_EnterInitMode.constprop.0>:
 80005e0:	490e      	ldr	r1, [pc, #56]	; (800061c <RTC_EnterInitMode.constprop.0+0x3c>)
 80005e2:	684a      	ldr	r2, [r1, #4]
 80005e4:	68d0      	ldr	r0, [r2, #12]
 80005e6:	f010 0040 	ands.w	r0, r0, #64	; 0x40
 80005ea:	d001      	beq.n	80005f0 <RTC_EnterInitMode.constprop.0+0x10>
 80005ec:	2000      	movs	r0, #0
 80005ee:	4770      	bx	lr
 80005f0:	f04f 33ff 	mov.w	r3, #4294967295	; 0xffffffff
 80005f4:	b430      	push	{r4, r5}
 80005f6:	60d3      	str	r3, [r2, #12]
 80005f8:	680c      	ldr	r4, [r1, #0]
 80005fa:	2503      	movs	r5, #3
 80005fc:	e009      	b.n	8000612 <RTC_EnterInitMode.constprop.0+0x32>
 80005fe:	2803      	cmp	r0, #3
 8000600:	d00a      	beq.n	8000618 <RTC_EnterInitMode.constprop.0+0x38>
 8000602:	680b      	ldr	r3, [r1, #0]
 8000604:	1b1b      	subs	r3, r3, r4
 8000606:	f5b3 7f7a 	cmp.w	r3, #1000	; 0x3e8
 800060a:	bf84      	itt	hi
 800060c:	f881 5025 	strbhi.w	r5, [r1, #37]	; 0x25
 8000610:	2003      	movhi	r0, #3
 8000612:	68d3      	ldr	r3, [r2, #12]
 8000614:	065b      	lsls	r3, r3, #25
 8000616:	d5f2      	bpl.n	80005fe <RTC_EnterInitMode.constprop.0+0x1e>
 8000618:	bc30      	pop	{r4, r5}
 800061a:	4770      	bx	lr
 800061c:	200000ac 	.word	0x200000ac

08000620 <acc_utils_transfer_buffer_to_uint32.constprop.0>:
 8000620:	8802      	ldrh	r2, [r0, #0]
 8000622:	8843      	ldrh	r3, [r0, #2]
 8000624:	ea43 4302 	orr.w	r3, r3, r2, lsl #16
 8000628:	600b      	str	r3, [r1, #0]
 800062a:	4770      	bx	lr

0800062c <get_parameter_patch_range.constprop.0>:
 800062c:	f8df c084 	ldr.w	ip, [pc, #132]	; 80006b4 <get_parameter_patch_range.constprop.0+0x88>
 8000630:	e92d 4ff0 	stmdb	sp!, {r4, r5, r6, r7, r8, r9, sl, fp, lr}
 8000634:	3802      	subs	r0, #2
 8000636:	3902      	subs	r1, #2
 8000638:	f10c 0ae2 	add.w	sl, ip, #226	; 0xe2
 800063c:	f10c 0be4 	add.w	fp, ip, #228	; 0xe4
 8000640:	f04f 0800 	mov.w	r8, #0
 8000644:	f640 19de 	movw	r9, #2526	; 0x9de
 8000648:	f830 5f02 	ldrh.w	r5, [r0, #2]!
 800064c:	f831 4f02 	ldrh.w	r4, [r1, #2]!
 8000650:	42a5      	cmp	r5, r4
 8000652:	d020      	beq.n	8000696 <get_parameter_patch_range.constprop.0+0x6a>
 8000654:	f89c 5000 	ldrb.w	r5, [ip]
 8000658:	eb0b 05c5 	add.w	r5, fp, r5, lsl #3
 800065c:	886c      	ldrh	r4, [r5, #2]
 800065e:	b324      	cbz	r4, 80006aa <get_parameter_patch_range.constprop.0+0x7e>
 8000660:	686f      	ldr	r7, [r5, #4]
 8000662:	f647 76ff 	movw	r6, #32767	; 0x7fff
 8000666:	2500      	movs	r5, #0
 8000668:	eb07 0e84 	add.w	lr, r7, r4, lsl #2
 800066c:	f857 4b04 	ldr.w	r4, [r7], #4
 8000670:	b2a4      	uxth	r4, r4
 8000672:	42a6      	cmp	r6, r4
 8000674:	bf28      	it	cs
 8000676:	4626      	movcs	r6, r4
 8000678:	42a5      	cmp	r5, r4
 800067a:	bf38      	it	cc
 800067c:	4625      	movcc	r5, r4
 800067e:	45be      	cmp	lr, r7
 8000680:	d1f4      	bne.n	800066c <get_parameter_patch_range.constprop.0+0x40>
 8000682:	0076      	lsls	r6, r6, #1
 8000684:	b2b6      	uxth	r6, r6
 8000686:	006d      	lsls	r5, r5, #1
 8000688:	b2ad      	uxth	r5, r5
 800068a:	45b1      	cmp	r9, r6
 800068c:	bf28      	it	cs
 800068e:	46b1      	movcs	r9, r6
 8000690:	45a8      	cmp	r8, r5
 8000692:	bf38      	it	cc
 8000694:	46a8      	movcc	r8, r5
 8000696:	f10c 0c01 	add.w	ip, ip, #1
 800069a:	45d4      	cmp	ip, sl
 800069c:	d1d4      	bne.n	8000648 <get_parameter_patch_range.constprop.0+0x1c>
 800069e:	f8a2 9000 	strh.w	r9, [r2]
 80006a2:	f8a3 8000 	strh.w	r8, [r3]
 80006a6:	e8bd 8ff0 	ldmia.w	sp!, {r4, r5, r6, r7, r8, r9, sl, fp, pc}
 80006aa:	4625      	mov	r5, r4
 80006ac:	f647 76ff 	movw	r6, #32767	; 0x7fff
 80006b0:	e7e7      	b.n	8000682 <get_parameter_patch_range.constprop.0+0x56>
 80006b2:	bf00      	nop
 80006b4:	0800b5e0 	.word	0x0800b5e0

080006b8 <acc_alg_basic_util_crc32.constprop.0>:
 80006b8:	4a0b      	ldr	r2, [pc, #44]	; (80006e8 <acc_alg_basic_util_crc32.constprop.0+0x30>)
 80006ba:	b430      	push	{r4, r5}
 80006bc:	1e41      	subs	r1, r0, #1
 80006be:	f100 0587 	add.w	r5, r0, #135	; 0x87
 80006c2:	f04f 30ff 	mov.w	r0, #4294967295	; 0xffffffff
 80006c6:	f811 4f01 	ldrb.w	r4, [r1, #1]!
 80006ca:	2308      	movs	r3, #8
 80006cc:	4060      	eors	r0, r4
 80006ce:	07c4      	lsls	r4, r0, #31
 80006d0:	bf4c      	ite	mi
 80006d2:	ea82 0050 	eormi.w	r0, r2, r0, lsr #1
 80006d6:	0840      	lsrpl	r0, r0, #1
 80006d8:	3b01      	subs	r3, #1
 80006da:	d1f8      	bne.n	80006ce <acc_alg_basic_util_crc32.constprop.0+0x16>
 80006dc:	428d      	cmp	r5, r1
 80006de:	d1f2      	bne.n	80006c6 <acc_alg_basic_util_crc32.constprop.0+0xe>
 80006e0:	43c0      	mvns	r0, r0
 80006e2:	bc30      	pop	{r4, r5}
 80006e4:	4770      	bx	lr
 80006e6:	bf00      	nop
 80006e8:	edb88320 	.word	0xedb88320

080006ec <acc_cal_algorithms_calc_pulse_params.constprop.0>:
 80006ec:	e92d 4ff0 	stmdb	sp!, {r4, r5, r6, r7, r8, r9, sl, fp, lr}
 80006f0:	4604      	mov	r4, r0
 80006f2:	b087      	sub	sp, #28
 80006f4:	2500      	movs	r5, #0
 80006f6:	eb04 0e41 	add.w	lr, r4, r1, lsl #1
 80006fa:	9002      	str	r0, [sp, #8]
 80006fc:	9205      	str	r2, [sp, #20]
 80006fe:	4610      	mov	r0, r2
 8000700:	f8df b1c4 	ldr.w	fp, [pc, #452]	; 80008c8 <acc_cal_algorithms_calc_pulse_params.constprop.0+0x1dc>
 8000704:	9104      	str	r1, [sp, #16]
 8000706:	9303      	str	r3, [sp, #12]
 8000708:	f1ae 0e22 	sub.w	lr, lr, #34	; 0x22
 800070c:	1ea2      	subs	r2, r4, #2
 800070e:	462f      	mov	r7, r5
 8000710:	9500      	str	r5, [sp, #0]
 8000712:	46aa      	mov	sl, r5
 8000714:	9501      	str	r5, [sp, #4]
 8000716:	f04f 0c01 	mov.w	ip, #1
 800071a:	f240 29ee 	movw	r9, #750	; 0x2ee
 800071e:	e013      	b.n	8000748 <acc_cal_algorithms_calc_pulse_params.constprop.0+0x5c>
 8000720:	9d01      	ldr	r5, [sp, #4]
 8000722:	bb7d      	cbnz	r5, 8000784 <acc_cal_algorithms_calc_pulse_params.constprop.0+0x98>
 8000724:	4553      	cmp	r3, sl
 8000726:	dd34      	ble.n	8000792 <acc_cal_algorithms_calc_pulse_params.constprop.0+0xa6>
 8000728:	469a      	mov	sl, r3
 800072a:	2501      	movs	r5, #1
 800072c:	9e00      	ldr	r6, [sp, #0]
 800072e:	4276      	negs	r6, r6
 8000730:	42b3      	cmp	r3, r6
 8000732:	bfbc      	itt	lt
 8000734:	eba8 0304 	sublt.w	r3, r8, r4
 8000738:	9300      	strlt	r3, [sp, #0]
 800073a:	428f      	cmp	r7, r1
 800073c:	bf38      	it	cc
 800073e:	460f      	movcc	r7, r1
 8000740:	4596      	cmp	lr, r2
 8000742:	f100 0002 	add.w	r0, r0, #2
 8000746:	d02a      	beq.n	800079e <acc_cal_algorithms_calc_pulse_params.constprop.0+0xb2>
 8000748:	8c54      	ldrh	r4, [r2, #34]	; 0x22
 800074a:	f832 1f02 	ldrh.w	r1, [r2, #2]!
 800074e:	1a63      	subs	r3, r4, r1
 8000750:	f503 4600 	add.w	r6, r3, #32768	; 0x8000
 8000754:	f5b6 3f80 	cmp.w	r6, #65536	; 0x10000
 8000758:	bf38      	it	cc
 800075a:	8003      	strhcc	r3, [r0, #0]
 800075c:	4688      	mov	r8, r1
 800075e:	bf2c      	ite	cs
 8000760:	f04f 0c00 	movcs.w	ip, #0
 8000764:	8811      	ldrhcc	r1, [r2, #0]
 8000766:	454b      	cmp	r3, r9
 8000768:	dcda      	bgt.n	8000720 <acc_cal_algorithms_calc_pulse_params.constprop.0+0x34>
 800076a:	459a      	cmp	sl, r3
 800076c:	bfb8      	it	lt
 800076e:	469a      	movlt	sl, r3
 8000770:	455b      	cmp	r3, fp
 8000772:	dadb      	bge.n	800072c <acc_cal_algorithms_calc_pulse_params.constprop.0+0x40>
 8000774:	2d00      	cmp	r5, #0
 8000776:	bf12      	itee	ne
 8000778:	462e      	movne	r6, r5
 800077a:	2601      	moveq	r6, #1
 800077c:	f04f 0c00 	moveq.w	ip, #0
 8000780:	9601      	str	r6, [sp, #4]
 8000782:	e7d3      	b.n	800072c <acc_cal_algorithms_calc_pulse_params.constprop.0+0x40>
 8000784:	4553      	cmp	r3, sl
 8000786:	dd06      	ble.n	8000796 <acc_cal_algorithms_calc_pulse_params.constprop.0+0xaa>
 8000788:	9d01      	ldr	r5, [sp, #4]
 800078a:	469a      	mov	sl, r3
 800078c:	f04f 0c00 	mov.w	ip, #0
 8000790:	e7cc      	b.n	800072c <acc_cal_algorithms_calc_pulse_params.constprop.0+0x40>
 8000792:	2501      	movs	r5, #1
 8000794:	e7ca      	b.n	800072c <acc_cal_algorithms_calc_pulse_params.constprop.0+0x40>
 8000796:	9d01      	ldr	r5, [sp, #4]
 8000798:	f04f 0c00 	mov.w	ip, #0
 800079c:	e7c6      	b.n	800072c <acc_cal_algorithms_calc_pulse_params.constprop.0+0x40>
 800079e:	f1bc 0f00 	cmp.w	ip, #0
 80007a2:	d105      	bne.n	80007b0 <acc_cal_algorithms_calc_pulse_params.constprop.0+0xc4>
 80007a4:	2300      	movs	r3, #0
 80007a6:	9301      	str	r3, [sp, #4]
 80007a8:	9801      	ldr	r0, [sp, #4]
 80007aa:	b007      	add	sp, #28
 80007ac:	e8bd 8ff0 	ldmia.w	sp!, {r4, r5, r6, r7, r8, r9, sl, fp, pc}
 80007b0:	2d00      	cmp	r5, #0
 80007b2:	d0f7      	beq.n	80007a4 <acc_cal_algorithms_calc_pulse_params.constprop.0+0xb8>
 80007b4:	9b01      	ldr	r3, [sp, #4]
 80007b6:	2b00      	cmp	r3, #0
 80007b8:	d0f4      	beq.n	80007a4 <acc_cal_algorithms_calc_pulse_params.constprop.0+0xb8>
 80007ba:	9b04      	ldr	r3, [sp, #16]
 80007bc:	9e05      	ldr	r6, [sp, #20]
 80007be:	9704      	str	r7, [sp, #16]
 80007c0:	f04f 0900 	mov.w	r9, #0
 80007c4:	f1a3 0e38 	sub.w	lr, r3, #56	; 0x38
 80007c8:	3626      	adds	r6, #38	; 0x26
 80007ca:	46c8      	mov	r8, r9
 80007cc:	46cc      	mov	ip, r9
 80007ce:	464d      	mov	r5, r9
 80007d0:	464f      	mov	r7, r9
 80007d2:	f936 3f02 	ldrsh.w	r3, [r6, #2]!
 80007d6:	eb03 0343 	add.w	r3, r3, r3, lsl #1
 80007da:	ebc3 03c3 	rsb	r3, r3, r3, lsl #3
 80007de:	4630      	mov	r0, r6
 80007e0:	4631      	mov	r1, r6
 80007e2:	2214      	movs	r2, #20
 80007e4:	f931 bd02 	ldrsh.w	fp, [r1, #-2]!
 80007e8:	f930 4f02 	ldrsh.w	r4, [r0, #2]!
 80007ec:	fb02 330b 	mla	r3, r2, fp, r3
 80007f0:	f1a2 0b04 	sub.w	fp, r2, #4
 80007f4:	3a01      	subs	r2, #1
 80007f6:	fb0b 3304 	mla	r3, fp, r4, r3
 80007fa:	d1f3      	bne.n	80007e4 <acc_cal_algorithms_calc_pulse_params.constprop.0+0xf8>
 80007fc:	4563      	cmp	r3, ip
 80007fe:	dc5b      	bgt.n	80008b8 <acc_cal_algorithms_calc_pulse_params.constprop.0+0x1cc>
 8000800:	4543      	cmp	r3, r8
 8000802:	da01      	bge.n	8000808 <acc_cal_algorithms_calc_pulse_params.constprop.0+0x11c>
 8000804:	4698      	mov	r8, r3
 8000806:	46a9      	mov	r9, r5
 8000808:	3501      	adds	r5, #1
 800080a:	4575      	cmp	r5, lr
 800080c:	d1e1      	bne.n	80007d2 <acc_cal_algorithms_calc_pulse_params.constprop.0+0xe6>
 800080e:	4b2c      	ldr	r3, [pc, #176]	; (80008c0 <acc_cal_algorithms_calc_pulse_params.constprop.0+0x1d4>)
 8000810:	459c      	cmp	ip, r3
 8000812:	4638      	mov	r0, r7
 8000814:	9f04      	ldr	r7, [sp, #16]
 8000816:	ddc5      	ble.n	80007a4 <acc_cal_algorithms_calc_pulse_params.constprop.0+0xb8>
 8000818:	4b2a      	ldr	r3, [pc, #168]	; (80008c4 <acc_cal_algorithms_calc_pulse_params.constprop.0+0x1d8>)
 800081a:	4598      	cmp	r8, r3
 800081c:	dac2      	bge.n	80007a4 <acc_cal_algorithms_calc_pulse_params.constprop.0+0xb8>
 800081e:	f1ba 0f00 	cmp.w	sl, #0
 8000822:	d0bf      	beq.n	80007a4 <acc_cal_algorithms_calc_pulse_params.constprop.0+0xb8>
 8000824:	9b00      	ldr	r3, [sp, #0]
 8000826:	2b00      	cmp	r3, #0
 8000828:	d0bc      	beq.n	80007a4 <acc_cal_algorithms_calc_pulse_params.constprop.0+0xb8>
 800082a:	9b02      	ldr	r3, [sp, #8]
 800082c:	9911      	ldr	r1, [sp, #68]	; 0x44
 800082e:	881b      	ldrh	r3, [r3, #0]
 8000830:	013f      	lsls	r7, r7, #4
 8000832:	011b      	lsls	r3, r3, #4
 8000834:	b141      	cbz	r1, 8000848 <acc_cal_algorithms_calc_pulse_params.constprop.0+0x15c>
 8000836:	42bb      	cmp	r3, r7
 8000838:	d204      	bcs.n	8000844 <acc_cal_algorithms_calc_pulse_params.constprop.0+0x158>
 800083a:	43da      	mvns	r2, r3
 800083c:	4452      	add	r2, sl
 800083e:	443a      	add	r2, r7
 8000840:	fbb2 f2fa 	udiv	r2, r2, sl
 8000844:	9911      	ldr	r1, [sp, #68]	; 0x44
 8000846:	600a      	str	r2, [r1, #0]
 8000848:	9a10      	ldr	r2, [sp, #64]	; 0x40
 800084a:	2a00      	cmp	r2, #0
 800084c:	d0ac      	beq.n	80007a8 <acc_cal_algorithms_calc_pulse_params.constprop.0+0xbc>
 800084e:	9a03      	ldr	r2, [sp, #12]
 8000850:	2a00      	cmp	r2, #0
 8000852:	d0a9      	beq.n	80007a8 <acc_cal_algorithms_calc_pulse_params.constprop.0+0xbc>
 8000854:	4602      	mov	r2, r0
 8000856:	9902      	ldr	r1, [sp, #8]
 8000858:	321c      	adds	r2, #28
 800085a:	f831 1012 	ldrh.w	r1, [r1, r2, lsl #1]
 800085e:	ebb3 1f01 	cmp.w	r3, r1, lsl #4
 8000862:	ea4f 1001 	mov.w	r0, r1, lsl #4
 8000866:	d205      	bcs.n	8000874 <acc_cal_algorithms_calc_pulse_params.constprop.0+0x188>
 8000868:	43db      	mvns	r3, r3
 800086a:	4453      	add	r3, sl
 800086c:	4403      	add	r3, r0
 800086e:	fbb3 f3fa 	udiv	r3, r3, sl
 8000872:	1ad2      	subs	r2, r2, r3
 8000874:	9b02      	ldr	r3, [sp, #8]
 8000876:	f109 091c 	add.w	r9, r9, #28
 800087a:	f833 3019 	ldrh.w	r3, [r3, r9, lsl #1]
 800087e:	ebb7 1f03 	cmp.w	r7, r3, lsl #4
 8000882:	ea4f 1103 	mov.w	r1, r3, lsl #4
 8000886:	d907      	bls.n	8000898 <acc_cal_algorithms_calc_pulse_params.constprop.0+0x1ac>
 8000888:	9800      	ldr	r0, [sp, #0]
 800088a:	1e43      	subs	r3, r0, #1
 800088c:	443b      	add	r3, r7
 800088e:	1a5b      	subs	r3, r3, r1
 8000890:	fbb3 f3f0 	udiv	r3, r3, r0
 8000894:	eba9 0903 	sub.w	r9, r9, r3
 8000898:	2a00      	cmp	r2, #0
 800089a:	db83      	blt.n	80007a4 <acc_cal_algorithms_calc_pulse_params.constprop.0+0xb8>
 800089c:	f1b9 0f00 	cmp.w	r9, #0
 80008a0:	db80      	blt.n	80007a4 <acc_cal_algorithms_calc_pulse_params.constprop.0+0xb8>
 80008a2:	454a      	cmp	r2, r9
 80008a4:	f73f af7e 	bgt.w	80007a4 <acc_cal_algorithms_calc_pulse_params.constprop.0+0xb8>
 80008a8:	9b10      	ldr	r3, [sp, #64]	; 0x40
 80008aa:	eba9 0902 	sub.w	r9, r9, r2
 80008ae:	f8c3 9000 	str.w	r9, [r3]
 80008b2:	9b03      	ldr	r3, [sp, #12]
 80008b4:	601a      	str	r2, [r3, #0]
 80008b6:	e777      	b.n	80007a8 <acc_cal_algorithms_calc_pulse_params.constprop.0+0xbc>
 80008b8:	469c      	mov	ip, r3
 80008ba:	462f      	mov	r7, r5
 80008bc:	e7a4      	b.n	8000808 <acc_cal_algorithms_calc_pulse_params.constprop.0+0x11c>
 80008be:	bf00      	nop
 80008c0:	000186a0 	.word	0x000186a0
 80008c4:	fffe7960 	.word	0xfffe7960
 80008c8:	fffffd12 	.word	0xfffffd12

080008cc <acc_diagnostic_log_array.constprop.0>:
 80008cc:	4770      	bx	lr
 80008ce:	bf00      	nop

080008d0 <acc_cal_algorithms_phase_unwrap.constprop.0>:
 80008d0:	b470      	push	{r4, r5, r6}
 80008d2:	4e12      	ldr	r6, [pc, #72]	; (800091c <acc_cal_algorithms_phase_unwrap.constprop.0+0x4c>)
 80008d4:	4d12      	ldr	r5, [pc, #72]	; (8000920 <acc_cal_algorithms_phase_unwrap.constprop.0+0x50>)
 80008d6:	f100 04bc 	add.w	r4, r0, #188	; 0xbc
 80008da:	2100      	movs	r1, #0
 80008dc:	6843      	ldr	r3, [r0, #4]
 80008de:	440b      	add	r3, r1
 80008e0:	4602      	mov	r2, r0
 80008e2:	f840 3f04 	str.w	r3, [r0, #4]!
 80008e6:	6812      	ldr	r2, [r2, #0]
 80008e8:	1a9a      	subs	r2, r3, r2
 80008ea:	42b2      	cmp	r2, r6
 80008ec:	dd09      	ble.n	8000902 <acc_cal_algorithms_phase_unwrap.constprop.0+0x32>
 80008ee:	f850 2c04 	ldr.w	r2, [r0, #-4]
 80008f2:	f5a3 23c9 	sub.w	r3, r3, #411648	; 0x64800
 80008f6:	3b7e      	subs	r3, #126	; 0x7e
 80008f8:	f5a1 21c9 	sub.w	r1, r1, #411648	; 0x64800
 80008fc:	6003      	str	r3, [r0, #0]
 80008fe:	397e      	subs	r1, #126	; 0x7e
 8000900:	1a9a      	subs	r2, r3, r2
 8000902:	42aa      	cmp	r2, r5
 8000904:	da06      	bge.n	8000914 <acc_cal_algorithms_phase_unwrap.constprop.0+0x44>
 8000906:	f503 23c9 	add.w	r3, r3, #411648	; 0x64800
 800090a:	337e      	adds	r3, #126	; 0x7e
 800090c:	f501 21c9 	add.w	r1, r1, #411648	; 0x64800
 8000910:	6003      	str	r3, [r0, #0]
 8000912:	317e      	adds	r1, #126	; 0x7e
 8000914:	4284      	cmp	r4, r0
 8000916:	d1e1      	bne.n	80008dc <acc_cal_algorithms_phase_unwrap.constprop.0+0xc>
 8000918:	bc70      	pop	{r4, r5, r6}
 800091a:	4770      	bx	lr
 800091c:	0003243f 	.word	0x0003243f
 8000920:	fffcdbc1 	.word	0xfffcdbc1

08000924 <data_callback>:
 8000924:	b470      	push	{r4, r5, r6}
 8000926:	888c      	ldrh	r4, [r1, #4]
 8000928:	6893      	ldr	r3, [r2, #8]
 800092a:	890e      	ldrh	r6, [r1, #8]
 800092c:	798d      	ldrb	r5, [r1, #6]
 800092e:	79ca      	ldrb	r2, [r1, #7]
 8000930:	709a      	strb	r2, [r3, #2]
 8000932:	3c00      	subs	r4, #0
 8000934:	bf18      	it	ne
 8000936:	2401      	movne	r4, #1
 8000938:	809e      	strh	r6, [r3, #4]
 800093a:	701c      	strb	r4, [r3, #0]
 800093c:	705d      	strb	r5, [r3, #1]
 800093e:	6098      	str	r0, [r3, #8]
 8000940:	bc70      	pop	{r4, r5, r6}
 8000942:	4770      	bx	lr

08000944 <pipeline_a121_produce>:
 8000944:	6803      	ldr	r3, [r0, #0]
 8000946:	f8d0 20e8 	ldr.w	r2, [r0, #232]	; 0xe8
 800094a:	f8c0 20f0 	str.w	r2, [r0, #240]	; 0xf0
 800094e:	685a      	ldr	r2, [r3, #4]
 8000950:	4618      	mov	r0, r3
 8000952:	4710      	bx	r2

08000954 <sink_a121_callback_consume>:
 8000954:	e9d0 230f 	ldrd	r2, r3, [r0, #60]	; 0x3c
 8000958:	6b81      	ldr	r1, [r0, #56]	; 0x38
 800095a:	6900      	ldr	r0, [r0, #16]
 800095c:	4718      	bx	r3
 800095e:	bf00      	nop

08000960 <element_frame_reset>:
 8000960:	6800      	ldr	r0, [r0, #0]
 8000962:	68c3      	ldr	r3, [r0, #12]
 8000964:	4718      	bx	r3
 8000966:	bf00      	nop

08000968 <acc_element_frame_aux_release>:
 8000968:	4770      	bx	lr
 800096a:	bf00      	nop

0800096c <element_phase_enhancement_reset>:
 800096c:	e7f8      	b.n	8000960 <element_frame_reset>
 800096e:	bf00      	nop

08000970 <element_frame_aux_validate>:
 8000970:	6800      	ldr	r0, [r0, #0]
 8000972:	6883      	ldr	r3, [r0, #8]
 8000974:	4718      	bx	r3
 8000976:	bf00      	nop

08000978 <element_phase_enhancement_validate>:
 8000978:	e7fa      	b.n	8000970 <element_frame_aux_validate>
 800097a:	bf00      	nop

0800097c <element_frame_aux_reset>:
 800097c:	e7f0      	b.n	8000960 <element_frame_reset>
 800097e:	bf00      	nop

08000980 <SPI_WaitFifoStateUntilTimeout.constprop.0>:
 8000980:	b4f0      	push	{r4, r5, r6, r7}
 8000982:	4b31      	ldr	r3, [pc, #196]	; (8000a48 <SPI_WaitFifoStateUntilTimeout.constprop.0+0xc8>)
 8000984:	4e31      	ldr	r6, [pc, #196]	; (8000a4c <SPI_WaitFifoStateUntilTimeout.constprop.0+0xcc>)
 8000986:	681b      	ldr	r3, [r3, #0]
 8000988:	6805      	ldr	r5, [r0, #0]
 800098a:	b082      	sub	sp, #8
 800098c:	2400      	movs	r4, #0
 800098e:	f88d 4003 	strb.w	r4, [sp, #3]
 8000992:	6834      	ldr	r4, [r6, #0]
 8000994:	6837      	ldr	r7, [r6, #0]
 8000996:	eb03 0383 	add.w	r3, r3, r3, lsl #2
 800099a:	f1c4 0464 	rsb	r4, r4, #100	; 0x64
 800099e:	ebc3 03c3 	rsb	r3, r3, r3, lsl #3
 80009a2:	4422      	add	r2, r4
 80009a4:	0d1b      	lsrs	r3, r3, #20
 80009a6:	fb02 f303 	mul.w	r3, r2, r3
 80009aa:	9301      	str	r3, [sp, #4]
 80009ac:	68ab      	ldr	r3, [r5, #8]
 80009ae:	4219      	tst	r1, r3
 80009b0:	d10a      	bne.n	80009c8 <SPI_WaitFifoStateUntilTimeout.constprop.0+0x48>
 80009b2:	e02c      	b.n	8000a0e <SPI_WaitFifoStateUntilTimeout.constprop.0+0x8e>
 80009b4:	9c01      	ldr	r4, [sp, #4]
 80009b6:	9b01      	ldr	r3, [sp, #4]
 80009b8:	3b01      	subs	r3, #1
 80009ba:	9301      	str	r3, [sp, #4]
 80009bc:	68ab      	ldr	r3, [r5, #8]
 80009be:	2c00      	cmp	r4, #0
 80009c0:	bf08      	it	eq
 80009c2:	2200      	moveq	r2, #0
 80009c4:	4219      	tst	r1, r3
 80009c6:	d022      	beq.n	8000a0e <SPI_WaitFifoStateUntilTimeout.constprop.0+0x8e>
 80009c8:	f5b1 6fc0 	cmp.w	r1, #1536	; 0x600
 80009cc:	d105      	bne.n	80009da <SPI_WaitFifoStateUntilTimeout.constprop.0+0x5a>
 80009ce:	7b2b      	ldrb	r3, [r5, #12]
 80009d0:	b2db      	uxtb	r3, r3
 80009d2:	f88d 3003 	strb.w	r3, [sp, #3]
 80009d6:	f89d 3003 	ldrb.w	r3, [sp, #3]
 80009da:	6833      	ldr	r3, [r6, #0]
 80009dc:	1bdb      	subs	r3, r3, r7
 80009de:	429a      	cmp	r2, r3
 80009e0:	d8e8      	bhi.n	80009b4 <SPI_WaitFifoStateUntilTimeout.constprop.0+0x34>
 80009e2:	686b      	ldr	r3, [r5, #4]
 80009e4:	6842      	ldr	r2, [r0, #4]
 80009e6:	f023 03e0 	bic.w	r3, r3, #224	; 0xe0
 80009ea:	f5b2 7f82 	cmp.w	r2, #260	; 0x104
 80009ee:	606b      	str	r3, [r5, #4]
 80009f0:	d01a      	beq.n	8000a28 <SPI_WaitFifoStateUntilTimeout.constprop.0+0xa8>
 80009f2:	6a83      	ldr	r3, [r0, #40]	; 0x28
 80009f4:	f5b3 5f00 	cmp.w	r3, #8192	; 0x2000
 80009f8:	d00d      	beq.n	8000a16 <SPI_WaitFifoStateUntilTimeout.constprop.0+0x96>
 80009fa:	2201      	movs	r2, #1
 80009fc:	2300      	movs	r3, #0
 80009fe:	f880 205d 	strb.w	r2, [r0, #93]	; 0x5d
 8000a02:	f880 305c 	strb.w	r3, [r0, #92]	; 0x5c
 8000a06:	2003      	movs	r0, #3
 8000a08:	b002      	add	sp, #8
 8000a0a:	bcf0      	pop	{r4, r5, r6, r7}
 8000a0c:	4770      	bx	lr
 8000a0e:	2000      	movs	r0, #0
 8000a10:	b002      	add	sp, #8
 8000a12:	bcf0      	pop	{r4, r5, r6, r7}
 8000a14:	4770      	bx	lr
 8000a16:	682b      	ldr	r3, [r5, #0]
 8000a18:	f423 5300 	bic.w	r3, r3, #8192	; 0x2000
 8000a1c:	602b      	str	r3, [r5, #0]
 8000a1e:	682b      	ldr	r3, [r5, #0]
 8000a20:	f443 5300 	orr.w	r3, r3, #8192	; 0x2000
 8000a24:	602b      	str	r3, [r5, #0]
 8000a26:	e7e8      	b.n	80009fa <SPI_WaitFifoStateUntilTimeout.constprop.0+0x7a>
 8000a28:	6883      	ldr	r3, [r0, #8]
 8000a2a:	f5b3 4f00 	cmp.w	r3, #32768	; 0x8000
 8000a2e:	d002      	beq.n	8000a36 <SPI_WaitFifoStateUntilTimeout.constprop.0+0xb6>
 8000a30:	f5b3 6f80 	cmp.w	r3, #1024	; 0x400
 8000a34:	d1dd      	bne.n	80009f2 <SPI_WaitFifoStateUntilTimeout.constprop.0+0x72>
 8000a36:	682b      	ldr	r3, [r5, #0]
 8000a38:	f023 0340 	bic.w	r3, r3, #64	; 0x40
 8000a3c:	602b      	str	r3, [r5, #0]
 8000a3e:	6a83      	ldr	r3, [r0, #40]	; 0x28
 8000a40:	f5b3 5f00 	cmp.w	r3, #8192	; 0x2000
 8000a44:	d1d9      	bne.n	80009fa <SPI_WaitFifoStateUntilTimeout.constprop.0+0x7a>
 8000a46:	e7e6      	b.n	8000a16 <SPI_WaitFifoStateUntilTimeout.constprop.0+0x96>
 8000a48:	20000000 	.word	0x20000000
 8000a4c:	200000ac 	.word	0x200000ac

08000a50 <SPI_WaitFlagStateUntilTimeout.constprop.0>:
 8000a50:	b470      	push	{r4, r5, r6}
 8000a52:	4d29      	ldr	r5, [pc, #164]	; (8000af8 <SPI_WaitFlagStateUntilTimeout.constprop.0+0xa8>)
 8000a54:	4b29      	ldr	r3, [pc, #164]	; (8000afc <SPI_WaitFlagStateUntilTimeout.constprop.0+0xac>)
 8000a56:	682a      	ldr	r2, [r5, #0]
 8000a58:	681b      	ldr	r3, [r3, #0]
 8000a5a:	6804      	ldr	r4, [r0, #0]
 8000a5c:	682e      	ldr	r6, [r5, #0]
 8000a5e:	f1c2 0264 	rsb	r2, r2, #100	; 0x64
 8000a62:	4411      	add	r1, r2
 8000a64:	b083      	sub	sp, #12
 8000a66:	f3c3 33cb 	ubfx	r3, r3, #15, #12
 8000a6a:	fb01 f303 	mul.w	r3, r1, r3
 8000a6e:	9301      	str	r3, [sp, #4]
 8000a70:	68a3      	ldr	r3, [r4, #8]
 8000a72:	061a      	lsls	r2, r3, #24
 8000a74:	d50d      	bpl.n	8000a92 <SPI_WaitFlagStateUntilTimeout.constprop.0+0x42>
 8000a76:	682b      	ldr	r3, [r5, #0]
 8000a78:	1b9b      	subs	r3, r3, r6
 8000a7a:	428b      	cmp	r3, r1
 8000a7c:	d20d      	bcs.n	8000a9a <SPI_WaitFlagStateUntilTimeout.constprop.0+0x4a>
 8000a7e:	9a01      	ldr	r2, [sp, #4]
 8000a80:	9b01      	ldr	r3, [sp, #4]
 8000a82:	3b01      	subs	r3, #1
 8000a84:	9301      	str	r3, [sp, #4]
 8000a86:	68a3      	ldr	r3, [r4, #8]
 8000a88:	2a00      	cmp	r2, #0
 8000a8a:	bf08      	it	eq
 8000a8c:	2100      	moveq	r1, #0
 8000a8e:	061b      	lsls	r3, r3, #24
 8000a90:	d4f1      	bmi.n	8000a76 <SPI_WaitFlagStateUntilTimeout.constprop.0+0x26>
 8000a92:	2000      	movs	r0, #0
 8000a94:	b003      	add	sp, #12
 8000a96:	bc70      	pop	{r4, r5, r6}
 8000a98:	4770      	bx	lr
 8000a9a:	6863      	ldr	r3, [r4, #4]
 8000a9c:	6842      	ldr	r2, [r0, #4]
 8000a9e:	f023 03e0 	bic.w	r3, r3, #224	; 0xe0
 8000aa2:	f5b2 7f82 	cmp.w	r2, #260	; 0x104
 8000aa6:	6063      	str	r3, [r4, #4]
 8000aa8:	d016      	beq.n	8000ad8 <SPI_WaitFlagStateUntilTimeout.constprop.0+0x88>
 8000aaa:	6a83      	ldr	r3, [r0, #40]	; 0x28
 8000aac:	f5b3 5f00 	cmp.w	r3, #8192	; 0x2000
 8000ab0:	d009      	beq.n	8000ac6 <SPI_WaitFlagStateUntilTimeout.constprop.0+0x76>
 8000ab2:	2201      	movs	r2, #1
 8000ab4:	2300      	movs	r3, #0
 8000ab6:	f880 205d 	strb.w	r2, [r0, #93]	; 0x5d
 8000aba:	f880 305c 	strb.w	r3, [r0, #92]	; 0x5c
 8000abe:	2003      	movs	r0, #3
 8000ac0:	b003      	add	sp, #12
 8000ac2:	bc70      	pop	{r4, r5, r6}
 8000ac4:	4770      	bx	lr
 8000ac6:	6823      	ldr	r3, [r4, #0]
 8000ac8:	f423 5300 	bic.w	r3, r3, #8192	; 0x2000
 8000acc:	6023      	str	r3, [r4, #0]
 8000ace:	6823      	ldr	r3, [r4, #0]
 8000ad0:	f443 5300 	orr.w	r3, r3, #8192	; 0x2000
 8000ad4:	6023      	str	r3, [r4, #0]
 8000ad6:	e7ec      	b.n	8000ab2 <SPI_WaitFlagStateUntilTimeout.constprop.0+0x62>
 8000ad8:	6883      	ldr	r3, [r0, #8]
 8000ada:	f5b3 4f00 	cmp.w	r3, #32768	; 0x8000
 8000ade:	d002      	beq.n	8000ae6 <SPI_WaitFlagStateUntilTimeout.constprop.0+0x96>
 8000ae0:	f5b3 6f80 	cmp.w	r3, #1024	; 0x400
 8000ae4:	d1e1      	bne.n	8000aaa <SPI_WaitFlagStateUntilTimeout.constprop.0+0x5a>
 8000ae6:	6823      	ldr	r3, [r4, #0]
 8000ae8:	f023 0340 	bic.w	r3, r3, #64	; 0x40
 8000aec:	6023      	str	r3, [r4, #0]
 8000aee:	6a83      	ldr	r3, [r0, #40]	; 0x28
 8000af0:	f5b3 5f00 	cmp.w	r3, #8192	; 0x2000
 8000af4:	d1dd      	bne.n	8000ab2 <SPI_WaitFlagStateUntilTimeout.constprop.0+0x62>
 8000af6:	e7e6      	b.n	8000ac6 <SPI_WaitFlagStateUntilTimeout.constprop.0+0x76>
 8000af8:	200000ac 	.word	0x200000ac
 8000afc:	20000000 	.word	0x20000000

08000b00 <sink_a121_callback_validate>:
 8000b00:	6983      	ldr	r3, [r0, #24]
 8000b02:	b510      	push	{r4, lr}
 8000b04:	4604      	mov	r4, r0
 8000b06:	b1bb      	cbz	r3, 8000b38 <sink_a121_callback_validate+0x38>
 8000b08:	4b0d      	ldr	r3, [pc, #52]	; (8000b40 <sink_a121_callback_validate+0x40>)
 8000b0a:	f893 2028 	ldrb.w	r2, [r3, #40]	; 0x28
 8000b0e:	b94a      	cbnz	r2, 8000b24 <sink_a121_callback_validate+0x24>
 8000b10:	6963      	ldr	r3, [r4, #20]
 8000b12:	b17b      	cbz	r3, 8000b34 <sink_a121_callback_validate+0x34>
 8000b14:	4b0a      	ldr	r3, [pc, #40]	; (8000b40 <sink_a121_callback_validate+0x40>)
 8000b16:	4a0b      	ldr	r2, [pc, #44]	; (8000b44 <sink_a121_callback_validate+0x44>)
 8000b18:	6bdb      	ldr	r3, [r3, #60]	; 0x3c
 8000b1a:	490b      	ldr	r1, [pc, #44]	; (8000b48 <sink_a121_callback_validate+0x48>)
 8000b1c:	2000      	movs	r0, #0
 8000b1e:	4798      	blx	r3
 8000b20:	2000      	movs	r0, #0
 8000b22:	bd10      	pop	{r4, pc}
 8000b24:	6bdb      	ldr	r3, [r3, #60]	; 0x3c
 8000b26:	4a09      	ldr	r2, [pc, #36]	; (8000b4c <sink_a121_callback_validate+0x4c>)
 8000b28:	4907      	ldr	r1, [pc, #28]	; (8000b48 <sink_a121_callback_validate+0x48>)
 8000b2a:	2001      	movs	r0, #1
 8000b2c:	4798      	blx	r3
 8000b2e:	6963      	ldr	r3, [r4, #20]
 8000b30:	2b00      	cmp	r3, #0
 8000b32:	d1ef      	bne.n	8000b14 <sink_a121_callback_validate+0x14>
 8000b34:	2001      	movs	r0, #1
 8000b36:	bd10      	pop	{r4, pc}
 8000b38:	69c3      	ldr	r3, [r0, #28]
 8000b3a:	2b00      	cmp	r3, #0
 8000b3c:	d1e4      	bne.n	8000b08 <sink_a121_callback_validate+0x8>
 8000b3e:	e7e7      	b.n	8000b10 <sink_a121_callback_validate+0x10>
 8000b40:	200000ac 	.word	0x200000ac
 8000b44:	0800f524 	.word	0x0800f524
 8000b48:	0800f508 	.word	0x0800f508
 8000b4c:	0800f4ec 	.word	0x0800f4ec

08000b50 <element_frame_aux_event>:
 8000b50:	b470      	push	{r4, r5, r6}
 8000b52:	6901      	ldr	r1, [r0, #16]
 8000b54:	f8b0 2042 	ldrh.w	r2, [r0, #66]	; 0x42
 8000b58:	f890 3038 	ldrb.w	r3, [r0, #56]	; 0x38
 8000b5c:	f831 2012 	ldrh.w	r2, [r1, r2, lsl #1]
 8000b60:	2b03      	cmp	r3, #3
 8000b62:	bf08      	it	eq
 8000b64:	f482 4200 	eoreq.w	r2, r2, #32768	; 0x8000
 8000b68:	f240 13e5 	movw	r3, #485	; 0x1e5
 8000b6c:	fb03 f302 	mul.w	r3, r3, r2
 8000b70:	0c1b      	lsrs	r3, r3, #16
 8000b72:	6c82      	ldr	r2, [r0, #72]	; 0x48
 8000b74:	f5a3 7389 	sub.w	r3, r3, #274	; 0x112
 8000b78:	b29b      	uxth	r3, r3
 8000b7a:	8013      	strh	r3, [r2, #0]
 8000b7c:	8f82      	ldrh	r2, [r0, #60]	; 0x3c
 8000b7e:	f831 2012 	ldrh.w	r2, [r1, r2, lsl #1]
 8000b82:	b14a      	cbz	r2, 8000b98 <element_frame_aux_event+0x48>
 8000b84:	f8b0 2040 	ldrh.w	r2, [r0, #64]	; 0x40
 8000b88:	f831 2012 	ldrh.w	r2, [r1, r2, lsl #1]
 8000b8c:	2a01      	cmp	r2, #1
 8000b8e:	d903      	bls.n	8000b98 <element_frame_aux_event+0x48>
 8000b90:	6cc2      	ldr	r2, [r0, #76]	; 0x4c
 8000b92:	2401      	movs	r4, #1
 8000b94:	7014      	strb	r4, [r2, #0]
 8000b96:	e002      	b.n	8000b9e <element_frame_aux_event+0x4e>
 8000b98:	6cc2      	ldr	r2, [r0, #76]	; 0x4c
 8000b9a:	2400      	movs	r4, #0
 8000b9c:	7014      	strb	r4, [r2, #0]
 8000b9e:	8fc4      	ldrh	r4, [r0, #62]	; 0x3e
 8000ba0:	8f42      	ldrh	r2, [r0, #58]	; 0x3a
 8000ba2:	f831 5014 	ldrh.w	r5, [r1, r4, lsl #1]
 8000ba6:	f831 4012 	ldrh.w	r4, [r1, r2, lsl #1]
 8000baa:	f9b0 1044 	ldrsh.w	r1, [r0, #68]	; 0x44
 8000bae:	f240 12e5 	movw	r2, #485	; 0x1e5
 8000bb2:	fb02 f205 	mul.w	r2, r2, r5
 8000bb6:	0c12      	lsrs	r2, r2, #16
 8000bb8:	f5c2 7289 	rsb	r2, r2, #274	; 0x112
 8000bbc:	4413      	add	r3, r2
 8000bbe:	b21b      	sxth	r3, r3
 8000bc0:	2b00      	cmp	r3, #0
 8000bc2:	bfb8      	it	lt
 8000bc4:	425b      	neglt	r3, r3
 8000bc6:	e9d0 6514 	ldrd	r6, r5, [r0, #80]	; 0x50
 8000bca:	b21b      	sxth	r3, r3
 8000bcc:	f1a4 0201 	sub.w	r2, r4, #1
 8000bd0:	6800      	ldr	r0, [r0, #0]
 8000bd2:	4299      	cmp	r1, r3
 8000bd4:	fab2 f282 	clz	r2, r2
 8000bd8:	ea4f 1252 	mov.w	r2, r2, lsr #5
 8000bdc:	bfac      	ite	ge
 8000bde:	2300      	movge	r3, #0
 8000be0:	2301      	movlt	r3, #1
 8000be2:	7032      	strb	r2, [r6, #0]
 8000be4:	6842      	ldr	r2, [r0, #4]
 8000be6:	702b      	strb	r3, [r5, #0]
 8000be8:	bc70      	pop	{r4, r5, r6}
 8000bea:	4710      	bx	r2

08000bec <element_frame_validate>:
 8000bec:	b570      	push	{r4, r5, r6, lr}
 8000bee:	4604      	mov	r4, r0
 8000bf0:	6980      	ldr	r0, [r0, #24]
 8000bf2:	b178      	cbz	r0, 8000c14 <element_frame_validate+0x28>
 8000bf4:	69e3      	ldr	r3, [r4, #28]
 8000bf6:	b143      	cbz	r3, 8000c0a <element_frame_validate+0x1e>
 8000bf8:	4b0f      	ldr	r3, [pc, #60]	; (8000c38 <element_frame_validate+0x4c>)
 8000bfa:	f893 2028 	ldrb.w	r2, [r3, #40]	; 0x28
 8000bfe:	b122      	cbz	r2, 8000c0a <element_frame_validate+0x1e>
 8000c00:	6bdb      	ldr	r3, [r3, #60]	; 0x3c
 8000c02:	4a0e      	ldr	r2, [pc, #56]	; (8000c3c <element_frame_validate+0x50>)
 8000c04:	490e      	ldr	r1, [pc, #56]	; (8000c40 <element_frame_validate+0x54>)
 8000c06:	2001      	movs	r0, #1
 8000c08:	4798      	blx	r3
 8000c0a:	6820      	ldr	r0, [r4, #0]
 8000c0c:	e8bd 4070 	ldmia.w	sp!, {r4, r5, r6, lr}
 8000c10:	6883      	ldr	r3, [r0, #8]
 8000c12:	4718      	bx	r3
 8000c14:	4d08      	ldr	r5, [pc, #32]	; (8000c38 <element_frame_validate+0x4c>)
 8000c16:	4a0b      	ldr	r2, [pc, #44]	; (8000c44 <element_frame_validate+0x58>)
 8000c18:	6beb      	ldr	r3, [r5, #60]	; 0x3c
 8000c1a:	4909      	ldr	r1, [pc, #36]	; (8000c40 <element_frame_validate+0x54>)
 8000c1c:	4798      	blx	r3
 8000c1e:	69e3      	ldr	r3, [r4, #28]
 8000c20:	b13b      	cbz	r3, 8000c32 <element_frame_validate+0x46>
 8000c22:	f895 3028 	ldrb.w	r3, [r5, #40]	; 0x28
 8000c26:	b123      	cbz	r3, 8000c32 <element_frame_validate+0x46>
 8000c28:	6beb      	ldr	r3, [r5, #60]	; 0x3c
 8000c2a:	4a04      	ldr	r2, [pc, #16]	; (8000c3c <element_frame_validate+0x50>)
 8000c2c:	4904      	ldr	r1, [pc, #16]	; (8000c40 <element_frame_validate+0x54>)
 8000c2e:	2001      	movs	r0, #1
 8000c30:	4798      	blx	r3
 8000c32:	2000      	movs	r0, #0
 8000c34:	bd70      	pop	{r4, r5, r6, pc}
 8000c36:	bf00      	nop
 8000c38:	200000ac 	.word	0x200000ac
 8000c3c:	0800f578 	.word	0x0800f578
 8000c40:	0800f568 	.word	0x0800f568
 8000c44:	0800f54c 	.word	0x0800f54c

08000c48 <element_frame_event>:
 8000c48:	e92d 47f0 	stmdb	sp!, {r4, r5, r6, r7, r8, r9, sl, lr}
 8000c4c:	6dc2      	ldr	r2, [r0, #92]	; 0x5c
 8000c4e:	f8d0 8018 	ldr.w	r8, [r0, #24]
 8000c52:	6906      	ldr	r6, [r0, #16]
 8000c54:	2300      	movs	r3, #0
 8000c56:	f8a8 3002 	strh.w	r3, [r8, #2]
 8000c5a:	4604      	mov	r4, r0
 8000c5c:	461d      	mov	r5, r3
 8000c5e:	7013      	strb	r3, [r2, #0]
 8000c60:	f100 074c 	add.w	r7, r0, #76	; 0x4c
 8000c64:	4699      	mov	r9, r3
 8000c66:	f857 3b04 	ldr.w	r3, [r7], #4
 8000c6a:	b303      	cbz	r3, 8000cae <element_frame_event+0x66>
 8000c6c:	f8b3 c038 	ldrh.w	ip, [r3, #56]	; 0x38
 8000c70:	f8b3 0090 	ldrh.w	r0, [r3, #144]	; 0x90
 8000c74:	f8b3 1092 	ldrh.w	r1, [r3, #146]	; 0x92
 8000c78:	f8b3 20d8 	ldrh.w	r2, [r3, #216]	; 0xd8
 8000c7c:	eb06 0040 	add.w	r0, r6, r0, lsl #1
 8000c80:	eb06 0141 	add.w	r1, r6, r1, lsl #1
 8000c84:	eb06 0242 	add.w	r2, r6, r2, lsl #1
 8000c88:	eb06 0c4c 	add.w	ip, r6, ip, lsl #1
 8000c8c:	e9c3 0113 	strd	r0, r1, [r3, #76]	; 0x4c
 8000c90:	f8c3 20a4 	str.w	r2, [r3, #164]	; 0xa4
 8000c94:	f8c3 c014 	str.w	ip, [r3, #20]
 8000c98:	f888 5000 	strb.w	r5, [r8]
 8000c9c:	6818      	ldr	r0, [r3, #0]
 8000c9e:	f8d3 20dc 	ldr.w	r2, [r3, #220]	; 0xdc
 8000ca2:	6841      	ldr	r1, [r0, #4]
 8000ca4:	f883 90e4 	strb.w	r9, [r3, #228]	; 0xe4
 8000ca8:	f8c3 20e0 	str.w	r2, [r3, #224]	; 0xe0
 8000cac:	4788      	blx	r1
 8000cae:	3501      	adds	r5, #1
 8000cb0:	b2ed      	uxtb	r5, r5
 8000cb2:	2d04      	cmp	r5, #4
 8000cb4:	d1d7      	bne.n	8000c66 <element_frame_event+0x1e>
 8000cb6:	6820      	ldr	r0, [r4, #0]
 8000cb8:	e8bd 47f0 	ldmia.w	sp!, {r4, r5, r6, r7, r8, r9, sl, lr}
 8000cbc:	6843      	ldr	r3, [r0, #4]
 8000cbe:	4718      	bx	r3

08000cc0 <acc_diagnostic_log_data_i16>:
 8000cc0:	4770      	bx	lr
 8000cc2:	bf00      	nop

08000cc4 <acc_diagnostic_log_data_u16>:
 8000cc4:	4770      	bx	lr
 8000cc6:	bf00      	nop

08000cc8 <acc_diagnostic_log_scalar>:
 8000cc8:	4770      	bx	lr
 8000cca:	bf00      	nop

08000ccc <acc_diagnostic_log_set_scope>:
 8000ccc:	4770      	bx	lr
 8000cce:	bf00      	nop

08000cd0 <acc_confprogram_copy>:
 8000cd0:	b152      	cbz	r2, 8000ce8 <acc_confprogram_copy+0x18>
 8000cd2:	eb01 0282 	add.w	r2, r1, r2, lsl #2
 8000cd6:	3804      	subs	r0, #4
 8000cd8:	f850 3f04 	ldr.w	r3, [r0, #4]!
 8000cdc:	804b      	strh	r3, [r1, #2]
 8000cde:	0c1b      	lsrs	r3, r3, #16
 8000ce0:	800b      	strh	r3, [r1, #0]
 8000ce2:	3104      	adds	r1, #4
 8000ce4:	4291      	cmp	r1, r2
 8000ce6:	d1f7      	bne.n	8000cd8 <acc_confprogram_copy+0x8>
 8000ce8:	4770      	bx	lr
 8000cea:	bf00      	nop

08000cec <acc_confprogram_modify_runif>:
 8000cec:	e92d 41f0 	stmdb	sp!, {r4, r5, r6, r7, r8, lr}
 8000cf0:	eb00 0542 	add.w	r5, r0, r2, lsl #1
 8000cf4:	b084      	sub	sp, #16
 8000cf6:	460f      	mov	r7, r1
 8000cf8:	4628      	mov	r0, r5
 8000cfa:	a903      	add	r1, sp, #12
 8000cfc:	4616      	mov	r6, r2
 8000cfe:	4698      	mov	r8, r3
 8000d00:	f7ff fc8e 	bl	8000620 <acc_utils_transfer_buffer_to_uint32.constprop.0>
 8000d04:	9c03      	ldr	r4, [sp, #12]
 8000d06:	4b13      	ldr	r3, [pc, #76]	; (8000d54 <acc_confprogram_modify_runif+0x68>)
 8000d08:	f024 040f 	bic.w	r4, r4, #15
 8000d0c:	f893 2028 	ldrb.w	r2, [r3, #40]	; 0x28
 8000d10:	9402      	str	r4, [sp, #8]
 8000d12:	f1b8 0f00 	cmp.w	r8, #0
 8000d16:	d012      	beq.n	8000d3e <acc_confprogram_modify_runif+0x52>
 8000d18:	433c      	orrs	r4, r7
 8000d1a:	2a03      	cmp	r2, #3
 8000d1c:	9402      	str	r4, [sp, #8]
 8000d1e:	d906      	bls.n	8000d2e <acc_confprogram_modify_runif+0x42>
 8000d20:	9700      	str	r7, [sp, #0]
 8000d22:	6bdc      	ldr	r4, [r3, #60]	; 0x3c
 8000d24:	4a0c      	ldr	r2, [pc, #48]	; (8000d58 <acc_confprogram_modify_runif+0x6c>)
 8000d26:	490d      	ldr	r1, [pc, #52]	; (8000d5c <acc_confprogram_modify_runif+0x70>)
 8000d28:	0873      	lsrs	r3, r6, #1
 8000d2a:	2004      	movs	r0, #4
 8000d2c:	47a0      	blx	r4
 8000d2e:	4629      	mov	r1, r5
 8000d30:	2201      	movs	r2, #1
 8000d32:	a802      	add	r0, sp, #8
 8000d34:	f7ff ffcc 	bl	8000cd0 <acc_confprogram_copy>
 8000d38:	b004      	add	sp, #16
 8000d3a:	e8bd 81f0 	ldmia.w	sp!, {r4, r5, r6, r7, r8, pc}
 8000d3e:	2a03      	cmp	r2, #3
 8000d40:	d9f5      	bls.n	8000d2e <acc_confprogram_modify_runif+0x42>
 8000d42:	9700      	str	r7, [sp, #0]
 8000d44:	6bdc      	ldr	r4, [r3, #60]	; 0x3c
 8000d46:	4a06      	ldr	r2, [pc, #24]	; (8000d60 <acc_confprogram_modify_runif+0x74>)
 8000d48:	4904      	ldr	r1, [pc, #16]	; (8000d5c <acc_confprogram_modify_runif+0x70>)
 8000d4a:	0873      	lsrs	r3, r6, #1
 8000d4c:	2004      	movs	r0, #4
 8000d4e:	47a0      	blx	r4
 8000d50:	e7ed      	b.n	8000d2e <acc_confprogram_modify_runif+0x42>
 8000d52:	bf00      	nop
 8000d54:	200000ac 	.word	0x200000ac
 8000d58:	0800f588 	.word	0x0800f588
 8000d5c:	0800f5c0 	.word	0x0800f5c0
 8000d60:	0800f5cc 	.word	0x0800f5cc

08000d64 <acc_confprogram_patch_offset>:
 8000d64:	e92d 4ff0 	stmdb	sp!, {r4, r5, r6, r7, r8, r9, sl, fp, lr}
 8000d68:	f8df a134 	ldr.w	sl, [pc, #308]	; 8000ea0 <acc_confprogram_patch_offset+0x13c>
 8000d6c:	f89a 4028 	ldrb.w	r4, [sl, #40]	; 0x28
 8000d70:	b087      	sub	sp, #28
 8000d72:	2c03      	cmp	r4, #3
 8000d74:	f8bd 5040 	ldrh.w	r5, [sp, #64]	; 0x40
 8000d78:	f8dd 8044 	ldr.w	r8, [sp, #68]	; 0x44
 8000d7c:	4681      	mov	r9, r0
 8000d7e:	460f      	mov	r7, r1
 8000d80:	4693      	mov	fp, r2
 8000d82:	461e      	mov	r6, r3
 8000d84:	d908      	bls.n	8000d98 <acc_confprogram_patch_offset+0x34>
 8000d86:	f8da 403c 	ldr.w	r4, [sl, #60]	; 0x3c
 8000d8a:	4a41      	ldr	r2, [pc, #260]	; (8000e90 <acc_confprogram_patch_offset+0x12c>)
 8000d8c:	4941      	ldr	r1, [pc, #260]	; (8000e94 <acc_confprogram_patch_offset+0x130>)
 8000d8e:	f8cd 8000 	str.w	r8, [sp]
 8000d92:	462b      	mov	r3, r5
 8000d94:	2004      	movs	r0, #4
 8000d96:	47a0      	blx	r4
 8000d98:	eb06 06c5 	add.w	r6, r6, r5, lsl #3
 8000d9c:	8871      	ldrh	r1, [r6, #2]
 8000d9e:	b359      	cbz	r1, 8000df8 <acc_confprogram_patch_offset+0x94>
 8000da0:	44bb      	add	fp, r7
 8000da2:	2500      	movs	r5, #0
 8000da4:	6873      	ldr	r3, [r6, #4]
 8000da6:	f853 4025 	ldr.w	r4, [r3, r5, lsl #2]
 8000daa:	0062      	lsls	r2, r4, #1
 8000dac:	b292      	uxth	r2, r2
 8000dae:	42ba      	cmp	r2, r7
 8000db0:	f3c4 7001 	ubfx	r0, r4, #28, #2
 8000db4:	d31d      	bcc.n	8000df2 <acc_confprogram_patch_offset+0x8e>
 8000db6:	455a      	cmp	r2, fp
 8000db8:	da1b      	bge.n	8000df2 <acc_confprogram_patch_offset+0x8e>
 8000dba:	2801      	cmp	r0, #1
 8000dbc:	d00c      	beq.n	8000dd8 <acc_confprogram_patch_offset+0x74>
 8000dbe:	2802      	cmp	r0, #2
 8000dc0:	d035      	beq.n	8000e2e <acc_confprogram_patch_offset+0xca>
 8000dc2:	b1e8      	cbz	r0, 8000e00 <acc_confprogram_patch_offset+0x9c>
 8000dc4:	f8da 303c 	ldr.w	r3, [sl, #60]	; 0x3c
 8000dc8:	4a33      	ldr	r2, [pc, #204]	; (8000e98 <acc_confprogram_patch_offset+0x134>)
 8000dca:	4932      	ldr	r1, [pc, #200]	; (8000e94 <acc_confprogram_patch_offset+0x130>)
 8000dcc:	2000      	movs	r0, #0
 8000dce:	4798      	blx	r3
 8000dd0:	2000      	movs	r0, #0
 8000dd2:	b007      	add	sp, #28
 8000dd4:	e8bd 8ff0 	ldmia.w	sp!, {r4, r5, r6, r7, r8, r9, sl, fp, pc}
 8000dd8:	f1b8 0300 	subs.w	r3, r8, #0
 8000ddc:	eba2 0207 	sub.w	r2, r2, r7
 8000de0:	f3c4 4103 	ubfx	r1, r4, #16, #4
 8000de4:	b292      	uxth	r2, r2
 8000de6:	bf18      	it	ne
 8000de8:	2301      	movne	r3, #1
 8000dea:	4648      	mov	r0, r9
 8000dec:	f7ff ff7e 	bl	8000cec <acc_confprogram_modify_runif>
 8000df0:	8871      	ldrh	r1, [r6, #2]
 8000df2:	3501      	adds	r5, #1
 8000df4:	42a9      	cmp	r1, r5
 8000df6:	d8d5      	bhi.n	8000da4 <acc_confprogram_patch_offset+0x40>
 8000df8:	2001      	movs	r0, #1
 8000dfa:	b007      	add	sp, #28
 8000dfc:	e8bd 8ff0 	ldmia.w	sp!, {r4, r5, r6, r7, r8, r9, sl, fp, pc}
 8000e00:	f3c4 5344 	ubfx	r3, r4, #21, #5
 8000e04:	2101      	movs	r1, #1
 8000e06:	4099      	lsls	r1, r3
 8000e08:	1bd2      	subs	r2, r2, r7
 8000e0a:	4588      	cmp	r8, r1
 8000e0c:	fa1f fc82 	uxth.w	ip, r2
 8000e10:	d31c      	bcc.n	8000e4c <acc_confprogram_patch_offset+0xe8>
 8000e12:	3901      	subs	r1, #1
 8000e14:	e9cd 8100 	strd	r8, r1, [sp]
 8000e18:	f8da 403c 	ldr.w	r4, [sl, #60]	; 0x3c
 8000e1c:	4a1f      	ldr	r2, [pc, #124]	; (8000e9c <acc_confprogram_patch_offset+0x138>)
 8000e1e:	491d      	ldr	r1, [pc, #116]	; (8000e94 <acc_confprogram_patch_offset+0x130>)
 8000e20:	9003      	str	r0, [sp, #12]
 8000e22:	4663      	mov	r3, ip
 8000e24:	47a0      	blx	r4
 8000e26:	9803      	ldr	r0, [sp, #12]
 8000e28:	b007      	add	sp, #28
 8000e2a:	e8bd 8ff0 	ldmia.w	sp!, {r4, r5, r6, r7, r8, r9, sl, fp, pc}
 8000e2e:	1bd2      	subs	r2, r2, r7
 8000e30:	fab8 f388 	clz	r3, r8
 8000e34:	f3c4 4103 	ubfx	r1, r4, #16, #4
 8000e38:	b292      	uxth	r2, r2
 8000e3a:	095b      	lsrs	r3, r3, #5
 8000e3c:	4648      	mov	r0, r9
 8000e3e:	f7ff ff55 	bl	8000cec <acc_confprogram_modify_runif>
 8000e42:	8871      	ldrh	r1, [r6, #2]
 8000e44:	3501      	adds	r5, #1
 8000e46:	42a9      	cmp	r1, r5
 8000e48:	d8ac      	bhi.n	8000da4 <acc_confprogram_patch_offset+0x40>
 8000e4a:	e7d5      	b.n	8000df8 <acc_confprogram_patch_offset+0x94>
 8000e4c:	eb09 004c 	add.w	r0, r9, ip, lsl #1
 8000e50:	a904      	add	r1, sp, #16
 8000e52:	9303      	str	r3, [sp, #12]
 8000e54:	f7ff fbe4 	bl	8000620 <acc_utils_transfer_buffer_to_uint32.constprop.0>
 8000e58:	9b03      	ldr	r3, [sp, #12]
 8000e5a:	f04f 32ff 	mov.w	r2, #4294967295	; 0xffffffff
 8000e5e:	f1c3 0320 	rsb	r3, r3, #32
 8000e62:	f3c4 4404 	ubfx	r4, r4, #16, #5
 8000e66:	fa22 f303 	lsr.w	r3, r2, r3
 8000e6a:	9a04      	ldr	r2, [sp, #16]
 8000e6c:	40a3      	lsls	r3, r4
 8000e6e:	ea22 0203 	bic.w	r2, r2, r3
 8000e72:	fa08 f404 	lsl.w	r4, r8, r4
 8000e76:	4601      	mov	r1, r0
 8000e78:	4314      	orrs	r4, r2
 8000e7a:	a805      	add	r0, sp, #20
 8000e7c:	2201      	movs	r2, #1
 8000e7e:	9405      	str	r4, [sp, #20]
 8000e80:	f7ff ff26 	bl	8000cd0 <acc_confprogram_copy>
 8000e84:	8871      	ldrh	r1, [r6, #2]
 8000e86:	3501      	adds	r5, #1
 8000e88:	42a9      	cmp	r1, r5
 8000e8a:	d88b      	bhi.n	8000da4 <acc_confprogram_patch_offset+0x40>
 8000e8c:	e7b4      	b.n	8000df8 <acc_confprogram_patch_offset+0x94>
 8000e8e:	bf00      	nop
 8000e90:	0800fc58 	.word	0x0800fc58
 8000e94:	0800f5c0 	.word	0x0800f5c0
 8000e98:	0800f638 	.word	0x0800f638
 8000e9c:	0800f600 	.word	0x0800f600
 8000ea0:	200000ac 	.word	0x200000ac

08000ea4 <patch_program_parameters>:
 8000ea4:	e92d 4ff0 	stmdb	sp!, {r4, r5, r6, r7, r8, r9, sl, fp, lr}
 8000ea8:	f5c2 661d 	rsb	r6, r2, #2512	; 0x9d0
 8000eac:	469a      	mov	sl, r3
 8000eae:	681b      	ldr	r3, [r3, #0]
 8000eb0:	4c16      	ldr	r4, [pc, #88]	; (8000f0c <patch_program_parameters+0x68>)
 8000eb2:	360e      	adds	r6, #14
 8000eb4:	42b3      	cmp	r3, r6
 8000eb6:	bf98      	it	ls
 8000eb8:	b29e      	uxthls	r6, r3
 8000eba:	4b15      	ldr	r3, [pc, #84]	; (8000f10 <patch_program_parameters+0x6c>)
 8000ebc:	4605      	mov	r5, r0
 8000ebe:	bf88      	it	hi
 8000ec0:	b2b6      	uxthhi	r6, r6
 8000ec2:	0850      	lsrs	r0, r2, #1
 8000ec4:	eb03 0080 	add.w	r0, r3, r0, lsl #2
 8000ec8:	b083      	sub	sp, #12
 8000eca:	4617      	mov	r7, r2
 8000ecc:	0872      	lsrs	r2, r6, #1
 8000ece:	4688      	mov	r8, r1
 8000ed0:	3d02      	subs	r5, #2
 8000ed2:	f7ff fefd 	bl	8000cd0 <acc_confprogram_copy>
 8000ed6:	f104 09e1 	add.w	r9, r4, #225	; 0xe1
 8000eda:	f104 0be4 	add.w	fp, r4, #228	; 0xe4
 8000ede:	237d      	movs	r3, #125	; 0x7d
 8000ee0:	e001      	b.n	8000ee6 <patch_program_parameters+0x42>
 8000ee2:	f814 3f01 	ldrb.w	r3, [r4, #1]!
 8000ee6:	f835 2f02 	ldrh.w	r2, [r5, #2]!
 8000eea:	4639      	mov	r1, r7
 8000eec:	e9cd 3200 	strd	r3, r2, [sp]
 8000ef0:	4640      	mov	r0, r8
 8000ef2:	465b      	mov	r3, fp
 8000ef4:	4632      	mov	r2, r6
 8000ef6:	f7ff ff35 	bl	8000d64 <acc_confprogram_patch_offset>
 8000efa:	454c      	cmp	r4, r9
 8000efc:	d001      	beq.n	8000f02 <patch_program_parameters+0x5e>
 8000efe:	2800      	cmp	r0, #0
 8000f00:	d1ef      	bne.n	8000ee2 <patch_program_parameters+0x3e>
 8000f02:	f8ca 6000 	str.w	r6, [sl]
 8000f06:	b003      	add	sp, #12
 8000f08:	e8bd 8ff0 	ldmia.w	sp!, {r4, r5, r6, r7, r8, r9, sl, fp, pc}
 8000f0c:	0800b5e0 	.word	0x0800b5e0
 8000f10:	0800e064 	.word	0x0800e064

08000f14 <acc_translation_a121_profile_to_pulse_params>:
 8000f14:	2300      	movs	r3, #0
 8000f16:	3801      	subs	r0, #1
 8000f18:	e9c1 3301 	strd	r3, r3, [r1, #4]
 8000f1c:	60cb      	str	r3, [r1, #12]
 8000f1e:	2804      	cmp	r0, #4
 8000f20:	d82e      	bhi.n	8000f80 <acc_translation_a121_profile_to_pulse_params+0x6c>
 8000f22:	e8df f000 	tbb	[pc, r0]
 8000f26:	160c      	.short	0x160c
 8000f28:	2925      	.short	0x2925
 8000f2a:	03          	.byte	0x03
 8000f2b:	00          	.byte	0x00
 8000f2c:	4b17      	ldr	r3, [pc, #92]	; (8000f8c <acc_translation_a121_profile_to_pulse_params+0x78>)
 8000f2e:	4a18      	ldr	r2, [pc, #96]	; (8000f90 <acc_translation_a121_profile_to_pulse_params+0x7c>)
 8000f30:	2000      	movs	r0, #0
 8000f32:	7008      	strb	r0, [r1, #0]
 8000f34:	e9c1 3305 	strd	r3, r3, [r1, #20]
 8000f38:	61ca      	str	r2, [r1, #28]
 8000f3a:	2001      	movs	r0, #1
 8000f3c:	4770      	bx	lr
 8000f3e:	4b15      	ldr	r3, [pc, #84]	; (8000f94 <acc_translation_a121_profile_to_pulse_params+0x80>)
 8000f40:	2200      	movs	r2, #0
 8000f42:	700a      	strb	r2, [r1, #0]
 8000f44:	f44f 2280 	mov.w	r2, #262144	; 0x40000
 8000f48:	e9c1 3305 	strd	r3, r3, [r1, #20]
 8000f4c:	61ca      	str	r2, [r1, #28]
 8000f4e:	2001      	movs	r0, #1
 8000f50:	4770      	bx	lr
 8000f52:	b430      	push	{r4, r5}
 8000f54:	4b10      	ldr	r3, [pc, #64]	; (8000f98 <acc_translation_a121_profile_to_pulse_params+0x84>)
 8000f56:	4c11      	ldr	r4, [pc, #68]	; (8000f9c <acc_translation_a121_profile_to_pulse_params+0x88>)
 8000f58:	61cc      	str	r4, [r1, #28]
 8000f5a:	2001      	movs	r0, #1
 8000f5c:	2596      	movs	r5, #150	; 0x96
 8000f5e:	22fa      	movs	r2, #250	; 0xfa
 8000f60:	60cd      	str	r5, [r1, #12]
 8000f62:	e9c1 2201 	strd	r2, r2, [r1, #4]
 8000f66:	bc30      	pop	{r4, r5}
 8000f68:	e9c1 3305 	strd	r3, r3, [r1, #20]
 8000f6c:	7008      	strb	r0, [r1, #0]
 8000f6e:	4770      	bx	lr
 8000f70:	4b0b      	ldr	r3, [pc, #44]	; (8000fa0 <acc_translation_a121_profile_to_pulse_params+0x8c>)
 8000f72:	4a0c      	ldr	r2, [pc, #48]	; (8000fa4 <acc_translation_a121_profile_to_pulse_params+0x90>)
 8000f74:	2000      	movs	r0, #0
 8000f76:	e7dc      	b.n	8000f32 <acc_translation_a121_profile_to_pulse_params+0x1e>
 8000f78:	4b0b      	ldr	r3, [pc, #44]	; (8000fa8 <acc_translation_a121_profile_to_pulse_params+0x94>)
 8000f7a:	4a0c      	ldr	r2, [pc, #48]	; (8000fac <acc_translation_a121_profile_to_pulse_params+0x98>)
 8000f7c:	2000      	movs	r0, #0
 8000f7e:	e7d8      	b.n	8000f32 <acc_translation_a121_profile_to_pulse_params+0x1e>
 8000f80:	2000      	movs	r0, #0
 8000f82:	e9c1 0005 	strd	r0, r0, [r1, #20]
 8000f86:	7008      	strb	r0, [r1, #0]
 8000f88:	61c8      	str	r0, [r1, #28]
 8000f8a:	4770      	bx	lr
 8000f8c:	00050008 	.word	0x00050008
 8000f90:	0002000b 	.word	0x0002000b
 8000f94:	00010002 	.word	0x00010002
 8000f98:	00010008 	.word	0x00010008
 8000f9c:	00030002 	.word	0x00030002
 8000fa0:	00020008 	.word	0x00020008
 8000fa4:	00020004 	.word	0x00020004
 8000fa8:	00030008 	.word	0x00030008
 8000fac:	00020006 	.word	0x00020006

08000fb0 <a121_diagnostics_decode_asic_error>:
 8000fb0:	e92d 4ff0 	stmdb	sp!, {r4, r5, r6, r7, r8, r9, sl, fp, lr}
 8000fb4:	4e1e      	ldr	r6, [pc, #120]	; (8001030 <a121_diagnostics_decode_asic_error+0x80>)
 8000fb6:	f8df 8084 	ldr.w	r8, [pc, #132]	; 800103c <a121_diagnostics_decode_asic_error+0x8c>
 8000fba:	4681      	mov	r9, r0
 8000fbc:	4615      	mov	r5, r2
 8000fbe:	ce0f      	ldmia	r6!, {r0, r1, r2, r3}
 8000fc0:	b091      	sub	sp, #68	; 0x44
 8000fc2:	ac02      	add	r4, sp, #8
 8000fc4:	c40f      	stmia	r4!, {r0, r1, r2, r3}
 8000fc6:	ce0f      	ldmia	r6!, {r0, r1, r2, r3}
 8000fc8:	c40f      	stmia	r4!, {r0, r1, r2, r3}
 8000fca:	ce0f      	ldmia	r6!, {r0, r1, r2, r3}
 8000fcc:	c40f      	stmia	r4!, {r0, r1, r2, r3}
 8000fce:	e896 0003 	ldmia.w	r6, {r0, r1}
 8000fd2:	f898 3028 	ldrb.w	r3, [r8, #40]	; 0x28
 8000fd6:	2b01      	cmp	r3, #1
 8000fd8:	e884 0003 	stmia.w	r4, {r0, r1}
 8000fdc:	d907      	bls.n	8000fee <a121_diagnostics_decode_asic_error+0x3e>
 8000fde:	f8d8 403c 	ldr.w	r4, [r8, #60]	; 0x3c
 8000fe2:	4a14      	ldr	r2, [pc, #80]	; (8001034 <a121_diagnostics_decode_asic_error+0x84>)
 8000fe4:	4914      	ldr	r1, [pc, #80]	; (8001038 <a121_diagnostics_decode_asic_error+0x88>)
 8000fe6:	9500      	str	r5, [sp, #0]
 8000fe8:	464b      	mov	r3, r9
 8000fea:	2002      	movs	r0, #2
 8000fec:	47a0      	blx	r4
 8000fee:	f8df b050 	ldr.w	fp, [pc, #80]	; 8001040 <a121_diagnostics_decode_asic_error+0x90>
 8000ff2:	f8df a044 	ldr.w	sl, [pc, #68]	; 8001038 <a121_diagnostics_decode_asic_error+0x88>
 8000ff6:	ac02      	add	r4, sp, #8
 8000ff8:	ae10      	add	r6, sp, #64	; 0x40
 8000ffa:	e002      	b.n	8001002 <a121_diagnostics_decode_asic_error+0x52>
 8000ffc:	3408      	adds	r4, #8
 8000ffe:	42b4      	cmp	r4, r6
 8001000:	d013      	beq.n	800102a <a121_diagnostics_decode_asic_error+0x7a>
 8001002:	88a3      	ldrh	r3, [r4, #4]
 8001004:	421d      	tst	r5, r3
 8001006:	d0f9      	beq.n	8000ffc <a121_diagnostics_decode_asic_error+0x4c>
 8001008:	f898 3028 	ldrb.w	r3, [r8, #40]	; 0x28
 800100c:	2b01      	cmp	r3, #1
 800100e:	465a      	mov	r2, fp
 8001010:	464b      	mov	r3, r9
 8001012:	4651      	mov	r1, sl
 8001014:	f04f 0002 	mov.w	r0, #2
 8001018:	d9f0      	bls.n	8000ffc <a121_diagnostics_decode_asic_error+0x4c>
 800101a:	6827      	ldr	r7, [r4, #0]
 800101c:	9700      	str	r7, [sp, #0]
 800101e:	3408      	adds	r4, #8
 8001020:	f8d8 703c 	ldr.w	r7, [r8, #60]	; 0x3c
 8001024:	47b8      	blx	r7
 8001026:	42b4      	cmp	r4, r6
 8001028:	d1eb      	bne.n	8001002 <a121_diagnostics_decode_asic_error+0x52>
 800102a:	b011      	add	sp, #68	; 0x44
 800102c:	e8bd 8ff0 	ldmia.w	sp!, {r4, r5, r6, r7, r8, r9, sl, fp, pc}
 8001030:	0800be54 	.word	0x0800be54
 8001034:	0800f6c8 	.word	0x0800f6c8
 8001038:	0800f6e4 	.word	0x0800f6e4
 800103c:	200000ac 	.word	0x200000ac
 8001040:	0800f6f8 	.word	0x0800f6f8

08001044 <a121_diagnostics_decode_stack_level>:
 8001044:	b530      	push	{r4, r5, lr}
 8001046:	4c0a      	ldr	r4, [pc, #40]	; (8001070 <a121_diagnostics_decode_stack_level+0x2c>)
 8001048:	f894 5028 	ldrb.w	r5, [r4, #40]	; 0x28
 800104c:	2d01      	cmp	r5, #1
 800104e:	b085      	sub	sp, #20
 8001050:	d90b      	bls.n	800106a <a121_diagnostics_decode_stack_level+0x26>
 8001052:	e9cd 1201 	strd	r1, r2, [sp, #4]
 8001056:	4603      	mov	r3, r0
 8001058:	f5a1 708c 	sub.w	r0, r1, #280	; 0x118
 800105c:	b280      	uxth	r0, r0
 800105e:	9000      	str	r0, [sp, #0]
 8001060:	6be4      	ldr	r4, [r4, #60]	; 0x3c
 8001062:	4a04      	ldr	r2, [pc, #16]	; (8001074 <a121_diagnostics_decode_stack_level+0x30>)
 8001064:	4904      	ldr	r1, [pc, #16]	; (8001078 <a121_diagnostics_decode_stack_level+0x34>)
 8001066:	2002      	movs	r0, #2
 8001068:	47a0      	blx	r4
 800106a:	b005      	add	sp, #20
 800106c:	bd30      	pop	{r4, r5, pc}
 800106e:	bf00      	nop
 8001070:	200000ac 	.word	0x200000ac
 8001074:	0800f70c 	.word	0x0800f70c
 8001078:	0800f6e4 	.word	0x0800f6e4

0800107c <a121_diagnostics_decode_wakeupinputwakeup>:
 800107c:	b530      	push	{r4, r5, lr}
 800107e:	4603      	mov	r3, r0
 8001080:	f1a1 0462 	sub.w	r4, r1, #98	; 0x62
 8001084:	4810      	ldr	r0, [pc, #64]	; (80010c8 <a121_diagnostics_decode_wakeupinputwakeup+0x4c>)
 8001086:	f014 0f01 	tst.w	r4, #1
 800108a:	b2a5      	uxth	r5, r4
 800108c:	b085      	sub	sp, #20
 800108e:	f890 4028 	ldrb.w	r4, [r0, #40]	; 0x28
 8001092:	d10c      	bne.n	80010ae <a121_diagnostics_decode_wakeupinputwakeup+0x32>
 8001094:	2c01      	cmp	r4, #1
 8001096:	d908      	bls.n	80010aa <a121_diagnostics_decode_wakeupinputwakeup+0x2e>
 8001098:	e9cd 1201 	strd	r1, r2, [sp, #4]
 800109c:	086d      	lsrs	r5, r5, #1
 800109e:	9500      	str	r5, [sp, #0]
 80010a0:	6bc4      	ldr	r4, [r0, #60]	; 0x3c
 80010a2:	4a0a      	ldr	r2, [pc, #40]	; (80010cc <a121_diagnostics_decode_wakeupinputwakeup+0x50>)
 80010a4:	490a      	ldr	r1, [pc, #40]	; (80010d0 <a121_diagnostics_decode_wakeupinputwakeup+0x54>)
 80010a6:	2002      	movs	r0, #2
 80010a8:	47a0      	blx	r4
 80010aa:	b005      	add	sp, #20
 80010ac:	bd30      	pop	{r4, r5, pc}
 80010ae:	2c01      	cmp	r4, #1
 80010b0:	d9fb      	bls.n	80010aa <a121_diagnostics_decode_wakeupinputwakeup+0x2e>
 80010b2:	e9cd 1201 	strd	r1, r2, [sp, #4]
 80010b6:	086d      	lsrs	r5, r5, #1
 80010b8:	9500      	str	r5, [sp, #0]
 80010ba:	6bc4      	ldr	r4, [r0, #60]	; 0x3c
 80010bc:	4a05      	ldr	r2, [pc, #20]	; (80010d4 <a121_diagnostics_decode_wakeupinputwakeup+0x58>)
 80010be:	4904      	ldr	r1, [pc, #16]	; (80010d0 <a121_diagnostics_decode_wakeupinputwakeup+0x54>)
 80010c0:	2002      	movs	r0, #2
 80010c2:	47a0      	blx	r4
 80010c4:	b005      	add	sp, #20
 80010c6:	bd30      	pop	{r4, r5, pc}
 80010c8:	200000ac 	.word	0x200000ac
 80010cc:	0800f734 	.word	0x0800f734
 80010d0:	0800f6e4 	.word	0x0800f6e4
 80010d4:	0800f76c 	.word	0x0800f76c

080010d8 <a121_diagnostics_decode_inputmuxwakeupinput>:
 80010d8:	b530      	push	{r4, r5, lr}
 80010da:	4c09      	ldr	r4, [pc, #36]	; (8001100 <a121_diagnostics_decode_inputmuxwakeupinput+0x28>)
 80010dc:	f894 5028 	ldrb.w	r5, [r4, #40]	; 0x28
 80010e0:	2d01      	cmp	r5, #1
 80010e2:	b083      	sub	sp, #12
 80010e4:	d909      	bls.n	80010fa <a121_diagnostics_decode_inputmuxwakeupinput+0x22>
 80010e6:	397d      	subs	r1, #125	; 0x7d
 80010e8:	b289      	uxth	r1, r1
 80010ea:	e9cd 1200 	strd	r1, r2, [sp]
 80010ee:	4603      	mov	r3, r0
 80010f0:	6be4      	ldr	r4, [r4, #60]	; 0x3c
 80010f2:	4a04      	ldr	r2, [pc, #16]	; (8001104 <a121_diagnostics_decode_inputmuxwakeupinput+0x2c>)
 80010f4:	4904      	ldr	r1, [pc, #16]	; (8001108 <a121_diagnostics_decode_inputmuxwakeupinput+0x30>)
 80010f6:	2002      	movs	r0, #2
 80010f8:	47a0      	blx	r4
 80010fa:	b003      	add	sp, #12
 80010fc:	bd30      	pop	{r4, r5, pc}
 80010fe:	bf00      	nop
 8001100:	200000ac 	.word	0x200000ac
 8001104:	0800f7a4 	.word	0x0800f7a4
 8001108:	0800f6e4 	.word	0x0800f6e4

0800110c <a121_diagnostics_decode_wakeup_status0>:
 800110c:	b510      	push	{r4, lr}
 800110e:	4908      	ldr	r1, [pc, #32]	; (8001130 <a121_diagnostics_decode_wakeup_status0+0x24>)
 8001110:	f891 4028 	ldrb.w	r4, [r1, #40]	; 0x28
 8001114:	2c01      	cmp	r4, #1
 8001116:	b082      	sub	sp, #8
 8001118:	d908      	bls.n	800112c <a121_diagnostics_decode_wakeup_status0+0x20>
 800111a:	f002 020f 	and.w	r2, r2, #15
 800111e:	9200      	str	r2, [sp, #0]
 8001120:	6bcc      	ldr	r4, [r1, #60]	; 0x3c
 8001122:	4a04      	ldr	r2, [pc, #16]	; (8001134 <a121_diagnostics_decode_wakeup_status0+0x28>)
 8001124:	4904      	ldr	r1, [pc, #16]	; (8001138 <a121_diagnostics_decode_wakeup_status0+0x2c>)
 8001126:	4603      	mov	r3, r0
 8001128:	2002      	movs	r0, #2
 800112a:	47a0      	blx	r4
 800112c:	b002      	add	sp, #8
 800112e:	bd10      	pop	{r4, pc}
 8001130:	200000ac 	.word	0x200000ac
 8001134:	0800f7d4 	.word	0x0800f7d4
 8001138:	0800f6e4 	.word	0x0800f6e4

0800113c <a121_diagnostics_decode_scratchpad>:
 800113c:	b530      	push	{r4, r5, lr}
 800113e:	4c09      	ldr	r4, [pc, #36]	; (8001164 <a121_diagnostics_decode_scratchpad+0x28>)
 8001140:	f894 5028 	ldrb.w	r5, [r4, #40]	; 0x28
 8001144:	2d01      	cmp	r5, #1
 8001146:	b083      	sub	sp, #12
 8001148:	d909      	bls.n	800115e <a121_diagnostics_decode_scratchpad+0x22>
 800114a:	392c      	subs	r1, #44	; 0x2c
 800114c:	b289      	uxth	r1, r1
 800114e:	e9cd 1200 	strd	r1, r2, [sp]
 8001152:	4603      	mov	r3, r0
 8001154:	6be4      	ldr	r4, [r4, #60]	; 0x3c
 8001156:	4a04      	ldr	r2, [pc, #16]	; (8001168 <a121_diagnostics_decode_scratchpad+0x2c>)
 8001158:	4904      	ldr	r1, [pc, #16]	; (800116c <a121_diagnostics_decode_scratchpad+0x30>)
 800115a:	2002      	movs	r0, #2
 800115c:	47a0      	blx	r4
 800115e:	b003      	add	sp, #12
 8001160:	bd30      	pop	{r4, r5, pc}
 8001162:	bf00      	nop
 8001164:	200000ac 	.word	0x200000ac
 8001168:	0800f7f4 	.word	0x0800f7f4
 800116c:	0800f6e4 	.word	0x0800f6e4

08001170 <a121_diagnostics_decode_run_status>:
 8001170:	b530      	push	{r4, r5, lr}
 8001172:	4c0c      	ldr	r4, [pc, #48]	; (80011a4 <a121_diagnostics_decode_run_status+0x34>)
 8001174:	f894 5028 	ldrb.w	r5, [r4, #40]	; 0x28
 8001178:	2d01      	cmp	r5, #1
 800117a:	b083      	sub	sp, #12
 800117c:	d910      	bls.n	80011a0 <a121_diagnostics_decode_run_status+0x30>
 800117e:	4611      	mov	r1, r2
 8001180:	4d09      	ldr	r5, [pc, #36]	; (80011a8 <a121_diagnostics_decode_run_status+0x38>)
 8001182:	6be4      	ldr	r4, [r4, #60]	; 0x3c
 8001184:	4a09      	ldr	r2, [pc, #36]	; (80011ac <a121_diagnostics_decode_run_status+0x3c>)
 8001186:	f411 6f00 	tst.w	r1, #2048	; 0x800
 800118a:	4603      	mov	r3, r0
 800118c:	4808      	ldr	r0, [pc, #32]	; (80011b0 <a121_diagnostics_decode_run_status+0x40>)
 800118e:	f3c1 010a 	ubfx	r1, r1, #0, #11
 8001192:	bf18      	it	ne
 8001194:	4628      	movne	r0, r5
 8001196:	e9cd 0100 	strd	r0, r1, [sp]
 800119a:	4906      	ldr	r1, [pc, #24]	; (80011b4 <a121_diagnostics_decode_run_status+0x44>)
 800119c:	2002      	movs	r0, #2
 800119e:	47a0      	blx	r4
 80011a0:	b003      	add	sp, #12
 80011a2:	bd30      	pop	{r4, r5, pc}
 80011a4:	200000ac 	.word	0x200000ac
 80011a8:	0800f824 	.word	0x0800f824
 80011ac:	0800f82c 	.word	0x0800f82c
 80011b0:	0800f81c 	.word	0x0800f81c
 80011b4:	0800f6e4 	.word	0x0800f6e4

080011b8 <acc_sensor_a121_prepare_load_confmem>:
 80011b8:	b410      	push	{r4}
 80011ba:	4c08      	ldr	r4, [pc, #32]	; (80011dc <acc_sensor_a121_prepare_load_confmem+0x24>)
 80011bc:	8da4      	ldrh	r4, [r4, #44]	; 0x2c
 80011be:	0849      	lsrs	r1, r1, #1
 80011c0:	0864      	lsrs	r4, r4, #1
 80011c2:	428c      	cmp	r4, r1
 80011c4:	bf28      	it	cs
 80011c6:	460c      	movcs	r4, r1
 80011c8:	3c02      	subs	r4, #2
 80011ca:	f024 0401 	bic.w	r4, r4, #1
 80011ce:	3004      	adds	r0, #4
 80011d0:	6010      	str	r0, [r2, #0]
 80011d2:	601c      	str	r4, [r3, #0]
 80011d4:	f85d 4b04 	ldr.w	r4, [sp], #4
 80011d8:	4770      	bx	lr
 80011da:	bf00      	nop
 80011dc:	200000ac 	.word	0x200000ac

080011e0 <acc_radar_engine_121_populate_metadata>:
 80011e0:	b5f8      	push	{r3, r4, r5, r6, r7, lr}
 80011e2:	8806      	ldrh	r6, [r0, #0]
 80011e4:	2a00      	cmp	r2, #0
 80011e6:	bf14      	ite	ne
 80011e8:	f44f 5280 	movne.w	r2, #4096	; 0x1000
 80011ec:	f44f 5200 	moveq.w	r2, #8192	; 0x2000
 80011f0:	f5b6 6fd8 	cmp.w	r6, #1728	; 0x6c0
 80011f4:	bf38      	it	cc
 80011f6:	f44f 66d8 	movcc.w	r6, #1728	; 0x6c0
 80011fa:	42b2      	cmp	r2, r6
 80011fc:	4605      	mov	r5, r0
 80011fe:	460f      	mov	r7, r1
 8001200:	461c      	mov	r4, r3
 8001202:	d223      	bcs.n	800124c <acc_radar_engine_121_populate_metadata+0x6c>
 8001204:	4b13      	ldr	r3, [pc, #76]	; (8001254 <acc_radar_engine_121_populate_metadata+0x74>)
 8001206:	4a14      	ldr	r2, [pc, #80]	; (8001258 <acc_radar_engine_121_populate_metadata+0x78>)
 8001208:	6bdb      	ldr	r3, [r3, #60]	; 0x3c
 800120a:	4914      	ldr	r1, [pc, #80]	; (800125c <acc_radar_engine_121_populate_metadata+0x7c>)
 800120c:	2000      	movs	r0, #0
 800120e:	4798      	blx	r3
 8001210:	f04f 0e00 	mov.w	lr, #0
 8001214:	4912      	ldr	r1, [pc, #72]	; (8001260 <acc_radar_engine_121_populate_metadata+0x80>)
 8001216:	4a13      	ldr	r2, [pc, #76]	; (8001264 <acc_radar_engine_121_populate_metadata+0x84>)
 8001218:	4b13      	ldr	r3, [pc, #76]	; (8001268 <acc_radar_engine_121_populate_metadata+0x88>)
 800121a:	60e3      	str	r3, [r4, #12]
 800121c:	e9c4 1201 	strd	r1, r2, [r4, #4]
 8001220:	cd0f      	ldmia	r5!, {r0, r1, r2, r3}
 8001222:	3620      	adds	r6, #32
 8001224:	0076      	lsls	r6, r6, #1
 8001226:	f04f 0c00 	mov.w	ip, #0
 800122a:	f8a4 c002 	strh.w	ip, [r4, #2]
 800122e:	f104 0c30 	add.w	ip, r4, #48	; 0x30
 8001232:	f824 6b10 	strh.w	r6, [r4], #16
 8001236:	c40f      	stmia	r4!, {r0, r1, r2, r3}
 8001238:	e895 000f 	ldmia.w	r5, {r0, r1, r2, r3}
 800123c:	c407      	stmia	r4!, {r0, r1, r2}
 800123e:	e897 0003 	ldmia.w	r7, {r0, r1}
 8001242:	8023      	strh	r3, [r4, #0]
 8001244:	e88c 0003 	stmia.w	ip, {r0, r1}
 8001248:	4670      	mov	r0, lr
 800124a:	bdf8      	pop	{r3, r4, r5, r6, r7, pc}
 800124c:	f04f 0e01 	mov.w	lr, #1
 8001250:	e7e0      	b.n	8001214 <acc_radar_engine_121_populate_metadata+0x34>
 8001252:	bf00      	nop
 8001254:	200000ac 	.word	0x200000ac
 8001258:	0800f840 	.word	0x0800f840
 800125c:	0800f860 	.word	0x0800f860
 8001260:	00020001 	.word	0x00020001
 8001264:	001b0003 	.word	0x001b0003
 8001268:	0020001c 	.word	0x0020001c

0800126c <acc_rss_integration_mem_free>:
 800126c:	b110      	cbz	r0, 8001274 <acc_rss_integration_mem_free+0x8>
 800126e:	4b02      	ldr	r3, [pc, #8]	; (8001278 <acc_rss_integration_mem_free+0xc>)
 8001270:	6b5b      	ldr	r3, [r3, #52]	; 0x34
 8001272:	4718      	bx	r3
 8001274:	4770      	bx	lr
 8001276:	bf00      	nop
 8001278:	200000ac 	.word	0x200000ac

0800127c <pipeline_a121_disassemble>:
 800127c:	e92d 41f0 	stmdb	sp!, {r4, r5, r6, r7, r8, lr}
 8001280:	6807      	ldr	r7, [r0, #0]
 8001282:	4604      	mov	r4, r0
 8001284:	b1c7      	cbz	r7, 80012b8 <pipeline_a121_disassemble+0x3c>
 8001286:	f8d7 0098 	ldr.w	r0, [r7, #152]	; 0x98
 800128a:	b180      	cbz	r0, 80012ae <pipeline_a121_disassemble+0x32>
 800128c:	f100 054c 	add.w	r5, r0, #76	; 0x4c
 8001290:	f100 065c 	add.w	r6, r0, #92	; 0x5c
 8001294:	f04f 0800 	mov.w	r8, #0
 8001298:	f855 0b04 	ldr.w	r0, [r5], #4
 800129c:	b118      	cbz	r0, 80012a6 <pipeline_a121_disassemble+0x2a>
 800129e:	f7ff ffe5 	bl	800126c <acc_rss_integration_mem_free>
 80012a2:	f845 8c04 	str.w	r8, [r5, #-4]
 80012a6:	42b5      	cmp	r5, r6
 80012a8:	d1f6      	bne.n	8001298 <pipeline_a121_disassemble+0x1c>
 80012aa:	f8d7 0098 	ldr.w	r0, [r7, #152]	; 0x98
 80012ae:	f7ff ffdd 	bl	800126c <acc_rss_integration_mem_free>
 80012b2:	4638      	mov	r0, r7
 80012b4:	f7ff ffda 	bl	800126c <acc_rss_integration_mem_free>
 80012b8:	4620      	mov	r0, r4
 80012ba:	e8bd 41f0 	ldmia.w	sp!, {r4, r5, r6, r7, r8, lr}
 80012be:	e7d5      	b.n	800126c <acc_rss_integration_mem_free>

080012c0 <acc_rss_integration_sensor_device_transfer>:
 80012c0:	f8df c064 	ldr.w	ip, [pc, #100]	; 8001328 <acc_rss_integration_sensor_device_transfer+0x68>
 80012c4:	e92d 47f0 	stmdb	sp!, {r4, r5, r6, r7, r8, r9, sl, lr}
 80012c8:	f8dc 5040 	ldr.w	r5, [ip, #64]	; 0x40
 80012cc:	b11d      	cbz	r5, 80012d6 <acc_rss_integration_sensor_device_transfer+0x16>
 80012ce:	462b      	mov	r3, r5
 80012d0:	e8bd 47f0 	ldmia.w	sp!, {r4, r5, r6, r7, r8, r9, sl, lr}
 80012d4:	4718      	bx	r3
 80012d6:	b312      	cbz	r2, 800131e <acc_rss_integration_sensor_device_transfer+0x5e>
 80012d8:	0052      	lsls	r2, r2, #1
 80012da:	f1a1 0802 	sub.w	r8, r1, #2
 80012de:	f1a2 0902 	sub.w	r9, r2, #2
 80012e2:	460e      	mov	r6, r1
 80012e4:	469a      	mov	sl, r3
 80012e6:	4607      	mov	r7, r0
 80012e8:	4449      	add	r1, r9
 80012ea:	4644      	mov	r4, r8
 80012ec:	f834 5f02 	ldrh.w	r5, [r4, #2]!
 80012f0:	ba6d      	rev16	r5, r5
 80012f2:	428c      	cmp	r4, r1
 80012f4:	8025      	strh	r5, [r4, #0]
 80012f6:	d1f9      	bne.n	80012ec <acc_rss_integration_sensor_device_transfer+0x2c>
 80012f8:	f8dc 4038 	ldr.w	r4, [ip, #56]	; 0x38
 80012fc:	4638      	mov	r0, r7
 80012fe:	4631      	mov	r1, r6
 8001300:	47a0      	blx	r4
 8001302:	f1ba 0f00 	cmp.w	sl, #0
 8001306:	d101      	bne.n	800130c <acc_rss_integration_sensor_device_transfer+0x4c>
 8001308:	e8bd 87f0 	ldmia.w	sp!, {r4, r5, r6, r7, r8, r9, sl, pc}
 800130c:	444e      	add	r6, r9
 800130e:	f838 3f02 	ldrh.w	r3, [r8, #2]!
 8001312:	ba5b      	rev16	r3, r3
 8001314:	45b0      	cmp	r8, r6
 8001316:	f8a8 3000 	strh.w	r3, [r8]
 800131a:	d1f8      	bne.n	800130e <acc_rss_integration_sensor_device_transfer+0x4e>
 800131c:	e7f4      	b.n	8001308 <acc_rss_integration_sensor_device_transfer+0x48>
 800131e:	e8bd 47f0 	ldmia.w	sp!, {r4, r5, r6, r7, r8, r9, sl, lr}
 8001322:	f8dc 3038 	ldr.w	r3, [ip, #56]	; 0x38
 8001326:	4718      	bx	r3
 8001328:	200000ac 	.word	0x200000ac

0800132c <acc_sensor_a121_conf_write_instr>:
 800132c:	b570      	push	{r4, r5, r6, lr}
 800132e:	2501      	movs	r5, #1
 8001330:	b084      	sub	sp, #16
 8001332:	f441 43a0 	orr.w	r3, r1, #20480	; 0x5000
 8001336:	4604      	mov	r4, r0
 8001338:	4616      	mov	r6, r2
 800133a:	a903      	add	r1, sp, #12
 800133c:	462a      	mov	r2, r5
 800133e:	a801      	add	r0, sp, #4
 8001340:	f8ad 3008 	strh.w	r3, [sp, #8]
 8001344:	9601      	str	r6, [sp, #4]
 8001346:	f8ad 500a 	strh.w	r5, [sp, #10]
 800134a:	f7ff fcc1 	bl	8000cd0 <acc_confprogram_copy>
 800134e:	4620      	mov	r0, r4
 8001350:	a902      	add	r1, sp, #8
 8001352:	2300      	movs	r3, #0
 8001354:	2204      	movs	r2, #4
 8001356:	f7ff ffb3 	bl	80012c0 <acc_rss_integration_sensor_device_transfer>
 800135a:	b004      	add	sp, #16
 800135c:	bd70      	pop	{r4, r5, r6, pc}
 800135e:	bf00      	nop

08001360 <acc_confprogram_modify_runif_sensor.constprop.0>:
 8001360:	b5f0      	push	{r4, r5, r6, r7, lr}
 8001362:	4614      	mov	r4, r2
 8001364:	b083      	sub	sp, #12
 8001366:	f851 5024 	ldr.w	r5, [r1, r4, lsl #2]
 800136a:	f89d 2020 	ldrb.w	r2, [sp, #32]
 800136e:	f025 050f 	bic.w	r5, r5, #15
 8001372:	4606      	mov	r6, r0
 8001374:	b1a2      	cbz	r2, 80013a0 <acc_confprogram_modify_runif_sensor.constprop.0+0x40>
 8001376:	4a10      	ldr	r2, [pc, #64]	; (80013b8 <acc_confprogram_modify_runif_sensor.constprop.0+0x58>)
 8001378:	f892 1028 	ldrb.w	r1, [r2, #40]	; 0x28
 800137c:	2903      	cmp	r1, #3
 800137e:	ea45 0503 	orr.w	r5, r5, r3
 8001382:	d906      	bls.n	8001392 <acc_confprogram_modify_runif_sensor.constprop.0+0x32>
 8001384:	9300      	str	r3, [sp, #0]
 8001386:	6bd7      	ldr	r7, [r2, #60]	; 0x3c
 8001388:	490c      	ldr	r1, [pc, #48]	; (80013bc <acc_confprogram_modify_runif_sensor.constprop.0+0x5c>)
 800138a:	4a0d      	ldr	r2, [pc, #52]	; (80013c0 <acc_confprogram_modify_runif_sensor.constprop.0+0x60>)
 800138c:	4623      	mov	r3, r4
 800138e:	2004      	movs	r0, #4
 8001390:	47b8      	blx	r7
 8001392:	462a      	mov	r2, r5
 8001394:	4621      	mov	r1, r4
 8001396:	4630      	mov	r0, r6
 8001398:	b003      	add	sp, #12
 800139a:	e8bd 40f0 	ldmia.w	sp!, {r4, r5, r6, r7, lr}
 800139e:	e7c5      	b.n	800132c <acc_sensor_a121_conf_write_instr>
 80013a0:	4b05      	ldr	r3, [pc, #20]	; (80013b8 <acc_confprogram_modify_runif_sensor.constprop.0+0x58>)
 80013a2:	f893 2028 	ldrb.w	r2, [r3, #40]	; 0x28
 80013a6:	2a03      	cmp	r2, #3
 80013a8:	d9f3      	bls.n	8001392 <acc_confprogram_modify_runif_sensor.constprop.0+0x32>
 80013aa:	6bdf      	ldr	r7, [r3, #60]	; 0x3c
 80013ac:	4a05      	ldr	r2, [pc, #20]	; (80013c4 <acc_confprogram_modify_runif_sensor.constprop.0+0x64>)
 80013ae:	4903      	ldr	r1, [pc, #12]	; (80013bc <acc_confprogram_modify_runif_sensor.constprop.0+0x5c>)
 80013b0:	4623      	mov	r3, r4
 80013b2:	2004      	movs	r0, #4
 80013b4:	47b8      	blx	r7
 80013b6:	e7ec      	b.n	8001392 <acc_confprogram_modify_runif_sensor.constprop.0+0x32>
 80013b8:	200000ac 	.word	0x200000ac
 80013bc:	0800f5c0 	.word	0x0800f5c0
 80013c0:	0800f588 	.word	0x0800f588
 80013c4:	0800f874 	.word	0x0800f874

080013c8 <acc_sensor_reg_field_write>:
 80013c8:	e92d 47f0 	stmdb	sp!, {r4, r5, r6, r7, r8, r9, sl, lr}
 80013cc:	b082      	sub	sp, #8
 80013ce:	461d      	mov	r5, r3
 80013d0:	f443 5340 	orr.w	r3, r3, #12288	; 0x3000
 80013d4:	f8bd 4028 	ldrh.w	r4, [sp, #40]	; 0x28
 80013d8:	f8ad 3000 	strh.w	r3, [sp]
 80013dc:	2700      	movs	r7, #0
 80013de:	468a      	mov	sl, r1
 80013e0:	4691      	mov	r9, r2
 80013e2:	4669      	mov	r1, sp
 80013e4:	2301      	movs	r3, #1
 80013e6:	2203      	movs	r2, #3
 80013e8:	4680      	mov	r8, r0
 80013ea:	f8ad 7002 	strh.w	r7, [sp, #2]
 80013ee:	f8ad 7004 	strh.w	r7, [sp, #4]
 80013f2:	f7ff ff65 	bl	80012c0 <acc_rss_integration_sensor_device_transfer>
 80013f6:	f9bd 6004 	ldrsh.w	r6, [sp, #4]
 80013fa:	fa04 f10a 	lsl.w	r1, r4, sl
 80013fe:	4071      	eors	r1, r6
 8001400:	ea01 0409 	and.w	r4, r1, r9
 8001404:	f445 5580 	orr.w	r5, r5, #4096	; 0x1000
 8001408:	4640      	mov	r0, r8
 800140a:	463b      	mov	r3, r7
 800140c:	4669      	mov	r1, sp
 800140e:	4074      	eors	r4, r6
 8001410:	2202      	movs	r2, #2
 8001412:	f8ad 5000 	strh.w	r5, [sp]
 8001416:	f8ad 4002 	strh.w	r4, [sp, #2]
 800141a:	f7ff ff51 	bl	80012c0 <acc_rss_integration_sensor_device_transfer>
 800141e:	b002      	add	sp, #8
 8001420:	e8bd 87f0 	ldmia.w	sp!, {r4, r5, r6, r7, r8, r9, sl, pc}

08001424 <acc_sensor_protocol_a121_init_interrupts>:
 8001424:	b530      	push	{r4, r5, lr}
 8001426:	b083      	sub	sp, #12
 8001428:	2500      	movs	r5, #0
 800142a:	4629      	mov	r1, r5
 800142c:	9500      	str	r5, [sp, #0]
 800142e:	237b      	movs	r3, #123	; 0x7b
 8001430:	22ff      	movs	r2, #255	; 0xff
 8001432:	4604      	mov	r4, r0
 8001434:	f7ff ffc8 	bl	80013c8 <acc_sensor_reg_field_write>
 8001438:	2101      	movs	r1, #1
 800143a:	4620      	mov	r0, r4
 800143c:	9100      	str	r1, [sp, #0]
 800143e:	238b      	movs	r3, #139	; 0x8b
 8001440:	2202      	movs	r2, #2
 8001442:	f7ff ffc1 	bl	80013c8 <acc_sensor_reg_field_write>
 8001446:	9500      	str	r5, [sp, #0]
 8001448:	4620      	mov	r0, r4
 800144a:	238b      	movs	r3, #139	; 0x8b
 800144c:	2280      	movs	r2, #128	; 0x80
 800144e:	2107      	movs	r1, #7
 8001450:	f7ff ffba 	bl	80013c8 <acc_sensor_reg_field_write>
 8001454:	b003      	add	sp, #12
 8001456:	bd30      	pop	{r4, r5, pc}

08001458 <acc_sensor_reg_write>:
 8001458:	b530      	push	{r4, r5, lr}
 800145a:	b083      	sub	sp, #12
 800145c:	f441 5480 	orr.w	r4, r1, #4096	; 0x1000
 8001460:	4615      	mov	r5, r2
 8001462:	2300      	movs	r3, #0
 8001464:	2202      	movs	r2, #2
 8001466:	a901      	add	r1, sp, #4
 8001468:	f8ad 4004 	strh.w	r4, [sp, #4]
 800146c:	f8ad 5006 	strh.w	r5, [sp, #6]
 8001470:	f7ff ff26 	bl	80012c0 <acc_rss_integration_sensor_device_transfer>
 8001474:	b003      	add	sp, #12
 8001476:	bd30      	pop	{r4, r5, pc}

08001478 <acc_sensor_reg_read>:
 8001478:	b530      	push	{r4, r5, lr}
 800147a:	b083      	sub	sp, #12
 800147c:	f441 5140 	orr.w	r1, r1, #12288	; 0x3000
 8001480:	4614      	mov	r4, r2
 8001482:	2500      	movs	r5, #0
 8001484:	f8ad 1000 	strh.w	r1, [sp]
 8001488:	2301      	movs	r3, #1
 800148a:	2203      	movs	r2, #3
 800148c:	4669      	mov	r1, sp
 800148e:	f8ad 5002 	strh.w	r5, [sp, #2]
 8001492:	f8ad 5004 	strh.w	r5, [sp, #4]
 8001496:	f7ff ff13 	bl	80012c0 <acc_rss_integration_sensor_device_transfer>
 800149a:	f8bd 3004 	ldrh.w	r3, [sp, #4]
 800149e:	8023      	strh	r3, [r4, #0]
 80014a0:	b003      	add	sp, #12
 80014a2:	bd30      	pop	{r4, r5, pc}

080014a4 <acc_sensor_status_a121>:
 80014a4:	e92d 4ff0 	stmdb	sp!, {r4, r5, r6, r7, r8, r9, sl, fp, lr}
 80014a8:	4f32      	ldr	r7, [pc, #200]	; (8001574 <acc_sensor_status_a121+0xd0>)
 80014aa:	ed2d 8b02 	vpush	{d8}
 80014ae:	f897 3028 	ldrb.w	r3, [r7, #40]	; 0x28
 80014b2:	2b01      	cmp	r3, #1
 80014b4:	b0a3      	sub	sp, #140	; 0x8c
 80014b6:	4606      	mov	r6, r0
 80014b8:	d904      	bls.n	80014c4 <acc_sensor_status_a121+0x20>
 80014ba:	6bfb      	ldr	r3, [r7, #60]	; 0x3c
 80014bc:	4a2e      	ldr	r2, [pc, #184]	; (8001578 <acc_sensor_status_a121+0xd4>)
 80014be:	492f      	ldr	r1, [pc, #188]	; (800157c <acc_sensor_status_a121+0xd8>)
 80014c0:	2002      	movs	r0, #2
 80014c2:	4798      	blx	r3
 80014c4:	492e      	ldr	r1, [pc, #184]	; (8001580 <acc_sensor_status_a121+0xdc>)
 80014c6:	f8df b0c0 	ldr.w	fp, [pc, #192]	; 8001588 <acc_sensor_status_a121+0xe4>
 80014ca:	f8df a0b0 	ldr.w	sl, [pc, #176]	; 800157c <acc_sensor_status_a121+0xd8>
 80014ce:	2278      	movs	r2, #120	; 0x78
 80014d0:	a804      	add	r0, sp, #16
 80014d2:	f009 f9ab 	bl	800a82c <memcpy>
 80014d6:	2201      	movs	r2, #1
 80014d8:	21d5      	movs	r1, #213	; 0xd5
 80014da:	4630      	mov	r0, r6
 80014dc:	f7ff ffbc 	bl	8001458 <acc_sensor_reg_write>
 80014e0:	ac04      	add	r4, sp, #16
 80014e2:	f10d 0888 	add.w	r8, sp, #136	; 0x88
 80014e6:	88a5      	ldrh	r5, [r4, #4]
 80014e8:	f8b4 9006 	ldrh.w	r9, [r4, #6]
 80014ec:	44a9      	add	r9, r5
 80014ee:	454d      	cmp	r5, r9
 80014f0:	da2e      	bge.n	8001550 <acc_sensor_status_a121+0xac>
 80014f2:	ee08 6a10 	vmov	s16, r6
 80014f6:	e006      	b.n	8001506 <acc_sensor_status_a121+0x62>
 80014f8:	f8bd 200e 	ldrh.w	r2, [sp, #14]
 80014fc:	4798      	blx	r3
 80014fe:	3501      	adds	r5, #1
 8001500:	b2ad      	uxth	r5, r5
 8001502:	45a9      	cmp	r9, r5
 8001504:	dd22      	ble.n	800154c <acc_sensor_status_a121+0xa8>
 8001506:	ee18 0a10 	vmov	r0, s16
 800150a:	4629      	mov	r1, r5
 800150c:	f10d 020e 	add.w	r2, sp, #14
 8001510:	f7ff ffb2 	bl	8001478 <acc_sensor_reg_read>
 8001514:	68a3      	ldr	r3, [r4, #8]
 8001516:	ee18 0a10 	vmov	r0, s16
 800151a:	4629      	mov	r1, r5
 800151c:	2b00      	cmp	r3, #0
 800151e:	d1eb      	bne.n	80014f8 <acc_sensor_status_a121+0x54>
 8001520:	f897 3028 	ldrb.w	r3, [r7, #40]	; 0x28
 8001524:	2b01      	cmp	r3, #1
 8001526:	465a      	mov	r2, fp
 8001528:	ee18 3a10 	vmov	r3, s16
 800152c:	4651      	mov	r1, sl
 800152e:	f04f 0002 	mov.w	r0, #2
 8001532:	d9e4      	bls.n	80014fe <acc_sensor_status_a121+0x5a>
 8001534:	f8bd c00e 	ldrh.w	ip, [sp, #14]
 8001538:	f8cd c004 	str.w	ip, [sp, #4]
 800153c:	6826      	ldr	r6, [r4, #0]
 800153e:	9600      	str	r6, [sp, #0]
 8001540:	3501      	adds	r5, #1
 8001542:	6bfe      	ldr	r6, [r7, #60]	; 0x3c
 8001544:	b2ad      	uxth	r5, r5
 8001546:	47b0      	blx	r6
 8001548:	45a9      	cmp	r9, r5
 800154a:	dcdc      	bgt.n	8001506 <acc_sensor_status_a121+0x62>
 800154c:	ee18 6a10 	vmov	r6, s16
 8001550:	340c      	adds	r4, #12
 8001552:	45a0      	cmp	r8, r4
 8001554:	d1c7      	bne.n	80014e6 <acc_sensor_status_a121+0x42>
 8001556:	f897 3028 	ldrb.w	r3, [r7, #40]	; 0x28
 800155a:	2b01      	cmp	r3, #1
 800155c:	d904      	bls.n	8001568 <acc_sensor_status_a121+0xc4>
 800155e:	6bfb      	ldr	r3, [r7, #60]	; 0x3c
 8001560:	4a08      	ldr	r2, [pc, #32]	; (8001584 <acc_sensor_status_a121+0xe0>)
 8001562:	4906      	ldr	r1, [pc, #24]	; (800157c <acc_sensor_status_a121+0xd8>)
 8001564:	2002      	movs	r0, #2
 8001566:	4798      	blx	r3
 8001568:	b023      	add	sp, #140	; 0x8c
 800156a:	ecbd 8b02 	vpop	{d8}
 800156e:	e8bd 8ff0 	ldmia.w	sp!, {r4, r5, r6, r7, r8, r9, sl, fp, pc}
 8001572:	bf00      	nop
 8001574:	200000ac 	.word	0x200000ac
 8001578:	0800f8a4 	.word	0x0800f8a4
 800157c:	0800f6e4 	.word	0x0800f6e4
 8001580:	0800be8c 	.word	0x0800be8c
 8001584:	0800f93c 	.word	0x0800f93c
 8001588:	0800f928 	.word	0x0800f928

0800158c <acc_sensor_protocol_a121_get_event>:
 800158c:	b5f0      	push	{r4, r5, r6, r7, lr}
 800158e:	b085      	sub	sp, #20
 8001590:	2400      	movs	r4, #0
 8001592:	2901      	cmp	r1, #1
 8001594:	4607      	mov	r7, r0
 8001596:	4616      	mov	r6, r2
 8001598:	f8ad 400e 	strh.w	r4, [sp, #14]
 800159c:	d038      	beq.n	8001610 <acc_sensor_protocol_a121_get_event+0x84>
 800159e:	2902      	cmp	r1, #2
 80015a0:	d033      	beq.n	800160a <acc_sensor_protocol_a121_get_event+0x7e>
 80015a2:	4b22      	ldr	r3, [pc, #136]	; (800162c <acc_sensor_protocol_a121_get_event+0xa0>)
 80015a4:	4922      	ldr	r1, [pc, #136]	; (8001630 <acc_sensor_protocol_a121_get_event+0xa4>)
 80015a6:	6bdd      	ldr	r5, [r3, #60]	; 0x3c
 80015a8:	4a22      	ldr	r2, [pc, #136]	; (8001634 <acc_sensor_protocol_a121_get_event+0xa8>)
 80015aa:	4603      	mov	r3, r0
 80015ac:	4620      	mov	r0, r4
 80015ae:	47a8      	blx	r5
 80015b0:	4621      	mov	r1, r4
 80015b2:	f10d 020e 	add.w	r2, sp, #14
 80015b6:	4638      	mov	r0, r7
 80015b8:	f7ff ff5e 	bl	8001478 <acc_sensor_reg_read>
 80015bc:	f8bd 300e 	ldrh.w	r3, [sp, #14]
 80015c0:	8073      	strh	r3, [r6, #2]
 80015c2:	f003 0507 	and.w	r5, r3, #7
 80015c6:	2d01      	cmp	r5, #1
 80015c8:	8035      	strh	r5, [r6, #0]
 80015ca:	d024      	beq.n	8001616 <acc_sensor_protocol_a121_get_event+0x8a>
 80015cc:	f013 0f06 	tst.w	r3, #6
 80015d0:	d10b      	bne.n	80015ea <acc_sensor_protocol_a121_get_event+0x5e>
 80015d2:	b96d      	cbnz	r5, 80015f0 <acc_sensor_protocol_a121_get_event+0x64>
 80015d4:	4a15      	ldr	r2, [pc, #84]	; (800162c <acc_sensor_protocol_a121_get_event+0xa0>)
 80015d6:	9700      	str	r7, [sp, #0]
 80015d8:	6bd4      	ldr	r4, [r2, #60]	; 0x3c
 80015da:	4915      	ldr	r1, [pc, #84]	; (8001630 <acc_sensor_protocol_a121_get_event+0xa4>)
 80015dc:	4a16      	ldr	r2, [pc, #88]	; (8001638 <acc_sensor_protocol_a121_get_event+0xac>)
 80015de:	4628      	mov	r0, r5
 80015e0:	47a0      	blx	r4
 80015e2:	462c      	mov	r4, r5
 80015e4:	4620      	mov	r0, r4
 80015e6:	b005      	add	sp, #20
 80015e8:	bdf0      	pop	{r4, r5, r6, r7, pc}
 80015ea:	3d02      	subs	r5, #2
 80015ec:	2d01      	cmp	r5, #1
 80015ee:	d9f9      	bls.n	80015e4 <acc_sensor_protocol_a121_get_event+0x58>
 80015f0:	4a0e      	ldr	r2, [pc, #56]	; (800162c <acc_sensor_protocol_a121_get_event+0xa0>)
 80015f2:	9700      	str	r7, [sp, #0]
 80015f4:	6bd4      	ldr	r4, [r2, #60]	; 0x3c
 80015f6:	490e      	ldr	r1, [pc, #56]	; (8001630 <acc_sensor_protocol_a121_get_event+0xa4>)
 80015f8:	4a10      	ldr	r2, [pc, #64]	; (800163c <acc_sensor_protocol_a121_get_event+0xb0>)
 80015fa:	2000      	movs	r0, #0
 80015fc:	47a0      	blx	r4
 80015fe:	2100      	movs	r1, #0
 8001600:	460c      	mov	r4, r1
 8001602:	4620      	mov	r0, r4
 8001604:	8031      	strh	r1, [r6, #0]
 8001606:	b005      	add	sp, #20
 8001608:	bdf0      	pop	{r4, r5, r6, r7, pc}
 800160a:	2132      	movs	r1, #50	; 0x32
 800160c:	2401      	movs	r4, #1
 800160e:	e7d0      	b.n	80015b2 <acc_sensor_protocol_a121_get_event+0x26>
 8001610:	460c      	mov	r4, r1
 8001612:	2133      	movs	r1, #51	; 0x33
 8001614:	e7cd      	b.n	80015b2 <acc_sensor_protocol_a121_get_event+0x26>
 8001616:	4a05      	ldr	r2, [pc, #20]	; (800162c <acc_sensor_protocol_a121_get_event+0xa0>)
 8001618:	9700      	str	r7, [sp, #0]
 800161a:	6bd4      	ldr	r4, [r2, #60]	; 0x3c
 800161c:	4904      	ldr	r1, [pc, #16]	; (8001630 <acc_sensor_protocol_a121_get_event+0xa4>)
 800161e:	4a08      	ldr	r2, [pc, #32]	; (8001640 <acc_sensor_protocol_a121_get_event+0xb4>)
 8001620:	2000      	movs	r0, #0
 8001622:	47a0      	blx	r4
 8001624:	2400      	movs	r4, #0
 8001626:	4620      	mov	r0, r4
 8001628:	b005      	add	sp, #20
 800162a:	bdf0      	pop	{r4, r5, r6, r7, pc}
 800162c:	200000ac 	.word	0x200000ac
 8001630:	0800f994 	.word	0x0800f994
 8001634:	0800f978 	.word	0x0800f978
 8001638:	0800f9ac 	.word	0x0800f9ac
 800163c:	0800fa10 	.word	0x0800fa10
 8001640:	0800f9dc 	.word	0x0800f9dc

08001644 <acc_sensor_protocol_a121_ack_event>:
 8001644:	b5f0      	push	{r4, r5, r6, r7, lr}
 8001646:	b083      	sub	sp, #12
 8001648:	2400      	movs	r4, #0
 800164a:	2901      	cmp	r1, #1
 800164c:	4607      	mov	r7, r0
 800164e:	4616      	mov	r6, r2
 8001650:	f8ad 4006 	strh.w	r4, [sp, #6]
 8001654:	d019      	beq.n	800168a <acc_sensor_protocol_a121_ack_event+0x46>
 8001656:	2902      	cmp	r1, #2
 8001658:	d009      	beq.n	800166e <acc_sensor_protocol_a121_ack_event+0x2a>
 800165a:	4b1a      	ldr	r3, [pc, #104]	; (80016c4 <acc_sensor_protocol_a121_ack_event+0x80>)
 800165c:	4a1a      	ldr	r2, [pc, #104]	; (80016c8 <acc_sensor_protocol_a121_ack_event+0x84>)
 800165e:	6bdd      	ldr	r5, [r3, #60]	; 0x3c
 8001660:	491a      	ldr	r1, [pc, #104]	; (80016cc <acc_sensor_protocol_a121_ack_event+0x88>)
 8001662:	4603      	mov	r3, r0
 8001664:	4620      	mov	r0, r4
 8001666:	47a8      	blx	r5
 8001668:	4620      	mov	r0, r4
 800166a:	b003      	add	sp, #12
 800166c:	bdf0      	pop	{r4, r5, r6, r7, pc}
 800166e:	2146      	movs	r1, #70	; 0x46
 8001670:	f10d 0206 	add.w	r2, sp, #6
 8001674:	4638      	mov	r0, r7
 8001676:	f7ff feff 	bl	8001478 <acc_sensor_reg_read>
 800167a:	f8bd 5006 	ldrh.w	r5, [sp, #6]
 800167e:	2484      	movs	r4, #132	; 0x84
 8001680:	b175      	cbz	r5, 80016a0 <acc_sensor_protocol_a121_ack_event+0x5c>
 8001682:	b9be      	cbnz	r6, 80016b4 <acc_sensor_protocol_a121_ack_event+0x70>
 8001684:	2001      	movs	r0, #1
 8001686:	b003      	add	sp, #12
 8001688:	bdf0      	pop	{r4, r5, r6, r7, pc}
 800168a:	2145      	movs	r1, #69	; 0x45
 800168c:	f10d 0206 	add.w	r2, sp, #6
 8001690:	4638      	mov	r0, r7
 8001692:	f7ff fef1 	bl	8001478 <acc_sensor_reg_read>
 8001696:	f8bd 5006 	ldrh.w	r5, [sp, #6]
 800169a:	2483      	movs	r4, #131	; 0x83
 800169c:	2d00      	cmp	r5, #0
 800169e:	d1f0      	bne.n	8001682 <acc_sensor_protocol_a121_ack_event+0x3e>
 80016a0:	4b08      	ldr	r3, [pc, #32]	; (80016c4 <acc_sensor_protocol_a121_ack_event+0x80>)
 80016a2:	4a0b      	ldr	r2, [pc, #44]	; (80016d0 <acc_sensor_protocol_a121_ack_event+0x8c>)
 80016a4:	6bdc      	ldr	r4, [r3, #60]	; 0x3c
 80016a6:	4909      	ldr	r1, [pc, #36]	; (80016cc <acc_sensor_protocol_a121_ack_event+0x88>)
 80016a8:	4628      	mov	r0, r5
 80016aa:	463b      	mov	r3, r7
 80016ac:	47a0      	blx	r4
 80016ae:	4628      	mov	r0, r5
 80016b0:	b003      	add	sp, #12
 80016b2:	bdf0      	pop	{r4, r5, r6, r7, pc}
 80016b4:	4638      	mov	r0, r7
 80016b6:	4621      	mov	r1, r4
 80016b8:	2200      	movs	r2, #0
 80016ba:	f7ff fecd 	bl	8001458 <acc_sensor_reg_write>
 80016be:	4630      	mov	r0, r6
 80016c0:	e7d3      	b.n	800166a <acc_sensor_protocol_a121_ack_event+0x26>
 80016c2:	bf00      	nop
 80016c4:	200000ac 	.word	0x200000ac
 80016c8:	0800f978 	.word	0x0800f978
 80016cc:	0800f994 	.word	0x0800f994
 80016d0:	0800fa44 	.word	0x0800fa44

080016d4 <acc_sensor_protocol_a121_run_program>:
 80016d4:	b5f0      	push	{r4, r5, r6, r7, lr}
 80016d6:	4f19      	ldr	r7, [pc, #100]	; (800173c <acc_sensor_protocol_a121_run_program+0x68>)
 80016d8:	f897 2028 	ldrb.w	r2, [r7, #40]	; 0x28
 80016dc:	2a03      	cmp	r2, #3
 80016de:	b085      	sub	sp, #20
 80016e0:	4604      	mov	r4, r0
 80016e2:	460e      	mov	r6, r1
 80016e4:	d906      	bls.n	80016f4 <acc_sensor_protocol_a121_run_program+0x20>
 80016e6:	9100      	str	r1, [sp, #0]
 80016e8:	4603      	mov	r3, r0
 80016ea:	6bfd      	ldr	r5, [r7, #60]	; 0x3c
 80016ec:	4a14      	ldr	r2, [pc, #80]	; (8001740 <acc_sensor_protocol_a121_run_program+0x6c>)
 80016ee:	4915      	ldr	r1, [pc, #84]	; (8001744 <acc_sensor_protocol_a121_run_program+0x70>)
 80016f0:	2004      	movs	r0, #4
 80016f2:	47a8      	blx	r5
 80016f4:	f10d 020e 	add.w	r2, sp, #14
 80016f8:	2500      	movs	r5, #0
 80016fa:	211c      	movs	r1, #28
 80016fc:	4620      	mov	r0, r4
 80016fe:	f8ad 500e 	strh.w	r5, [sp, #14]
 8001702:	f7ff feb9 	bl	8001478 <acc_sensor_reg_read>
 8001706:	f8bd 200e 	ldrh.w	r2, [sp, #14]
 800170a:	f412 6200 	ands.w	r2, r2, #2048	; 0x800
 800170e:	d008      	beq.n	8001722 <acc_sensor_protocol_a121_run_program+0x4e>
 8001710:	4628      	mov	r0, r5
 8001712:	6bfe      	ldr	r6, [r7, #60]	; 0x3c
 8001714:	4a0c      	ldr	r2, [pc, #48]	; (8001748 <acc_sensor_protocol_a121_run_program+0x74>)
 8001716:	490b      	ldr	r1, [pc, #44]	; (8001744 <acc_sensor_protocol_a121_run_program+0x70>)
 8001718:	4623      	mov	r3, r4
 800171a:	47b0      	blx	r6
 800171c:	4628      	mov	r0, r5
 800171e:	b005      	add	sp, #20
 8001720:	bdf0      	pop	{r4, r5, r6, r7, pc}
 8001722:	4620      	mov	r0, r4
 8001724:	211b      	movs	r1, #27
 8001726:	f7ff fe97 	bl	8001458 <acc_sensor_reg_write>
 800172a:	4620      	mov	r0, r4
 800172c:	f446 6200 	orr.w	r2, r6, #2048	; 0x800
 8001730:	211b      	movs	r1, #27
 8001732:	f7ff fe91 	bl	8001458 <acc_sensor_reg_write>
 8001736:	2001      	movs	r0, #1
 8001738:	b005      	add	sp, #20
 800173a:	bdf0      	pop	{r4, r5, r6, r7, pc}
 800173c:	200000ac 	.word	0x200000ac
 8001740:	0800fa78 	.word	0x0800fa78
 8001744:	0800f994 	.word	0x0800f994
 8001748:	0800fa9c 	.word	0x0800fa9c

0800174c <acc_sensor_protocol_a121_prepare_load>:
 800174c:	b570      	push	{r4, r5, r6, lr}
 800174e:	b082      	sub	sp, #8
 8001750:	f10d 0206 	add.w	r2, sp, #6
 8001754:	2400      	movs	r4, #0
 8001756:	2137      	movs	r1, #55	; 0x37
 8001758:	4605      	mov	r5, r0
 800175a:	f8ad 4006 	strh.w	r4, [sp, #6]
 800175e:	f7ff fe8b 	bl	8001478 <acc_sensor_reg_read>
 8001762:	f8bd 3006 	ldrh.w	r3, [sp, #6]
 8001766:	f003 03c0 	and.w	r3, r3, #192	; 0xc0
 800176a:	b9b3      	cbnz	r3, 800179a <acc_sensor_protocol_a121_prepare_load+0x4e>
 800176c:	f10d 0206 	add.w	r2, sp, #6
 8001770:	2400      	movs	r4, #0
 8001772:	211c      	movs	r1, #28
 8001774:	4628      	mov	r0, r5
 8001776:	f8ad 4006 	strh.w	r4, [sp, #6]
 800177a:	f7ff fe7d 	bl	8001478 <acc_sensor_reg_read>
 800177e:	f8bd 3006 	ldrh.w	r3, [sp, #6]
 8001782:	051b      	lsls	r3, r3, #20
 8001784:	d515      	bpl.n	80017b2 <acc_sensor_protocol_a121_prepare_load+0x66>
 8001786:	4b0e      	ldr	r3, [pc, #56]	; (80017c0 <acc_sensor_protocol_a121_prepare_load+0x74>)
 8001788:	4a0e      	ldr	r2, [pc, #56]	; (80017c4 <acc_sensor_protocol_a121_prepare_load+0x78>)
 800178a:	6bde      	ldr	r6, [r3, #60]	; 0x3c
 800178c:	490e      	ldr	r1, [pc, #56]	; (80017c8 <acc_sensor_protocol_a121_prepare_load+0x7c>)
 800178e:	4620      	mov	r0, r4
 8001790:	462b      	mov	r3, r5
 8001792:	47b0      	blx	r6
 8001794:	4620      	mov	r0, r4
 8001796:	b002      	add	sp, #8
 8001798:	bd70      	pop	{r4, r5, r6, pc}
 800179a:	4b09      	ldr	r3, [pc, #36]	; (80017c0 <acc_sensor_protocol_a121_prepare_load+0x74>)
 800179c:	f893 2028 	ldrb.w	r2, [r3, #40]	; 0x28
 80017a0:	2a00      	cmp	r2, #0
 80017a2:	d0e3      	beq.n	800176c <acc_sensor_protocol_a121_prepare_load+0x20>
 80017a4:	6bdc      	ldr	r4, [r3, #60]	; 0x3c
 80017a6:	4a09      	ldr	r2, [pc, #36]	; (80017cc <acc_sensor_protocol_a121_prepare_load+0x80>)
 80017a8:	4907      	ldr	r1, [pc, #28]	; (80017c8 <acc_sensor_protocol_a121_prepare_load+0x7c>)
 80017aa:	462b      	mov	r3, r5
 80017ac:	2001      	movs	r0, #1
 80017ae:	47a0      	blx	r4
 80017b0:	e7dc      	b.n	800176c <acc_sensor_protocol_a121_prepare_load+0x20>
 80017b2:	4628      	mov	r0, r5
 80017b4:	f7ff fe36 	bl	8001424 <acc_sensor_protocol_a121_init_interrupts>
 80017b8:	2001      	movs	r0, #1
 80017ba:	b002      	add	sp, #8
 80017bc:	bd70      	pop	{r4, r5, r6, pc}
 80017be:	bf00      	nop
 80017c0:	200000ac 	.word	0x200000ac
 80017c4:	0800faf8 	.word	0x0800faf8
 80017c8:	0800f994 	.word	0x0800f994
 80017cc:	0800facc 	.word	0x0800facc

080017d0 <acc_sensor_a121_load_confmem>:
 80017d0:	e92d 4ff0 	stmdb	sp!, {r4, r5, r6, r7, r8, r9, sl, fp, lr}
 80017d4:	4e17      	ldr	r6, [pc, #92]	; (8001834 <acc_sensor_a121_load_confmem+0x64>)
 80017d6:	f896 7028 	ldrb.w	r7, [r6, #40]	; 0x28
 80017da:	f103 0902 	add.w	r9, r3, #2
 80017de:	2f03      	cmp	r7, #3
 80017e0:	b083      	sub	sp, #12
 80017e2:	461c      	mov	r4, r3
 80017e4:	4682      	mov	sl, r0
 80017e6:	460d      	mov	r5, r1
 80017e8:	4690      	mov	r8, r2
 80017ea:	ea4f 0b49 	mov.w	fp, r9, lsl #1
 80017ee:	d906      	bls.n	80017fe <acc_sensor_a121_load_confmem+0x2e>
 80017f0:	9100      	str	r1, [sp, #0]
 80017f2:	4603      	mov	r3, r0
 80017f4:	6bf7      	ldr	r7, [r6, #60]	; 0x3c
 80017f6:	4a10      	ldr	r2, [pc, #64]	; (8001838 <acc_sensor_a121_load_confmem+0x68>)
 80017f8:	4910      	ldr	r1, [pc, #64]	; (800183c <acc_sensor_a121_load_confmem+0x6c>)
 80017fa:	2004      	movs	r0, #4
 80017fc:	47b8      	blx	r7
 80017fe:	8db3      	ldrh	r3, [r6, #44]	; 0x2c
 8001800:	459b      	cmp	fp, r3
 8001802:	d907      	bls.n	8001814 <acc_sensor_a121_load_confmem+0x44>
 8001804:	6bf3      	ldr	r3, [r6, #60]	; 0x3c
 8001806:	4a0e      	ldr	r2, [pc, #56]	; (8001840 <acc_sensor_a121_load_confmem+0x70>)
 8001808:	490c      	ldr	r1, [pc, #48]	; (800183c <acc_sensor_a121_load_confmem+0x6c>)
 800180a:	2000      	movs	r0, #0
 800180c:	b003      	add	sp, #12
 800180e:	e8bd 4ff0 	ldmia.w	sp!, {r4, r5, r6, r7, r8, r9, sl, fp, lr}
 8001812:	4718      	bx	r3
 8001814:	f445 45a0 	orr.w	r5, r5, #20480	; 0x5000
 8001818:	3c01      	subs	r4, #1
 800181a:	f029 4200 	bic.w	r2, r9, #2147483648	; 0x80000000
 800181e:	4641      	mov	r1, r8
 8001820:	4650      	mov	r0, sl
 8001822:	2300      	movs	r3, #0
 8001824:	f8a8 5000 	strh.w	r5, [r8]
 8001828:	f8a8 4002 	strh.w	r4, [r8, #2]
 800182c:	b003      	add	sp, #12
 800182e:	e8bd 4ff0 	ldmia.w	sp!, {r4, r5, r6, r7, r8, r9, sl, fp, lr}
 8001832:	e545      	b.n	80012c0 <acc_rss_integration_sensor_device_transfer>
 8001834:	200000ac 	.word	0x200000ac
 8001838:	0800fb28 	.word	0x0800fb28
 800183c:	0800fb50 	.word	0x0800fb50
 8001840:	0800fb64 	.word	0x0800fb64

08001844 <acc_a121_cal_session_ack_program>:
 8001844:	b510      	push	{r4, lr}
 8001846:	b082      	sub	sp, #8
 8001848:	4604      	mov	r4, r0
 800184a:	aa01      	add	r2, sp, #4
 800184c:	2101      	movs	r1, #1
 800184e:	f7ff fe9d 	bl	800158c <acc_sensor_protocol_a121_get_event>
 8001852:	4620      	mov	r0, r4
 8001854:	2200      	movs	r2, #0
 8001856:	2101      	movs	r1, #1
 8001858:	f7ff fef4 	bl	8001644 <acc_sensor_protocol_a121_ack_event>
 800185c:	f8bd 3004 	ldrh.w	r3, [sp, #4]
 8001860:	2b02      	cmp	r3, #2
 8001862:	d008      	beq.n	8001876 <acc_a121_cal_session_ack_program+0x32>
 8001864:	4905      	ldr	r1, [pc, #20]	; (800187c <acc_a121_cal_session_ack_program+0x38>)
 8001866:	4a06      	ldr	r2, [pc, #24]	; (8001880 <acc_a121_cal_session_ack_program+0x3c>)
 8001868:	6bcc      	ldr	r4, [r1, #60]	; 0x3c
 800186a:	4906      	ldr	r1, [pc, #24]	; (8001884 <acc_a121_cal_session_ack_program+0x40>)
 800186c:	2000      	movs	r0, #0
 800186e:	47a0      	blx	r4
 8001870:	2000      	movs	r0, #0
 8001872:	b002      	add	sp, #8
 8001874:	bd10      	pop	{r4, pc}
 8001876:	2001      	movs	r0, #1
 8001878:	b002      	add	sp, #8
 800187a:	bd10      	pop	{r4, pc}
 800187c:	200000ac 	.word	0x200000ac
 8001880:	0800fb84 	.word	0x0800fb84
 8001884:	0800fbcc 	.word	0x0800fbcc

08001888 <least_sqr_fit>:
 8001888:	e92d 4ff0 	stmdb	sp!, {r4, r5, r6, r7, r8, r9, sl, fp, lr}
 800188c:	eb02 0c42 	add.w	ip, r2, r2, lsl #1
 8001890:	eb00 0c8c 	add.w	ip, r0, ip, lsl #2
 8001894:	b08d      	sub	sp, #52	; 0x34
 8001896:	2600      	movs	r6, #0
 8001898:	4683      	mov	fp, r0
 800189a:	4682      	mov	sl, r0
 800189c:	4680      	mov	r8, r0
 800189e:	4667      	mov	r7, ip
 80018a0:	46b1      	mov	r9, r6
 80018a2:	a803      	add	r0, sp, #12
 80018a4:	ea4f 0589 	mov.w	r5, r9, lsl #2
 80018a8:	4686      	mov	lr, r0
 80018aa:	ed9f 7a57 	vldr	s14, [pc, #348]	; 8001a08 <least_sqr_fit+0x180>
 80018ae:	4643      	mov	r3, r8
 80018b0:	b16a      	cbz	r2, 80018ce <least_sqr_fit+0x46>
 80018b2:	199c      	adds	r4, r3, r6
 80018b4:	442c      	add	r4, r5
 80018b6:	edd4 7a00 	vldr	s15, [r4]
 80018ba:	461c      	mov	r4, r3
 80018bc:	edd4 6a00 	vldr	s13, [r4]
 80018c0:	330c      	adds	r3, #12
 80018c2:	ee67 7aa6 	vmul.f32	s15, s15, s13
 80018c6:	42bb      	cmp	r3, r7
 80018c8:	ee37 7a27 	vadd.f32	s14, s14, s15
 80018cc:	d1f1      	bne.n	80018b2 <least_sqr_fit+0x2a>
 80018ce:	3504      	adds	r5, #4
 80018d0:	2d0c      	cmp	r5, #12
 80018d2:	ecae 7a01 	vstmia	lr!, {s14}
 80018d6:	d1e8      	bne.n	80018aa <least_sqr_fit+0x22>
 80018d8:	f109 0901 	add.w	r9, r9, #1
 80018dc:	f1b9 0f03 	cmp.w	r9, #3
 80018e0:	f100 0010 	add.w	r0, r0, #16
 80018e4:	f108 0804 	add.w	r8, r8, #4
 80018e8:	f1a6 0604 	sub.w	r6, r6, #4
 80018ec:	f107 0704 	add.w	r7, r7, #4
 80018f0:	d1d8      	bne.n	80018a4 <least_sqr_fit+0x1c>
 80018f2:	ed9d 6a04 	vldr	s12, [sp, #16]
 80018f6:	eddd 5a05 	vldr	s11, [sp, #20]
 80018fa:	eddd 6a08 	vldr	s13, [sp, #32]
 80018fe:	4668      	mov	r0, sp
 8001900:	f10b 040c 	add.w	r4, fp, #12
 8001904:	eddf 7a40 	vldr	s15, [pc, #256]	; 8001a08 <least_sqr_fit+0x180>
 8001908:	4653      	mov	r3, sl
 800190a:	b13a      	cbz	r2, 800191c <least_sqr_fit+0x94>
 800190c:	461d      	mov	r5, r3
 800190e:	ed95 7a00 	vldr	s14, [r5]
 8001912:	330c      	adds	r3, #12
 8001914:	4563      	cmp	r3, ip
 8001916:	ee77 7a87 	vadd.f32	s15, s15, s14
 800191a:	d1f7      	bne.n	800190c <least_sqr_fit+0x84>
 800191c:	f10a 0a04 	add.w	sl, sl, #4
 8001920:	45a2      	cmp	sl, r4
 8001922:	ece0 7a01 	vstmia	r0!, {s15}
 8001926:	f10c 0c04 	add.w	ip, ip, #4
 800192a:	d1eb      	bne.n	8001904 <least_sqr_fit+0x7c>
 800192c:	eddd 7a03 	vldr	s15, [sp, #12]
 8001930:	eef5 7a40 	vcmp.f32	s15, #0.0
 8001934:	eef1 fa10 	vmrs	APSR_nzcv, fpscr
 8001938:	d010      	beq.n	800195c <least_sqr_fit+0xd4>
 800193a:	eeb7 7a00 	vmov.f32	s14, #112	; 0x3f800000  1.0
 800193e:	ee87 4a27 	vdiv.f32	s8, s14, s15
 8001942:	eddd 7a07 	vldr	s15, [sp, #28]
 8001946:	ee66 4a04 	vmul.f32	s9, s12, s8
 800194a:	ee26 5a24 	vmul.f32	s10, s12, s9
 800194e:	ee77 7ac5 	vsub.f32	s15, s15, s10
 8001952:	eef5 7a40 	vcmp.f32	s15, #0.0
 8001956:	eef1 fa10 	vmrs	APSR_nzcv, fpscr
 800195a:	d106      	bne.n	800196a <least_sqr_fit+0xe2>
 800195c:	2000      	movs	r0, #0
 800195e:	2300      	movs	r3, #0
 8001960:	f8cb 3000 	str.w	r3, [fp]
 8001964:	b00d      	add	sp, #52	; 0x34
 8001966:	e8bd 8ff0 	ldmia.w	sp!, {r4, r5, r6, r7, r8, r9, sl, fp, pc}
 800196a:	eec7 2a27 	vdiv.f32	s5, s14, s15
 800196e:	ee65 3a84 	vmul.f32	s7, s11, s8
 8001972:	ee25 7aa4 	vmul.f32	s14, s11, s9
 8001976:	ee66 7a23 	vmul.f32	s15, s12, s7
 800197a:	ed9d 5a0b 	vldr	s10, [sp, #44]	; 0x2c
 800197e:	ee76 7ae7 	vsub.f32	s15, s13, s15
 8001982:	ee36 7ac7 	vsub.f32	s14, s13, s14
 8001986:	ee67 7aa2 	vmul.f32	s15, s15, s5
 800198a:	ee65 6aa3 	vmul.f32	s13, s11, s7
 800198e:	ee75 6a66 	vsub.f32	s13, s10, s13
 8001992:	ee27 5a27 	vmul.f32	s10, s14, s15
 8001996:	ee76 6ac5 	vsub.f32	s13, s13, s10
 800199a:	eef5 6a40 	vcmp.f32	s13, #0.0
 800199e:	eef1 fa10 	vmrs	APSR_nzcv, fpscr
 80019a2:	d0db      	beq.n	800195c <least_sqr_fit+0xd4>
 80019a4:	ed9d 5a00 	vldr	s10, [sp]
 80019a8:	ed9d 3a01 	vldr	s6, [sp, #4]
 80019ac:	ed9d 2a02 	vldr	s4, [sp, #8]
 80019b0:	ee64 4a85 	vmul.f32	s9, s9, s10
 80019b4:	ee63 3a85 	vmul.f32	s7, s7, s10
 80019b8:	ee73 4a64 	vsub.f32	s9, s6, s9
 80019bc:	2001      	movs	r0, #1
 80019be:	ee67 7aa4 	vmul.f32	s15, s15, s9
 80019c2:	2300      	movs	r3, #0
 80019c4:	ee72 7a67 	vsub.f32	s15, s4, s15
 80019c8:	ee77 3ae3 	vsub.f32	s7, s15, s7
 80019cc:	eec3 7aa6 	vdiv.f32	s15, s7, s13
 80019d0:	ee27 7a27 	vmul.f32	s14, s14, s15
 80019d4:	edc1 7a02 	vstr	s15, [r1, #8]
 80019d8:	ee34 7ac7 	vsub.f32	s14, s9, s14
 80019dc:	ee65 5aa7 	vmul.f32	s11, s11, s15
 80019e0:	ee67 7a22 	vmul.f32	s15, s14, s5
 80019e4:	ee26 6a27 	vmul.f32	s12, s12, s15
 80019e8:	edc1 7a01 	vstr	s15, [r1, #4]
 80019ec:	ee35 6a46 	vsub.f32	s12, s10, s12
 80019f0:	ee76 5a65 	vsub.f32	s11, s12, s11
 80019f4:	ee25 4a84 	vmul.f32	s8, s11, s8
 80019f8:	ed81 4a00 	vstr	s8, [r1]
 80019fc:	f8cb 3000 	str.w	r3, [fp]
 8001a00:	b00d      	add	sp, #52	; 0x34
 8001a02:	e8bd 8ff0 	ldmia.w	sp!, {r4, r5, r6, r7, r8, r9, sl, fp, pc}
 8001a06:	bf00      	nop
 8001a08:	00000000 	.word	0x00000000

08001a0c <acc_cal_algorithms_atan2_q16>:
 8001a0c:	2800      	cmp	r0, #0
 8001a0e:	bfb8      	it	lt
 8001a10:	4240      	neglt	r0, r0
 8001a12:	b470      	push	{r4, r5, r6}
 8001a14:	bfba      	itte	lt
 8001a16:	b200      	sxthlt	r0, r0
 8001a18:	2401      	movlt	r4, #1
 8001a1a:	2400      	movge	r4, #0
 8001a1c:	2900      	cmp	r1, #0
 8001a1e:	db3f      	blt.n	8001aa0 <acc_cal_algorithms_atan2_q16+0x94>
 8001a20:	4288      	cmp	r0, r1
 8001a22:	db38      	blt.n	8001a96 <acc_cal_algorithms_atan2_q16+0x8a>
 8001a24:	2200      	movs	r2, #0
 8001a26:	4603      	mov	r3, r0
 8001a28:	b368      	cbz	r0, 8001a86 <acc_cal_algorithms_atan2_q16+0x7a>
 8001a2a:	4608      	mov	r0, r1
 8001a2c:	2600      	movs	r6, #0
 8001a2e:	f643 4528 	movw	r5, #15400	; 0x3c28
 8001a32:	0400      	lsls	r0, r0, #16
 8001a34:	fbb0 f1f3 	udiv	r1, r0, r3
 8001a38:	42a9      	cmp	r1, r5
 8001a3a:	d94a      	bls.n	8001ad2 <acc_cal_algorithms_atan2_q16+0xc6>
 8001a3c:	f246 33d6 	movw	r3, #25558	; 0x63d6
 8001a40:	4299      	cmp	r1, r3
 8001a42:	d936      	bls.n	8001ab2 <acc_cal_algorithms_atan2_q16+0xa6>
 8001a44:	f648 0372 	movw	r3, #34930	; 0x8872
 8001a48:	4299      	cmp	r1, r3
 8001a4a:	d944      	bls.n	8001ad6 <acc_cal_algorithms_atan2_q16+0xca>
 8001a4c:	f64a 4349 	movw	r3, #44105	; 0xac49
 8001a50:	4299      	cmp	r1, r3
 8001a52:	d942      	bls.n	8001ada <acc_cal_algorithms_atan2_q16+0xce>
 8001a54:	f24d 03a3 	movw	r3, #53411	; 0xd0a3
 8001a58:	4299      	cmp	r1, r3
 8001a5a:	d940      	bls.n	8001ade <acc_cal_algorithms_atan2_q16+0xd2>
 8001a5c:	f24f 734b 	movw	r3, #63307	; 0xf74b
 8001a60:	4299      	cmp	r1, r3
 8001a62:	bf98      	it	ls
 8001a64:	2005      	movls	r0, #5
 8001a66:	d925      	bls.n	8001ab4 <acc_cal_algorithms_atan2_q16+0xa8>
 8001a68:	f24f 754c 	movw	r5, #63308	; 0xf74c
 8001a6c:	f248 2333 	movw	r3, #33331	; 0x8233
 8001a70:	f24c 40a3 	movw	r0, #50339	; 0xc4a3
 8001a74:	1b49      	subs	r1, r1, r5
 8001a76:	fb03 f101 	mul.w	r1, r3, r1
 8001a7a:	eb00 4011 	add.w	r0, r0, r1, lsr #16
 8001a7e:	b116      	cbz	r6, 8001a86 <acc_cal_algorithms_atan2_q16+0x7a>
 8001a80:	f5c0 30c9 	rsb	r0, r0, #102912	; 0x19200
 8001a84:	301f      	adds	r0, #31
 8001a86:	b114      	cbz	r4, 8001a8e <acc_cal_algorithms_atan2_q16+0x82>
 8001a88:	f5c0 3049 	rsb	r0, r0, #205824	; 0x32400
 8001a8c:	303f      	adds	r0, #63	; 0x3f
 8001a8e:	b102      	cbz	r2, 8001a92 <acc_cal_algorithms_atan2_q16+0x86>
 8001a90:	4240      	negs	r0, r0
 8001a92:	bc70      	pop	{r4, r5, r6}
 8001a94:	4770      	bx	lr
 8001a96:	460b      	mov	r3, r1
 8001a98:	b9c1      	cbnz	r1, 8001acc <acc_cal_algorithms_atan2_q16+0xc0>
 8001a9a:	4812      	ldr	r0, [pc, #72]	; (8001ae4 <acc_cal_algorithms_atan2_q16+0xd8>)
 8001a9c:	460a      	mov	r2, r1
 8001a9e:	e7f2      	b.n	8001a86 <acc_cal_algorithms_atan2_q16+0x7a>
 8001aa0:	4249      	negs	r1, r1
 8001aa2:	b209      	sxth	r1, r1
 8001aa4:	4288      	cmp	r0, r1
 8001aa6:	f04f 0201 	mov.w	r2, #1
 8001aaa:	dabc      	bge.n	8001a26 <acc_cal_algorithms_atan2_q16+0x1a>
 8001aac:	460b      	mov	r3, r1
 8001aae:	4616      	mov	r6, r2
 8001ab0:	e7bd      	b.n	8001a2e <acc_cal_algorithms_atan2_q16+0x22>
 8001ab2:	2001      	movs	r0, #1
 8001ab4:	4b0c      	ldr	r3, [pc, #48]	; (8001ae8 <acc_cal_algorithms_atan2_q16+0xdc>)
 8001ab6:	eb03 05c0 	add.w	r5, r3, r0, lsl #3
 8001aba:	eb03 0380 	add.w	r3, r3, r0, lsl #2
 8001abe:	f8d5 0928 	ldr.w	r0, [r5, #2344]	; 0x928
 8001ac2:	f8d3 395c 	ldr.w	r3, [r3, #2396]	; 0x95c
 8001ac6:	f8d5 5924 	ldr.w	r5, [r5, #2340]	; 0x924
 8001aca:	e7d3      	b.n	8001a74 <acc_cal_algorithms_atan2_q16+0x68>
 8001acc:	2200      	movs	r2, #0
 8001ace:	2601      	movs	r6, #1
 8001ad0:	e7ad      	b.n	8001a2e <acc_cal_algorithms_atan2_q16+0x22>
 8001ad2:	2000      	movs	r0, #0
 8001ad4:	e7ee      	b.n	8001ab4 <acc_cal_algorithms_atan2_q16+0xa8>
 8001ad6:	2002      	movs	r0, #2
 8001ad8:	e7ec      	b.n	8001ab4 <acc_cal_algorithms_atan2_q16+0xa8>
 8001ada:	2003      	movs	r0, #3
 8001adc:	e7ea      	b.n	8001ab4 <acc_cal_algorithms_atan2_q16+0xa8>
 8001ade:	2004      	movs	r0, #4
 8001ae0:	e7e8      	b.n	8001ab4 <acc_cal_algorithms_atan2_q16+0xa8>
 8001ae2:	bf00      	nop
 8001ae4:	0001921f 	.word	0x0001921f
 8001ae8:	0800b5e0 	.word	0x0800b5e0

08001aec <acc_sensor_destroy>:
 8001aec:	b510      	push	{r4, lr}
 8001aee:	b120      	cbz	r0, 8001afa <acc_sensor_destroy+0xe>
 8001af0:	4b0b      	ldr	r3, [pc, #44]	; (8001b20 <acc_sensor_destroy+0x34>)
 8001af2:	6802      	ldr	r2, [r0, #0]
 8001af4:	429a      	cmp	r2, r3
 8001af6:	4604      	mov	r4, r0
 8001af8:	d007      	beq.n	8001b0a <acc_sensor_destroy+0x1e>
 8001afa:	4b0a      	ldr	r3, [pc, #40]	; (8001b24 <acc_sensor_destroy+0x38>)
 8001afc:	4a0a      	ldr	r2, [pc, #40]	; (8001b28 <acc_sensor_destroy+0x3c>)
 8001afe:	6bdb      	ldr	r3, [r3, #60]	; 0x3c
 8001b00:	490a      	ldr	r1, [pc, #40]	; (8001b2c <acc_sensor_destroy+0x40>)
 8001b02:	e8bd 4010 	ldmia.w	sp!, {r4, lr}
 8001b06:	2000      	movs	r0, #0
 8001b08:	4718      	bx	r3
 8001b0a:	6900      	ldr	r0, [r0, #16]
 8001b0c:	2300      	movs	r3, #0
 8001b0e:	6023      	str	r3, [r4, #0]
 8001b10:	b108      	cbz	r0, 8001b16 <acc_sensor_destroy+0x2a>
 8001b12:	f7ff fbab 	bl	800126c <acc_rss_integration_mem_free>
 8001b16:	4620      	mov	r0, r4
 8001b18:	e8bd 4010 	ldmia.w	sp!, {r4, lr}
 8001b1c:	f7ff bba6 	b.w	800126c <acc_rss_integration_mem_free>
 8001b20:	1337b00e 	.word	0x1337b00e
 8001b24:	200000ac 	.word	0x200000ac
 8001b28:	0800fbec 	.word	0x0800fbec
 8001b2c:	0800fc04 	.word	0x0800fc04

08001b30 <acc_processing_destroy>:
 8001b30:	b510      	push	{r4, lr}
 8001b32:	b120      	cbz	r0, 8001b3e <acc_processing_destroy+0xe>
 8001b34:	4b0c      	ldr	r3, [pc, #48]	; (8001b68 <acc_processing_destroy+0x38>)
 8001b36:	6802      	ldr	r2, [r0, #0]
 8001b38:	429a      	cmp	r2, r3
 8001b3a:	4604      	mov	r4, r0
 8001b3c:	d007      	beq.n	8001b4e <acc_processing_destroy+0x1e>
 8001b3e:	4b0b      	ldr	r3, [pc, #44]	; (8001b6c <acc_processing_destroy+0x3c>)
 8001b40:	4a0b      	ldr	r2, [pc, #44]	; (8001b70 <acc_processing_destroy+0x40>)
 8001b42:	6bdb      	ldr	r3, [r3, #60]	; 0x3c
 8001b44:	490b      	ldr	r1, [pc, #44]	; (8001b74 <acc_processing_destroy+0x44>)
 8001b46:	e8bd 4010 	ldmia.w	sp!, {r4, lr}
 8001b4a:	2000      	movs	r0, #0
 8001b4c:	4718      	bx	r3
 8001b4e:	6840      	ldr	r0, [r0, #4]
 8001b50:	b118      	cbz	r0, 8001b5a <acc_processing_destroy+0x2a>
 8001b52:	68c3      	ldr	r3, [r0, #12]
 8001b54:	4798      	blx	r3
 8001b56:	2300      	movs	r3, #0
 8001b58:	6063      	str	r3, [r4, #4]
 8001b5a:	2300      	movs	r3, #0
 8001b5c:	6023      	str	r3, [r4, #0]
 8001b5e:	4620      	mov	r0, r4
 8001b60:	e8bd 4010 	ldmia.w	sp!, {r4, lr}
 8001b64:	f7ff bb82 	b.w	800126c <acc_rss_integration_mem_free>
 8001b68:	1337b00d 	.word	0x1337b00d
 8001b6c:	200000ac 	.word	0x200000ac
 8001b70:	0800fc0c 	.word	0x0800fc0c
 8001b74:	0800fc28 	.word	0x0800fc28

08001b78 <acc_config_get_settings>:
 8001b78:	b508      	push	{r3, lr}
 8001b7a:	b118      	cbz	r0, 8001b84 <acc_config_get_settings+0xc>
 8001b7c:	4b06      	ldr	r3, [pc, #24]	; (8001b98 <acc_config_get_settings+0x20>)
 8001b7e:	6802      	ldr	r2, [r0, #0]
 8001b80:	429a      	cmp	r2, r3
 8001b82:	d007      	beq.n	8001b94 <acc_config_get_settings+0x1c>
 8001b84:	4b05      	ldr	r3, [pc, #20]	; (8001b9c <acc_config_get_settings+0x24>)
 8001b86:	4a06      	ldr	r2, [pc, #24]	; (8001ba0 <acc_config_get_settings+0x28>)
 8001b88:	6bdb      	ldr	r3, [r3, #60]	; 0x3c
 8001b8a:	4906      	ldr	r1, [pc, #24]	; (8001ba4 <acc_config_get_settings+0x2c>)
 8001b8c:	2000      	movs	r0, #0
 8001b8e:	4798      	blx	r3
 8001b90:	2000      	movs	r0, #0
 8001b92:	bd08      	pop	{r3, pc}
 8001b94:	3004      	adds	r0, #4
 8001b96:	bd08      	pop	{r3, pc}
 8001b98:	1337b00f 	.word	0x1337b00f
 8001b9c:	200000ac 	.word	0x200000ac
 8001ba0:	0800fc34 	.word	0x0800fc34
 8001ba4:	0800fc4c 	.word	0x0800fc4c

08001ba8 <UART_DMAAbortOnError>:
 8001ba8:	6a83      	ldr	r3, [r0, #40]	; 0x28
 8001baa:	2200      	movs	r2, #0
 8001bac:	f8a3 205a 	strh.w	r2, [r3, #90]	; 0x5a
 8001bb0:	f8a3 2052 	strh.w	r2, [r3, #82]	; 0x52
 8001bb4:	4770      	bx	lr
 8001bb6:	bf00      	nop

08001bb8 <SPI_DMAError>:
 8001bb8:	6a83      	ldr	r3, [r0, #40]	; 0x28
 8001bba:	6819      	ldr	r1, [r3, #0]
 8001bbc:	684a      	ldr	r2, [r1, #4]
 8001bbe:	f022 0203 	bic.w	r2, r2, #3
 8001bc2:	b410      	push	{r4}
 8001bc4:	604a      	str	r2, [r1, #4]
 8001bc6:	6e1a      	ldr	r2, [r3, #96]	; 0x60
 8001bc8:	2401      	movs	r4, #1
 8001bca:	f042 0210 	orr.w	r2, r2, #16
 8001bce:	661a      	str	r2, [r3, #96]	; 0x60
 8001bd0:	f883 405d 	strb.w	r4, [r3, #93]	; 0x5d
 8001bd4:	f85d 4b04 	ldr.w	r4, [sp], #4
 8001bd8:	4770      	bx	lr
 8001bda:	bf00      	nop

08001bdc <SPI_DMAHalfReceiveCplt>:
 8001bdc:	4770      	bx	lr
 8001bde:	bf00      	nop

08001be0 <SPI_DMAHalfTransmitReceiveCplt>:
 8001be0:	4770      	bx	lr
 8001be2:	bf00      	nop

08001be4 <SPI_DMATransmitReceiveCplt>:
 8001be4:	b570      	push	{r4, r5, r6, lr}
 8001be6:	6803      	ldr	r3, [r0, #0]
 8001be8:	4d1b      	ldr	r5, [pc, #108]	; (8001c58 <SPI_DMATransmitReceiveCplt+0x74>)
 8001bea:	682e      	ldr	r6, [r5, #0]
 8001bec:	681b      	ldr	r3, [r3, #0]
 8001bee:	069b      	lsls	r3, r3, #26
 8001bf0:	d42e      	bmi.n	8001c50 <SPI_DMATransmitReceiveCplt+0x6c>
 8001bf2:	6a84      	ldr	r4, [r0, #40]	; 0x28
 8001bf4:	6822      	ldr	r2, [r4, #0]
 8001bf6:	6853      	ldr	r3, [r2, #4]
 8001bf8:	f023 0320 	bic.w	r3, r3, #32
 8001bfc:	6053      	str	r3, [r2, #4]
 8001bfe:	4620      	mov	r0, r4
 8001c00:	4632      	mov	r2, r6
 8001c02:	f44f 51c0 	mov.w	r1, #6144	; 0x1800
 8001c06:	f7fe febb 	bl	8000980 <SPI_WaitFifoStateUntilTimeout.constprop.0>
 8001c0a:	b958      	cbnz	r0, 8001c24 <SPI_DMATransmitReceiveCplt+0x40>
 8001c0c:	4631      	mov	r1, r6
 8001c0e:	4620      	mov	r0, r4
 8001c10:	f7fe ff1e 	bl	8000a50 <SPI_WaitFlagStateUntilTimeout.constprop.0>
 8001c14:	b930      	cbnz	r0, 8001c24 <SPI_DMATransmitReceiveCplt+0x40>
 8001c16:	4632      	mov	r2, r6
 8001c18:	f44f 61c0 	mov.w	r1, #1536	; 0x600
 8001c1c:	4620      	mov	r0, r4
 8001c1e:	f7fe feaf 	bl	8000980 <SPI_WaitFifoStateUntilTimeout.constprop.0>
 8001c22:	b138      	cbz	r0, 8001c34 <SPI_DMATransmitReceiveCplt+0x50>
 8001c24:	6e23      	ldr	r3, [r4, #96]	; 0x60
 8001c26:	f043 0320 	orr.w	r3, r3, #32
 8001c2a:	6623      	str	r3, [r4, #96]	; 0x60
 8001c2c:	6e23      	ldr	r3, [r4, #96]	; 0x60
 8001c2e:	f043 0320 	orr.w	r3, r3, #32
 8001c32:	6623      	str	r3, [r4, #96]	; 0x60
 8001c34:	6821      	ldr	r1, [r4, #0]
 8001c36:	684b      	ldr	r3, [r1, #4]
 8001c38:	2200      	movs	r2, #0
 8001c3a:	f023 0303 	bic.w	r3, r3, #3
 8001c3e:	2001      	movs	r0, #1
 8001c40:	604b      	str	r3, [r1, #4]
 8001c42:	87e2      	strh	r2, [r4, #62]	; 0x3e
 8001c44:	f8a4 2046 	strh.w	r2, [r4, #70]	; 0x46
 8001c48:	f884 005d 	strb.w	r0, [r4, #93]	; 0x5d
 8001c4c:	6e23      	ldr	r3, [r4, #96]	; 0x60
 8001c4e:	b913      	cbnz	r3, 8001c56 <SPI_DMATransmitReceiveCplt+0x72>
 8001c50:	2301      	movs	r3, #1
 8001c52:	f885 3044 	strb.w	r3, [r5, #68]	; 0x44
 8001c56:	bd70      	pop	{r4, r5, r6, pc}
 8001c58:	200000ac 	.word	0x200000ac

08001c5c <SPI_DMAReceiveCplt>:
 8001c5c:	b538      	push	{r3, r4, r5, lr}
 8001c5e:	4a2e      	ldr	r2, [pc, #184]	; (8001d18 <SPI_DMAReceiveCplt+0xbc>)
 8001c60:	6803      	ldr	r3, [r0, #0]
 8001c62:	6815      	ldr	r5, [r2, #0]
 8001c64:	681b      	ldr	r3, [r3, #0]
 8001c66:	069b      	lsls	r3, r3, #26
 8001c68:	d41f      	bmi.n	8001caa <SPI_DMAReceiveCplt+0x4e>
 8001c6a:	6a84      	ldr	r4, [r0, #40]	; 0x28
 8001c6c:	6823      	ldr	r3, [r4, #0]
 8001c6e:	68a2      	ldr	r2, [r4, #8]
 8001c70:	6858      	ldr	r0, [r3, #4]
 8001c72:	f020 0020 	bic.w	r0, r0, #32
 8001c76:	6058      	str	r0, [r3, #4]
 8001c78:	b1c2      	cbz	r2, 8001cac <SPI_DMAReceiveCplt+0x50>
 8001c7a:	6859      	ldr	r1, [r3, #4]
 8001c7c:	6860      	ldr	r0, [r4, #4]
 8001c7e:	f021 0101 	bic.w	r1, r1, #1
 8001c82:	f5b0 7f82 	cmp.w	r0, #260	; 0x104
 8001c86:	6059      	str	r1, [r3, #4]
 8001c88:	d035      	beq.n	8001cf6 <SPI_DMAReceiveCplt+0x9a>
 8001c8a:	4629      	mov	r1, r5
 8001c8c:	4620      	mov	r0, r4
 8001c8e:	f7fe fedf 	bl	8000a50 <SPI_WaitFlagStateUntilTimeout.constprop.0>
 8001c92:	b9c8      	cbnz	r0, 8001cc8 <SPI_DMAReceiveCplt+0x6c>
 8001c94:	6863      	ldr	r3, [r4, #4]
 8001c96:	f5b3 7f82 	cmp.w	r3, #260	; 0x104
 8001c9a:	d01c      	beq.n	8001cd6 <SPI_DMAReceiveCplt+0x7a>
 8001c9c:	2301      	movs	r3, #1
 8001c9e:	2200      	movs	r2, #0
 8001ca0:	f8a4 2046 	strh.w	r2, [r4, #70]	; 0x46
 8001ca4:	f884 305d 	strb.w	r3, [r4, #93]	; 0x5d
 8001ca8:	6e23      	ldr	r3, [r4, #96]	; 0x60
 8001caa:	bd38      	pop	{r3, r4, r5, pc}
 8001cac:	6862      	ldr	r2, [r4, #4]
 8001cae:	f5b2 7f82 	cmp.w	r2, #260	; 0x104
 8001cb2:	685a      	ldr	r2, [r3, #4]
 8001cb4:	d027      	beq.n	8001d06 <SPI_DMAReceiveCplt+0xaa>
 8001cb6:	f022 0201 	bic.w	r2, r2, #1
 8001cba:	605a      	str	r2, [r3, #4]
 8001cbc:	4629      	mov	r1, r5
 8001cbe:	4620      	mov	r0, r4
 8001cc0:	f7fe fec6 	bl	8000a50 <SPI_WaitFlagStateUntilTimeout.constprop.0>
 8001cc4:	2800      	cmp	r0, #0
 8001cc6:	d0e5      	beq.n	8001c94 <SPI_DMAReceiveCplt+0x38>
 8001cc8:	6e23      	ldr	r3, [r4, #96]	; 0x60
 8001cca:	f043 0320 	orr.w	r3, r3, #32
 8001cce:	6623      	str	r3, [r4, #96]	; 0x60
 8001cd0:	2320      	movs	r3, #32
 8001cd2:	6623      	str	r3, [r4, #96]	; 0x60
 8001cd4:	e7e2      	b.n	8001c9c <SPI_DMAReceiveCplt+0x40>
 8001cd6:	68a3      	ldr	r3, [r4, #8]
 8001cd8:	f5b3 4f00 	cmp.w	r3, #32768	; 0x8000
 8001cdc:	d002      	beq.n	8001ce4 <SPI_DMAReceiveCplt+0x88>
 8001cde:	f5b3 6f80 	cmp.w	r3, #1024	; 0x400
 8001ce2:	d1db      	bne.n	8001c9c <SPI_DMAReceiveCplt+0x40>
 8001ce4:	462a      	mov	r2, r5
 8001ce6:	f44f 61c0 	mov.w	r1, #1536	; 0x600
 8001cea:	4620      	mov	r0, r4
 8001cec:	f7fe fe48 	bl	8000980 <SPI_WaitFifoStateUntilTimeout.constprop.0>
 8001cf0:	2800      	cmp	r0, #0
 8001cf2:	d0d3      	beq.n	8001c9c <SPI_DMAReceiveCplt+0x40>
 8001cf4:	e7e8      	b.n	8001cc8 <SPI_DMAReceiveCplt+0x6c>
 8001cf6:	f5b2 4f00 	cmp.w	r2, #32768	; 0x8000
 8001cfa:	d108      	bne.n	8001d0e <SPI_DMAReceiveCplt+0xb2>
 8001cfc:	681a      	ldr	r2, [r3, #0]
 8001cfe:	f022 0240 	bic.w	r2, r2, #64	; 0x40
 8001d02:	601a      	str	r2, [r3, #0]
 8001d04:	e7c1      	b.n	8001c8a <SPI_DMAReceiveCplt+0x2e>
 8001d06:	f022 0203 	bic.w	r2, r2, #3
 8001d0a:	605a      	str	r2, [r3, #4]
 8001d0c:	e7bd      	b.n	8001c8a <SPI_DMAReceiveCplt+0x2e>
 8001d0e:	f5b2 6f80 	cmp.w	r2, #1024	; 0x400
 8001d12:	d0f3      	beq.n	8001cfc <SPI_DMAReceiveCplt+0xa0>
 8001d14:	e7b9      	b.n	8001c8a <SPI_DMAReceiveCplt+0x2e>
 8001d16:	bf00      	nop
 8001d18:	200000ac 	.word	0x200000ac

08001d1c <RCCEx_PLLSAI1_Config>:
 8001d1c:	4a44      	ldr	r2, [pc, #272]	; (8001e30 <RCCEx_PLLSAI1_Config+0x114>)
 8001d1e:	68d3      	ldr	r3, [r2, #12]
 8001d20:	b430      	push	{r4, r5}
 8001d22:	079c      	lsls	r4, r3, #30
 8001d24:	d008      	beq.n	8001d38 <RCCEx_PLLSAI1_Config+0x1c>
 8001d26:	68d3      	ldr	r3, [r2, #12]
 8001d28:	6804      	ldr	r4, [r0, #0]
 8001d2a:	f003 0303 	and.w	r3, r3, #3
 8001d2e:	42a3      	cmp	r3, r4
 8001d30:	d047      	beq.n	8001dc2 <RCCEx_PLLSAI1_Config+0xa6>
 8001d32:	2001      	movs	r0, #1
 8001d34:	bc30      	pop	{r4, r5}
 8001d36:	4770      	bx	lr
 8001d38:	6803      	ldr	r3, [r0, #0]
 8001d3a:	2b02      	cmp	r3, #2
 8001d3c:	d052      	beq.n	8001de4 <RCCEx_PLLSAI1_Config+0xc8>
 8001d3e:	2b03      	cmp	r3, #3
 8001d40:	d049      	beq.n	8001dd6 <RCCEx_PLLSAI1_Config+0xba>
 8001d42:	2b01      	cmp	r3, #1
 8001d44:	d1f5      	bne.n	8001d32 <RCCEx_PLLSAI1_Config+0x16>
 8001d46:	6812      	ldr	r2, [r2, #0]
 8001d48:	0792      	lsls	r2, r2, #30
 8001d4a:	d5f2      	bpl.n	8001d32 <RCCEx_PLLSAI1_Config+0x16>
 8001d4c:	4d38      	ldr	r5, [pc, #224]	; (8001e30 <RCCEx_PLLSAI1_Config+0x114>)
 8001d4e:	6844      	ldr	r4, [r0, #4]
 8001d50:	68ea      	ldr	r2, [r5, #12]
 8001d52:	f022 0273 	bic.w	r2, r2, #115	; 0x73
 8001d56:	4313      	orrs	r3, r2
 8001d58:	3c01      	subs	r4, #1
 8001d5a:	ea43 1304 	orr.w	r3, r3, r4, lsl #4
 8001d5e:	60eb      	str	r3, [r5, #12]
 8001d60:	4c33      	ldr	r4, [pc, #204]	; (8001e30 <RCCEx_PLLSAI1_Config+0x114>)
 8001d62:	4a34      	ldr	r2, [pc, #208]	; (8001e34 <RCCEx_PLLSAI1_Config+0x118>)
 8001d64:	6823      	ldr	r3, [r4, #0]
 8001d66:	f023 6380 	bic.w	r3, r3, #67108864	; 0x4000000
 8001d6a:	6023      	str	r3, [r4, #0]
 8001d6c:	6815      	ldr	r5, [r2, #0]
 8001d6e:	e003      	b.n	8001d78 <RCCEx_PLLSAI1_Config+0x5c>
 8001d70:	6813      	ldr	r3, [r2, #0]
 8001d72:	1b5b      	subs	r3, r3, r5
 8001d74:	2b02      	cmp	r3, #2
 8001d76:	d839      	bhi.n	8001dec <RCCEx_PLLSAI1_Config+0xd0>
 8001d78:	6823      	ldr	r3, [r4, #0]
 8001d7a:	011b      	lsls	r3, r3, #4
 8001d7c:	d4f8      	bmi.n	8001d70 <RCCEx_PLLSAI1_Config+0x54>
 8001d7e:	2900      	cmp	r1, #0
 8001d80:	d136      	bne.n	8001df0 <RCCEx_PLLSAI1_Config+0xd4>
 8001d82:	e9d0 5302 	ldrd	r5, r3, [r0, #8]
 8001d86:	6921      	ldr	r1, [r4, #16]
 8001d88:	06db      	lsls	r3, r3, #27
 8001d8a:	f021 4178 	bic.w	r1, r1, #4160749568	; 0xf8000000
 8001d8e:	f421 41fe 	bic.w	r1, r1, #32512	; 0x7f00
 8001d92:	ea43 2305 	orr.w	r3, r3, r5, lsl #8
 8001d96:	430b      	orrs	r3, r1
 8001d98:	6123      	str	r3, [r4, #16]
 8001d9a:	4925      	ldr	r1, [pc, #148]	; (8001e30 <RCCEx_PLLSAI1_Config+0x114>)
 8001d9c:	680b      	ldr	r3, [r1, #0]
 8001d9e:	f043 6380 	orr.w	r3, r3, #67108864	; 0x4000000
 8001da2:	600b      	str	r3, [r1, #0]
 8001da4:	6814      	ldr	r4, [r2, #0]
 8001da6:	e003      	b.n	8001db0 <RCCEx_PLLSAI1_Config+0x94>
 8001da8:	6813      	ldr	r3, [r2, #0]
 8001daa:	1b1b      	subs	r3, r3, r4
 8001dac:	2b02      	cmp	r3, #2
 8001dae:	d81d      	bhi.n	8001dec <RCCEx_PLLSAI1_Config+0xd0>
 8001db0:	680b      	ldr	r3, [r1, #0]
 8001db2:	011b      	lsls	r3, r3, #4
 8001db4:	d5f8      	bpl.n	8001da8 <RCCEx_PLLSAI1_Config+0x8c>
 8001db6:	6982      	ldr	r2, [r0, #24]
 8001db8:	690b      	ldr	r3, [r1, #16]
 8001dba:	4313      	orrs	r3, r2
 8001dbc:	610b      	str	r3, [r1, #16]
 8001dbe:	2000      	movs	r0, #0
 8001dc0:	e7b8      	b.n	8001d34 <RCCEx_PLLSAI1_Config+0x18>
 8001dc2:	2b00      	cmp	r3, #0
 8001dc4:	d0b5      	beq.n	8001d32 <RCCEx_PLLSAI1_Config+0x16>
 8001dc6:	68d3      	ldr	r3, [r2, #12]
 8001dc8:	6842      	ldr	r2, [r0, #4]
 8001dca:	f3c3 1302 	ubfx	r3, r3, #4, #3
 8001dce:	3301      	adds	r3, #1
 8001dd0:	4293      	cmp	r3, r2
 8001dd2:	d1ae      	bne.n	8001d32 <RCCEx_PLLSAI1_Config+0x16>
 8001dd4:	e7c4      	b.n	8001d60 <RCCEx_PLLSAI1_Config+0x44>
 8001dd6:	6814      	ldr	r4, [r2, #0]
 8001dd8:	03a4      	lsls	r4, r4, #14
 8001dda:	d4b7      	bmi.n	8001d4c <RCCEx_PLLSAI1_Config+0x30>
 8001ddc:	6812      	ldr	r2, [r2, #0]
 8001dde:	0352      	lsls	r2, r2, #13
 8001de0:	d5a7      	bpl.n	8001d32 <RCCEx_PLLSAI1_Config+0x16>
 8001de2:	e7b3      	b.n	8001d4c <RCCEx_PLLSAI1_Config+0x30>
 8001de4:	6812      	ldr	r2, [r2, #0]
 8001de6:	0555      	lsls	r5, r2, #21
 8001de8:	d5a3      	bpl.n	8001d32 <RCCEx_PLLSAI1_Config+0x16>
 8001dea:	e7af      	b.n	8001d4c <RCCEx_PLLSAI1_Config+0x30>
 8001dec:	2003      	movs	r0, #3
 8001dee:	e7a1      	b.n	8001d34 <RCCEx_PLLSAI1_Config+0x18>
 8001df0:	2901      	cmp	r1, #1
 8001df2:	6923      	ldr	r3, [r4, #16]
 8001df4:	d00d      	beq.n	8001e12 <RCCEx_PLLSAI1_Config+0xf6>
 8001df6:	6941      	ldr	r1, [r0, #20]
 8001df8:	6885      	ldr	r5, [r0, #8]
 8001dfa:	f023 63c0 	bic.w	r3, r3, #100663296	; 0x6000000
 8001dfe:	f423 43fe 	bic.w	r3, r3, #32512	; 0x7f00
 8001e02:	0849      	lsrs	r1, r1, #1
 8001e04:	ea43 2305 	orr.w	r3, r3, r5, lsl #8
 8001e08:	3901      	subs	r1, #1
 8001e0a:	ea43 6341 	orr.w	r3, r3, r1, lsl #25
 8001e0e:	6123      	str	r3, [r4, #16]
 8001e10:	e7c3      	b.n	8001d9a <RCCEx_PLLSAI1_Config+0x7e>
 8001e12:	6901      	ldr	r1, [r0, #16]
 8001e14:	6885      	ldr	r5, [r0, #8]
 8001e16:	f423 03c0 	bic.w	r3, r3, #6291456	; 0x600000
 8001e1a:	f423 43fe 	bic.w	r3, r3, #32512	; 0x7f00
 8001e1e:	0849      	lsrs	r1, r1, #1
 8001e20:	ea43 2305 	orr.w	r3, r3, r5, lsl #8
 8001e24:	3901      	subs	r1, #1
 8001e26:	ea43 5341 	orr.w	r3, r3, r1, lsl #21
 8001e2a:	6123      	str	r3, [r4, #16]
 8001e2c:	e7b5      	b.n	8001d9a <RCCEx_PLLSAI1_Config+0x7e>
 8001e2e:	bf00      	nop
 8001e30:	40021000 	.word	0x40021000
 8001e34:	200000ac 	.word	0x200000ac

08001e38 <HAL_RCCEx_PeriphCLKConfig>:
 8001e38:	b5f0      	push	{r4, r5, r6, r7, lr}
 8001e3a:	6803      	ldr	r3, [r0, #0]
 8001e3c:	f413 6700 	ands.w	r7, r3, #2048	; 0x800
 8001e40:	b083      	sub	sp, #12
 8001e42:	4604      	mov	r4, r0
 8001e44:	d00c      	beq.n	8001e60 <HAL_RCCEx_PeriphCLKConfig+0x28>
 8001e46:	6c41      	ldr	r1, [r0, #68]	; 0x44
 8001e48:	f5b1 0f00 	cmp.w	r1, #8388608	; 0x800000
 8001e4c:	f000 8132 	beq.w	80020b4 <HAL_RCCEx_PeriphCLKConfig+0x27c>
 8001e50:	f5b1 0f40 	cmp.w	r1, #12582912	; 0xc00000
 8001e54:	f000 8106 	beq.w	8002064 <HAL_RCCEx_PeriphCLKConfig+0x22c>
 8001e58:	2900      	cmp	r1, #0
 8001e5a:	f000 8123 	beq.w	80020a4 <HAL_RCCEx_PeriphCLKConfig+0x26c>
 8001e5e:	2701      	movs	r7, #1
 8001e60:	0398      	lsls	r0, r3, #14
 8001e62:	d54f      	bpl.n	8001f04 <HAL_RCCEx_PeriphCLKConfig+0xcc>
 8001e64:	4aa4      	ldr	r2, [pc, #656]	; (80020f8 <HAL_RCCEx_PeriphCLKConfig+0x2c0>)
 8001e66:	6d91      	ldr	r1, [r2, #88]	; 0x58
 8001e68:	00c9      	lsls	r1, r1, #3
 8001e6a:	f140 80ef 	bpl.w	800204c <HAL_RCCEx_PeriphCLKConfig+0x214>
 8001e6e:	2000      	movs	r0, #0
 8001e70:	49a2      	ldr	r1, [pc, #648]	; (80020fc <HAL_RCCEx_PeriphCLKConfig+0x2c4>)
 8001e72:	4da3      	ldr	r5, [pc, #652]	; (8002100 <HAL_RCCEx_PeriphCLKConfig+0x2c8>)
 8001e74:	680a      	ldr	r2, [r1, #0]
 8001e76:	f442 7280 	orr.w	r2, r2, #256	; 0x100
 8001e7a:	600a      	str	r2, [r1, #0]
 8001e7c:	682e      	ldr	r6, [r5, #0]
 8001e7e:	e004      	b.n	8001e8a <HAL_RCCEx_PeriphCLKConfig+0x52>
 8001e80:	682a      	ldr	r2, [r5, #0]
 8001e82:	1b92      	subs	r2, r2, r6
 8001e84:	2a02      	cmp	r2, #2
 8001e86:	f200 80f8 	bhi.w	800207a <HAL_RCCEx_PeriphCLKConfig+0x242>
 8001e8a:	680a      	ldr	r2, [r1, #0]
 8001e8c:	05d2      	lsls	r2, r2, #23
 8001e8e:	d5f7      	bpl.n	8001e80 <HAL_RCCEx_PeriphCLKConfig+0x48>
 8001e90:	bbaf      	cbnz	r7, 8001efe <HAL_RCCEx_PeriphCLKConfig+0xc6>
 8001e92:	4a99      	ldr	r2, [pc, #612]	; (80020f8 <HAL_RCCEx_PeriphCLKConfig+0x2c0>)
 8001e94:	6da6      	ldr	r6, [r4, #88]	; 0x58
 8001e96:	f8d2 1090 	ldr.w	r1, [r2, #144]	; 0x90
 8001e9a:	f411 7140 	ands.w	r1, r1, #768	; 0x300
 8001e9e:	d026      	beq.n	8001eee <HAL_RCCEx_PeriphCLKConfig+0xb6>
 8001ea0:	428e      	cmp	r6, r1
 8001ea2:	d024      	beq.n	8001eee <HAL_RCCEx_PeriphCLKConfig+0xb6>
 8001ea4:	f8d2 6090 	ldr.w	r6, [r2, #144]	; 0x90
 8001ea8:	f8d2 1090 	ldr.w	r1, [r2, #144]	; 0x90
 8001eac:	f441 3180 	orr.w	r1, r1, #65536	; 0x10000
 8001eb0:	f8c2 1090 	str.w	r1, [r2, #144]	; 0x90
 8001eb4:	f8d2 1090 	ldr.w	r1, [r2, #144]	; 0x90
 8001eb8:	f421 3180 	bic.w	r1, r1, #65536	; 0x10000
 8001ebc:	f8c2 1090 	str.w	r1, [r2, #144]	; 0x90
 8001ec0:	f426 7c40 	bic.w	ip, r6, #768	; 0x300
 8001ec4:	07f1      	lsls	r1, r6, #31
 8001ec6:	f8c2 c090 	str.w	ip, [r2, #144]	; 0x90
 8001eca:	d50f      	bpl.n	8001eec <HAL_RCCEx_PeriphCLKConfig+0xb4>
 8001ecc:	f8d5 c000 	ldr.w	ip, [r5]
 8001ed0:	4611      	mov	r1, r2
 8001ed2:	f241 3688 	movw	r6, #5000	; 0x1388
 8001ed6:	e005      	b.n	8001ee4 <HAL_RCCEx_PeriphCLKConfig+0xac>
 8001ed8:	682a      	ldr	r2, [r5, #0]
 8001eda:	eba2 020c 	sub.w	r2, r2, ip
 8001ede:	42b2      	cmp	r2, r6
 8001ee0:	f200 80cb 	bhi.w	800207a <HAL_RCCEx_PeriphCLKConfig+0x242>
 8001ee4:	f8d1 2090 	ldr.w	r2, [r1, #144]	; 0x90
 8001ee8:	0792      	lsls	r2, r2, #30
 8001eea:	d5f5      	bpl.n	8001ed8 <HAL_RCCEx_PeriphCLKConfig+0xa0>
 8001eec:	6da6      	ldr	r6, [r4, #88]	; 0x58
 8001eee:	4982      	ldr	r1, [pc, #520]	; (80020f8 <HAL_RCCEx_PeriphCLKConfig+0x2c0>)
 8001ef0:	f8d1 2090 	ldr.w	r2, [r1, #144]	; 0x90
 8001ef4:	f422 7240 	bic.w	r2, r2, #768	; 0x300
 8001ef8:	4332      	orrs	r2, r6
 8001efa:	f8c1 2090 	str.w	r2, [r1, #144]	; 0x90
 8001efe:	2800      	cmp	r0, #0
 8001f00:	f040 80bf 	bne.w	8002082 <HAL_RCCEx_PeriphCLKConfig+0x24a>
 8001f04:	07d9      	lsls	r1, r3, #31
 8001f06:	d508      	bpl.n	8001f1a <HAL_RCCEx_PeriphCLKConfig+0xe2>
 8001f08:	497b      	ldr	r1, [pc, #492]	; (80020f8 <HAL_RCCEx_PeriphCLKConfig+0x2c0>)
 8001f0a:	6a20      	ldr	r0, [r4, #32]
 8001f0c:	f8d1 2088 	ldr.w	r2, [r1, #136]	; 0x88
 8001f10:	f022 0203 	bic.w	r2, r2, #3
 8001f14:	4302      	orrs	r2, r0
 8001f16:	f8c1 2088 	str.w	r2, [r1, #136]	; 0x88
 8001f1a:	079a      	lsls	r2, r3, #30
 8001f1c:	d508      	bpl.n	8001f30 <HAL_RCCEx_PeriphCLKConfig+0xf8>
 8001f1e:	4976      	ldr	r1, [pc, #472]	; (80020f8 <HAL_RCCEx_PeriphCLKConfig+0x2c0>)
 8001f20:	6a60      	ldr	r0, [r4, #36]	; 0x24
 8001f22:	f8d1 2088 	ldr.w	r2, [r1, #136]	; 0x88
 8001f26:	f022 020c 	bic.w	r2, r2, #12
 8001f2a:	4302      	orrs	r2, r0
 8001f2c:	f8c1 2088 	str.w	r2, [r1, #136]	; 0x88
 8001f30:	075e      	lsls	r6, r3, #29
 8001f32:	d508      	bpl.n	8001f46 <HAL_RCCEx_PeriphCLKConfig+0x10e>
 8001f34:	4970      	ldr	r1, [pc, #448]	; (80020f8 <HAL_RCCEx_PeriphCLKConfig+0x2c0>)
 8001f36:	6aa0      	ldr	r0, [r4, #40]	; 0x28
 8001f38:	f8d1 2088 	ldr.w	r2, [r1, #136]	; 0x88
 8001f3c:	f022 0230 	bic.w	r2, r2, #48	; 0x30
 8001f40:	4302      	orrs	r2, r0
 8001f42:	f8c1 2088 	str.w	r2, [r1, #136]	; 0x88
 8001f46:	069d      	lsls	r5, r3, #26
 8001f48:	d508      	bpl.n	8001f5c <HAL_RCCEx_PeriphCLKConfig+0x124>
 8001f4a:	496b      	ldr	r1, [pc, #428]	; (80020f8 <HAL_RCCEx_PeriphCLKConfig+0x2c0>)
 8001f4c:	6ae0      	ldr	r0, [r4, #44]	; 0x2c
 8001f4e:	f8d1 2088 	ldr.w	r2, [r1, #136]	; 0x88
 8001f52:	f422 6240 	bic.w	r2, r2, #3072	; 0xc00
 8001f56:	4302      	orrs	r2, r0
 8001f58:	f8c1 2088 	str.w	r2, [r1, #136]	; 0x88
 8001f5c:	0598      	lsls	r0, r3, #22
 8001f5e:	d508      	bpl.n	8001f72 <HAL_RCCEx_PeriphCLKConfig+0x13a>
 8001f60:	4965      	ldr	r1, [pc, #404]	; (80020f8 <HAL_RCCEx_PeriphCLKConfig+0x2c0>)
 8001f62:	6be0      	ldr	r0, [r4, #60]	; 0x3c
 8001f64:	f8d1 2088 	ldr.w	r2, [r1, #136]	; 0x88
 8001f68:	f422 2240 	bic.w	r2, r2, #786432	; 0xc0000
 8001f6c:	4302      	orrs	r2, r0
 8001f6e:	f8c1 2088 	str.w	r2, [r1, #136]	; 0x88
 8001f72:	0559      	lsls	r1, r3, #21
 8001f74:	d508      	bpl.n	8001f88 <HAL_RCCEx_PeriphCLKConfig+0x150>
 8001f76:	4960      	ldr	r1, [pc, #384]	; (80020f8 <HAL_RCCEx_PeriphCLKConfig+0x2c0>)
 8001f78:	6c20      	ldr	r0, [r4, #64]	; 0x40
 8001f7a:	f8d1 2088 	ldr.w	r2, [r1, #136]	; 0x88
 8001f7e:	f422 1240 	bic.w	r2, r2, #3145728	; 0x300000
 8001f82:	4302      	orrs	r2, r0
 8001f84:	f8c1 2088 	str.w	r2, [r1, #136]	; 0x88
 8001f88:	065a      	lsls	r2, r3, #25
 8001f8a:	d508      	bpl.n	8001f9e <HAL_RCCEx_PeriphCLKConfig+0x166>
 8001f8c:	495a      	ldr	r1, [pc, #360]	; (80020f8 <HAL_RCCEx_PeriphCLKConfig+0x2c0>)
 8001f8e:	6b20      	ldr	r0, [r4, #48]	; 0x30
 8001f90:	f8d1 2088 	ldr.w	r2, [r1, #136]	; 0x88
 8001f94:	f422 5240 	bic.w	r2, r2, #12288	; 0x3000
 8001f98:	4302      	orrs	r2, r0
 8001f9a:	f8c1 2088 	str.w	r2, [r1, #136]	; 0x88
 8001f9e:	061e      	lsls	r6, r3, #24
 8001fa0:	d508      	bpl.n	8001fb4 <HAL_RCCEx_PeriphCLKConfig+0x17c>
 8001fa2:	4955      	ldr	r1, [pc, #340]	; (80020f8 <HAL_RCCEx_PeriphCLKConfig+0x2c0>)
 8001fa4:	6b60      	ldr	r0, [r4, #52]	; 0x34
 8001fa6:	f8d1 2088 	ldr.w	r2, [r1, #136]	; 0x88
 8001faa:	f422 4240 	bic.w	r2, r2, #49152	; 0xc000
 8001fae:	4302      	orrs	r2, r0
 8001fb0:	f8c1 2088 	str.w	r2, [r1, #136]	; 0x88
 8001fb4:	05dd      	lsls	r5, r3, #23
 8001fb6:	d508      	bpl.n	8001fca <HAL_RCCEx_PeriphCLKConfig+0x192>
 8001fb8:	494f      	ldr	r1, [pc, #316]	; (80020f8 <HAL_RCCEx_PeriphCLKConfig+0x2c0>)
 8001fba:	6ba0      	ldr	r0, [r4, #56]	; 0x38
 8001fbc:	f8d1 2088 	ldr.w	r2, [r1, #136]	; 0x88
 8001fc0:	f422 3240 	bic.w	r2, r2, #196608	; 0x30000
 8001fc4:	4302      	orrs	r2, r0
 8001fc6:	f8c1 2088 	str.w	r2, [r1, #136]	; 0x88
 8001fca:	0318      	lsls	r0, r3, #12
 8001fcc:	d50e      	bpl.n	8001fec <HAL_RCCEx_PeriphCLKConfig+0x1b4>
 8001fce:	4a4a      	ldr	r2, [pc, #296]	; (80020f8 <HAL_RCCEx_PeriphCLKConfig+0x2c0>)
 8001fd0:	6ca1      	ldr	r1, [r4, #72]	; 0x48
 8001fd2:	f8d2 3088 	ldr.w	r3, [r2, #136]	; 0x88
 8001fd6:	f023 6340 	bic.w	r3, r3, #201326592	; 0xc000000
 8001fda:	430b      	orrs	r3, r1
 8001fdc:	f1b1 6f00 	cmp.w	r1, #134217728	; 0x8000000
 8001fe0:	f8c2 3088 	str.w	r3, [r2, #136]	; 0x88
 8001fe4:	d053      	beq.n	800208e <HAL_RCCEx_PeriphCLKConfig+0x256>
 8001fe6:	f1b1 6f80 	cmp.w	r1, #67108864	; 0x4000000
 8001fea:	d073      	beq.n	80020d4 <HAL_RCCEx_PeriphCLKConfig+0x29c>
 8001fec:	6823      	ldr	r3, [r4, #0]
 8001fee:	0359      	lsls	r1, r3, #13
 8001ff0:	d50f      	bpl.n	8002012 <HAL_RCCEx_PeriphCLKConfig+0x1da>
 8001ff2:	4a41      	ldr	r2, [pc, #260]	; (80020f8 <HAL_RCCEx_PeriphCLKConfig+0x2c0>)
 8001ff4:	6ce1      	ldr	r1, [r4, #76]	; 0x4c
 8001ff6:	f8d2 3088 	ldr.w	r3, [r2, #136]	; 0x88
 8001ffa:	f023 6340 	bic.w	r3, r3, #201326592	; 0xc000000
 8001ffe:	430b      	orrs	r3, r1
 8002000:	f1b1 6f00 	cmp.w	r1, #134217728	; 0x8000000
 8002004:	f8c2 3088 	str.w	r3, [r2, #136]	; 0x88
 8002008:	d046      	beq.n	8002098 <HAL_RCCEx_PeriphCLKConfig+0x260>
 800200a:	f1b1 6f80 	cmp.w	r1, #67108864	; 0x4000000
 800200e:	d069      	beq.n	80020e4 <HAL_RCCEx_PeriphCLKConfig+0x2ac>
 8002010:	6823      	ldr	r3, [r4, #0]
 8002012:	045a      	lsls	r2, r3, #17
 8002014:	d50c      	bpl.n	8002030 <HAL_RCCEx_PeriphCLKConfig+0x1f8>
 8002016:	4938      	ldr	r1, [pc, #224]	; (80020f8 <HAL_RCCEx_PeriphCLKConfig+0x2c0>)
 8002018:	6d22      	ldr	r2, [r4, #80]	; 0x50
 800201a:	f8d1 3088 	ldr.w	r3, [r1, #136]	; 0x88
 800201e:	f023 5340 	bic.w	r3, r3, #805306368	; 0x30000000
 8002022:	4313      	orrs	r3, r2
 8002024:	f1b2 5f80 	cmp.w	r2, #268435456	; 0x10000000
 8002028:	f8c1 3088 	str.w	r3, [r1, #136]	; 0x88
 800202c:	d049      	beq.n	80020c2 <HAL_RCCEx_PeriphCLKConfig+0x28a>
 800202e:	6823      	ldr	r3, [r4, #0]
 8002030:	041b      	lsls	r3, r3, #16
 8002032:	d508      	bpl.n	8002046 <HAL_RCCEx_PeriphCLKConfig+0x20e>
 8002034:	4a30      	ldr	r2, [pc, #192]	; (80020f8 <HAL_RCCEx_PeriphCLKConfig+0x2c0>)
 8002036:	6d61      	ldr	r1, [r4, #84]	; 0x54
 8002038:	f8d2 3088 	ldr.w	r3, [r2, #136]	; 0x88
 800203c:	f023 4380 	bic.w	r3, r3, #1073741824	; 0x40000000
 8002040:	430b      	orrs	r3, r1
 8002042:	f8c2 3088 	str.w	r3, [r2, #136]	; 0x88
 8002046:	4638      	mov	r0, r7
 8002048:	b003      	add	sp, #12
 800204a:	bdf0      	pop	{r4, r5, r6, r7, pc}
 800204c:	6d91      	ldr	r1, [r2, #88]	; 0x58
 800204e:	f041 5180 	orr.w	r1, r1, #268435456	; 0x10000000
 8002052:	6591      	str	r1, [r2, #88]	; 0x58
 8002054:	6d92      	ldr	r2, [r2, #88]	; 0x58
 8002056:	f002 5280 	and.w	r2, r2, #268435456	; 0x10000000
 800205a:	9201      	str	r2, [sp, #4]
 800205c:	9a01      	ldr	r2, [sp, #4]
 800205e:	2001      	movs	r0, #1
 8002060:	e706      	b.n	8001e70 <HAL_RCCEx_PeriphCLKConfig+0x38>
 8002062:	6c61      	ldr	r1, [r4, #68]	; 0x44
 8002064:	4a24      	ldr	r2, [pc, #144]	; (80020f8 <HAL_RCCEx_PeriphCLKConfig+0x2c0>)
 8002066:	f8d2 3088 	ldr.w	r3, [r2, #136]	; 0x88
 800206a:	f423 0340 	bic.w	r3, r3, #12582912	; 0xc00000
 800206e:	4319      	orrs	r1, r3
 8002070:	f8c2 1088 	str.w	r1, [r2, #136]	; 0x88
 8002074:	6823      	ldr	r3, [r4, #0]
 8002076:	2700      	movs	r7, #0
 8002078:	e6f2      	b.n	8001e60 <HAL_RCCEx_PeriphCLKConfig+0x28>
 800207a:	2703      	movs	r7, #3
 800207c:	2800      	cmp	r0, #0
 800207e:	f43f af41 	beq.w	8001f04 <HAL_RCCEx_PeriphCLKConfig+0xcc>
 8002082:	491d      	ldr	r1, [pc, #116]	; (80020f8 <HAL_RCCEx_PeriphCLKConfig+0x2c0>)
 8002084:	6d8a      	ldr	r2, [r1, #88]	; 0x58
 8002086:	f022 5280 	bic.w	r2, r2, #268435456	; 0x10000000
 800208a:	658a      	str	r2, [r1, #88]	; 0x58
 800208c:	e73a      	b.n	8001f04 <HAL_RCCEx_PeriphCLKConfig+0xcc>
 800208e:	68d3      	ldr	r3, [r2, #12]
 8002090:	f443 1380 	orr.w	r3, r3, #1048576	; 0x100000
 8002094:	60d3      	str	r3, [r2, #12]
 8002096:	e7a9      	b.n	8001fec <HAL_RCCEx_PeriphCLKConfig+0x1b4>
 8002098:	68d3      	ldr	r3, [r2, #12]
 800209a:	f443 1380 	orr.w	r3, r3, #1048576	; 0x100000
 800209e:	60d3      	str	r3, [r2, #12]
 80020a0:	6823      	ldr	r3, [r4, #0]
 80020a2:	e7b6      	b.n	8002012 <HAL_RCCEx_PeriphCLKConfig+0x1da>
 80020a4:	3004      	adds	r0, #4
 80020a6:	f7ff fe39 	bl	8001d1c <RCCEx_PLLSAI1_Config>
 80020aa:	4607      	mov	r7, r0
 80020ac:	2800      	cmp	r0, #0
 80020ae:	d0d8      	beq.n	8002062 <HAL_RCCEx_PeriphCLKConfig+0x22a>
 80020b0:	6823      	ldr	r3, [r4, #0]
 80020b2:	e6d5      	b.n	8001e60 <HAL_RCCEx_PeriphCLKConfig+0x28>
 80020b4:	4a10      	ldr	r2, [pc, #64]	; (80020f8 <HAL_RCCEx_PeriphCLKConfig+0x2c0>)
 80020b6:	68d3      	ldr	r3, [r2, #12]
 80020b8:	f443 3380 	orr.w	r3, r3, #65536	; 0x10000
 80020bc:	60d3      	str	r3, [r2, #12]
 80020be:	6c41      	ldr	r1, [r0, #68]	; 0x44
 80020c0:	e7d0      	b.n	8002064 <HAL_RCCEx_PeriphCLKConfig+0x22c>
 80020c2:	2102      	movs	r1, #2
 80020c4:	1d20      	adds	r0, r4, #4
 80020c6:	f7ff fe29 	bl	8001d1c <RCCEx_PLLSAI1_Config>
 80020ca:	6823      	ldr	r3, [r4, #0]
 80020cc:	2800      	cmp	r0, #0
 80020ce:	d0af      	beq.n	8002030 <HAL_RCCEx_PeriphCLKConfig+0x1f8>
 80020d0:	4607      	mov	r7, r0
 80020d2:	e7ad      	b.n	8002030 <HAL_RCCEx_PeriphCLKConfig+0x1f8>
 80020d4:	2101      	movs	r1, #1
 80020d6:	1d20      	adds	r0, r4, #4
 80020d8:	f7ff fe20 	bl	8001d1c <RCCEx_PLLSAI1_Config>
 80020dc:	2800      	cmp	r0, #0
 80020de:	bf18      	it	ne
 80020e0:	4607      	movne	r7, r0
 80020e2:	e783      	b.n	8001fec <HAL_RCCEx_PeriphCLKConfig+0x1b4>
 80020e4:	2101      	movs	r1, #1
 80020e6:	1d20      	adds	r0, r4, #4
 80020e8:	f7ff fe18 	bl	8001d1c <RCCEx_PLLSAI1_Config>
 80020ec:	6823      	ldr	r3, [r4, #0]
 80020ee:	2800      	cmp	r0, #0
 80020f0:	d08f      	beq.n	8002012 <HAL_RCCEx_PeriphCLKConfig+0x1da>
 80020f2:	4607      	mov	r7, r0
 80020f4:	e78d      	b.n	8002012 <HAL_RCCEx_PeriphCLKConfig+0x1da>
 80020f6:	bf00      	nop
 80020f8:	40021000 	.word	0x40021000
 80020fc:	40007000 	.word	0x40007000
 8002100:	200000ac 	.word	0x200000ac

08002104 <RCC_SetFlashLatencyFromMSIRange>:
 8002104:	491f      	ldr	r1, [pc, #124]	; (8002184 <RCC_SetFlashLatencyFromMSIRange+0x80>)
 8002106:	6d8b      	ldr	r3, [r1, #88]	; 0x58
 8002108:	00db      	lsls	r3, r3, #3
 800210a:	b082      	sub	sp, #8
 800210c:	d51d      	bpl.n	800214a <RCC_SetFlashLatencyFromMSIRange+0x46>
 800210e:	4b1e      	ldr	r3, [pc, #120]	; (8002188 <RCC_SetFlashLatencyFromMSIRange+0x84>)
 8002110:	681b      	ldr	r3, [r3, #0]
 8002112:	f403 63c0 	and.w	r3, r3, #1536	; 0x600
 8002116:	f5b3 7f00 	cmp.w	r3, #512	; 0x200
 800211a:	d028      	beq.n	800216e <RCC_SetFlashLatencyFromMSIRange+0x6a>
 800211c:	2880      	cmp	r0, #128	; 0x80
 800211e:	d812      	bhi.n	8002146 <RCC_SetFlashLatencyFromMSIRange+0x42>
 8002120:	d02e      	beq.n	8002180 <RCC_SetFlashLatencyFromMSIRange+0x7c>
 8002122:	f1a0 0370 	sub.w	r3, r0, #112	; 0x70
 8002126:	425a      	negs	r2, r3
 8002128:	415a      	adcs	r2, r3
 800212a:	4918      	ldr	r1, [pc, #96]	; (800218c <RCC_SetFlashLatencyFromMSIRange+0x88>)
 800212c:	680b      	ldr	r3, [r1, #0]
 800212e:	f023 0307 	bic.w	r3, r3, #7
 8002132:	4313      	orrs	r3, r2
 8002134:	600b      	str	r3, [r1, #0]
 8002136:	6808      	ldr	r0, [r1, #0]
 8002138:	f000 0007 	and.w	r0, r0, #7
 800213c:	1a80      	subs	r0, r0, r2
 800213e:	bf18      	it	ne
 8002140:	2001      	movne	r0, #1
 8002142:	b002      	add	sp, #8
 8002144:	4770      	bx	lr
 8002146:	2203      	movs	r2, #3
 8002148:	e7ef      	b.n	800212a <RCC_SetFlashLatencyFromMSIRange+0x26>
 800214a:	6d8b      	ldr	r3, [r1, #88]	; 0x58
 800214c:	4a0e      	ldr	r2, [pc, #56]	; (8002188 <RCC_SetFlashLatencyFromMSIRange+0x84>)
 800214e:	f043 5380 	orr.w	r3, r3, #268435456	; 0x10000000
 8002152:	658b      	str	r3, [r1, #88]	; 0x58
 8002154:	6d8b      	ldr	r3, [r1, #88]	; 0x58
 8002156:	f003 5380 	and.w	r3, r3, #268435456	; 0x10000000
 800215a:	9301      	str	r3, [sp, #4]
 800215c:	9b01      	ldr	r3, [sp, #4]
 800215e:	6813      	ldr	r3, [r2, #0]
 8002160:	6d8a      	ldr	r2, [r1, #88]	; 0x58
 8002162:	f022 5280 	bic.w	r2, r2, #268435456	; 0x10000000
 8002166:	f403 63c0 	and.w	r3, r3, #1536	; 0x600
 800216a:	658a      	str	r2, [r1, #88]	; 0x58
 800216c:	e7d3      	b.n	8002116 <RCC_SetFlashLatencyFromMSIRange+0x12>
 800216e:	2880      	cmp	r0, #128	; 0x80
 8002170:	d904      	bls.n	800217c <RCC_SetFlashLatencyFromMSIRange+0x78>
 8002172:	28a0      	cmp	r0, #160	; 0xa0
 8002174:	bf8c      	ite	hi
 8002176:	2202      	movhi	r2, #2
 8002178:	2201      	movls	r2, #1
 800217a:	e7d6      	b.n	800212a <RCC_SetFlashLatencyFromMSIRange+0x26>
 800217c:	2200      	movs	r2, #0
 800217e:	e7d4      	b.n	800212a <RCC_SetFlashLatencyFromMSIRange+0x26>
 8002180:	2202      	movs	r2, #2
 8002182:	e7d2      	b.n	800212a <RCC_SetFlashLatencyFromMSIRange+0x26>
 8002184:	40021000 	.word	0x40021000
 8002188:	40007000 	.word	0x40007000
 800218c:	40022000 	.word	0x40022000

08002190 <HAL_RCC_GetPCLK1Freq>:
 8002190:	4a06      	ldr	r2, [pc, #24]	; (80021ac <HAL_RCC_GetPCLK1Freq+0x1c>)
 8002192:	4b07      	ldr	r3, [pc, #28]	; (80021b0 <HAL_RCC_GetPCLK1Freq+0x20>)
 8002194:	6892      	ldr	r2, [r2, #8]
 8002196:	4907      	ldr	r1, [pc, #28]	; (80021b4 <HAL_RCC_GetPCLK1Freq+0x24>)
 8002198:	f3c2 2202 	ubfx	r2, r2, #8, #3
 800219c:	4413      	add	r3, r2
 800219e:	6808      	ldr	r0, [r1, #0]
 80021a0:	f893 3978 	ldrb.w	r3, [r3, #2424]	; 0x978
 80021a4:	f003 031f 	and.w	r3, r3, #31
 80021a8:	40d8      	lsrs	r0, r3
 80021aa:	4770      	bx	lr
 80021ac:	40021000 	.word	0x40021000
 80021b0:	0800b5e0 	.word	0x0800b5e0
 80021b4:	20000000 	.word	0x20000000

080021b8 <HAL_RCC_GetSysClockFreq>:
 80021b8:	4a26      	ldr	r2, [pc, #152]	; (8002254 <HAL_RCC_GetSysClockFreq+0x9c>)
 80021ba:	6893      	ldr	r3, [r2, #8]
 80021bc:	68d2      	ldr	r2, [r2, #12]
 80021be:	f013 030c 	ands.w	r3, r3, #12
 80021c2:	d008      	beq.n	80021d6 <HAL_RCC_GetSysClockFreq+0x1e>
 80021c4:	2b0c      	cmp	r3, #12
 80021c6:	d03a      	beq.n	800223e <HAL_RCC_GetSysClockFreq+0x86>
 80021c8:	2b04      	cmp	r3, #4
 80021ca:	d036      	beq.n	800223a <HAL_RCC_GetSysClockFreq+0x82>
 80021cc:	2b08      	cmp	r3, #8
 80021ce:	4822      	ldr	r0, [pc, #136]	; (8002258 <HAL_RCC_GetSysClockFreq+0xa0>)
 80021d0:	bf18      	it	ne
 80021d2:	2000      	movne	r0, #0
 80021d4:	4770      	bx	lr
 80021d6:	4a1f      	ldr	r2, [pc, #124]	; (8002254 <HAL_RCC_GetSysClockFreq+0x9c>)
 80021d8:	6811      	ldr	r1, [r2, #0]
 80021da:	0709      	lsls	r1, r1, #28
 80021dc:	bf54      	ite	pl
 80021de:	f8d2 1094 	ldrpl.w	r1, [r2, #148]	; 0x94
 80021e2:	6811      	ldrmi	r1, [r2, #0]
 80021e4:	4a1d      	ldr	r2, [pc, #116]	; (800225c <HAL_RCC_GetSysClockFreq+0xa4>)
 80021e6:	bf54      	ite	pl
 80021e8:	f3c1 2103 	ubfxpl	r1, r1, #8, #4
 80021ec:	f3c1 1103 	ubfxmi	r1, r1, #4, #4
 80021f0:	eb02 0281 	add.w	r2, r2, r1, lsl #2
 80021f4:	f8d2 0980 	ldr.w	r0, [r2, #2432]	; 0x980
 80021f8:	b303      	cbz	r3, 800223c <HAL_RCC_GetSysClockFreq+0x84>
 80021fa:	2b0c      	cmp	r3, #12
 80021fc:	d127      	bne.n	800224e <HAL_RCC_GetSysClockFreq+0x96>
 80021fe:	4b15      	ldr	r3, [pc, #84]	; (8002254 <HAL_RCC_GetSysClockFreq+0x9c>)
 8002200:	68db      	ldr	r3, [r3, #12]
 8002202:	f003 0303 	and.w	r3, r3, #3
 8002206:	2b02      	cmp	r3, #2
 8002208:	d01f      	beq.n	800224a <HAL_RCC_GetSysClockFreq+0x92>
 800220a:	4a13      	ldr	r2, [pc, #76]	; (8002258 <HAL_RCC_GetSysClockFreq+0xa0>)
 800220c:	2b03      	cmp	r3, #3
 800220e:	bf08      	it	eq
 8002210:	4610      	moveq	r0, r2
 8002212:	4b10      	ldr	r3, [pc, #64]	; (8002254 <HAL_RCC_GetSysClockFreq+0x9c>)
 8002214:	68d9      	ldr	r1, [r3, #12]
 8002216:	68da      	ldr	r2, [r3, #12]
 8002218:	68db      	ldr	r3, [r3, #12]
 800221a:	f3c3 6341 	ubfx	r3, r3, #25, #2
 800221e:	f3c2 2206 	ubfx	r2, r2, #8, #7
 8002222:	f3c1 1102 	ubfx	r1, r1, #4, #3
 8002226:	3301      	adds	r3, #1
 8002228:	3101      	adds	r1, #1
 800222a:	fb00 f002 	mul.w	r0, r0, r2
 800222e:	005b      	lsls	r3, r3, #1
 8002230:	fbb0 f0f1 	udiv	r0, r0, r1
 8002234:	fbb0 f0f3 	udiv	r0, r0, r3
 8002238:	4770      	bx	lr
 800223a:	4809      	ldr	r0, [pc, #36]	; (8002260 <HAL_RCC_GetSysClockFreq+0xa8>)
 800223c:	4770      	bx	lr
 800223e:	f002 0203 	and.w	r2, r2, #3
 8002242:	2a01      	cmp	r2, #1
 8002244:	d0c7      	beq.n	80021d6 <HAL_RCC_GetSysClockFreq+0x1e>
 8002246:	2000      	movs	r0, #0
 8002248:	e7d9      	b.n	80021fe <HAL_RCC_GetSysClockFreq+0x46>
 800224a:	4805      	ldr	r0, [pc, #20]	; (8002260 <HAL_RCC_GetSysClockFreq+0xa8>)
 800224c:	e7e1      	b.n	8002212 <HAL_RCC_GetSysClockFreq+0x5a>
 800224e:	2000      	movs	r0, #0
 8002250:	4770      	bx	lr
 8002252:	bf00      	nop
 8002254:	40021000 	.word	0x40021000
 8002258:	007a1200 	.word	0x007a1200
 800225c:	0800b5e0 	.word	0x0800b5e0
 8002260:	00f42400 	.word	0x00f42400

08002264 <HAL_GPIO_Init>:
 8002264:	e92d 4ff0 	stmdb	sp!, {r4, r5, r6, r7, r8, r9, sl, fp, lr}
 8002268:	680c      	ldr	r4, [r1, #0]
 800226a:	b085      	sub	sp, #20
 800226c:	2c00      	cmp	r4, #0
 800226e:	f000 8087 	beq.w	8002380 <HAL_GPIO_Init+0x11c>
 8002272:	2300      	movs	r3, #0
 8002274:	f04f 0b01 	mov.w	fp, #1
 8002278:	fa0b fe03 	lsl.w	lr, fp, r3
 800227c:	ea1e 0a04 	ands.w	sl, lr, r4
 8002280:	d079      	beq.n	8002376 <HAL_GPIO_Init+0x112>
 8002282:	684e      	ldr	r6, [r1, #4]
 8002284:	f006 0203 	and.w	r2, r6, #3
 8002288:	1e55      	subs	r5, r2, #1
 800228a:	2d01      	cmp	r5, #1
 800228c:	ea4f 0c43 	mov.w	ip, r3, lsl #1
 8002290:	d979      	bls.n	8002386 <HAL_GPIO_Init+0x122>
 8002292:	2a03      	cmp	r2, #3
 8002294:	f040 80bd 	bne.w	8002412 <HAL_GPIO_Init+0x1ae>
 8002298:	fa02 f20c 	lsl.w	r2, r2, ip
 800229c:	43d5      	mvns	r5, r2
 800229e:	f8d0 c000 	ldr.w	ip, [r0]
 80022a2:	ea0c 0505 	and.w	r5, ip, r5
 80022a6:	432a      	orrs	r2, r5
 80022a8:	f416 3f40 	tst.w	r6, #196608	; 0x30000
 80022ac:	6002      	str	r2, [r0, #0]
 80022ae:	d062      	beq.n	8002376 <HAL_GPIO_Init+0x112>
 80022b0:	4d5f      	ldr	r5, [pc, #380]	; (8002430 <HAL_GPIO_Init+0x1cc>)
 80022b2:	6e2a      	ldr	r2, [r5, #96]	; 0x60
 80022b4:	f042 0201 	orr.w	r2, r2, #1
 80022b8:	662a      	str	r2, [r5, #96]	; 0x60
 80022ba:	6e2d      	ldr	r5, [r5, #96]	; 0x60
 80022bc:	f023 0203 	bic.w	r2, r3, #3
 80022c0:	f102 4280 	add.w	r2, r2, #1073741824	; 0x40000000
 80022c4:	f005 0501 	and.w	r5, r5, #1
 80022c8:	f502 3280 	add.w	r2, r2, #65536	; 0x10000
 80022cc:	9503      	str	r5, [sp, #12]
 80022ce:	f003 0503 	and.w	r5, r3, #3
 80022d2:	f8dd c00c 	ldr.w	ip, [sp, #12]
 80022d6:	f8d2 e008 	ldr.w	lr, [r2, #8]
 80022da:	00ad      	lsls	r5, r5, #2
 80022dc:	270f      	movs	r7, #15
 80022de:	fa07 fc05 	lsl.w	ip, r7, r5
 80022e2:	f1b0 4f90 	cmp.w	r0, #1207959552	; 0x48000000
 80022e6:	ea2e 0e0c 	bic.w	lr, lr, ip
 80022ea:	d016      	beq.n	800231a <HAL_GPIO_Init+0xb6>
 80022ec:	4f51      	ldr	r7, [pc, #324]	; (8002434 <HAL_GPIO_Init+0x1d0>)
 80022ee:	42b8      	cmp	r0, r7
 80022f0:	f000 8097 	beq.w	8002422 <HAL_GPIO_Init+0x1be>
 80022f4:	f507 6780 	add.w	r7, r7, #1024	; 0x400
 80022f8:	42b8      	cmp	r0, r7
 80022fa:	f000 8095 	beq.w	8002428 <HAL_GPIO_Init+0x1c4>
 80022fe:	f507 6780 	add.w	r7, r7, #1024	; 0x400
 8002302:	42b8      	cmp	r0, r7
 8002304:	f000 808a 	beq.w	800241c <HAL_GPIO_Init+0x1b8>
 8002308:	f507 6780 	add.w	r7, r7, #1024	; 0x400
 800230c:	42b8      	cmp	r0, r7
 800230e:	bf0c      	ite	eq
 8002310:	f04f 0c04 	moveq.w	ip, #4
 8002314:	f04f 0c07 	movne.w	ip, #7
 8002318:	e001      	b.n	800231e <HAL_GPIO_Init+0xba>
 800231a:	f04f 0c00 	mov.w	ip, #0
 800231e:	fa0c f505 	lsl.w	r5, ip, r5
 8002322:	ea45 050e 	orr.w	r5, r5, lr
 8002326:	6095      	str	r5, [r2, #8]
 8002328:	4a43      	ldr	r2, [pc, #268]	; (8002438 <HAL_GPIO_Init+0x1d4>)
 800232a:	6892      	ldr	r2, [r2, #8]
 800232c:	ea6f 0c0a 	mvn.w	ip, sl
 8002330:	02f5      	lsls	r5, r6, #11
 8002332:	4d41      	ldr	r5, [pc, #260]	; (8002438 <HAL_GPIO_Init+0x1d4>)
 8002334:	bf54      	ite	pl
 8002336:	ea0c 0202 	andpl.w	r2, ip, r2
 800233a:	ea4a 0202 	orrmi.w	r2, sl, r2
 800233e:	60aa      	str	r2, [r5, #8]
 8002340:	68ed      	ldr	r5, [r5, #12]
 8002342:	02b2      	lsls	r2, r6, #10
 8002344:	4a3c      	ldr	r2, [pc, #240]	; (8002438 <HAL_GPIO_Init+0x1d4>)
 8002346:	bf54      	ite	pl
 8002348:	ea0c 0505 	andpl.w	r5, ip, r5
 800234c:	ea4a 0505 	orrmi.w	r5, sl, r5
 8002350:	60d5      	str	r5, [r2, #12]
 8002352:	6855      	ldr	r5, [r2, #4]
 8002354:	4a38      	ldr	r2, [pc, #224]	; (8002438 <HAL_GPIO_Init+0x1d4>)
 8002356:	03b7      	lsls	r7, r6, #14
 8002358:	bf54      	ite	pl
 800235a:	ea0c 0505 	andpl.w	r5, ip, r5
 800235e:	ea4a 0505 	orrmi.w	r5, sl, r5
 8002362:	6055      	str	r5, [r2, #4]
 8002364:	6812      	ldr	r2, [r2, #0]
 8002366:	03f5      	lsls	r5, r6, #15
 8002368:	4d33      	ldr	r5, [pc, #204]	; (8002438 <HAL_GPIO_Init+0x1d4>)
 800236a:	bf54      	ite	pl
 800236c:	ea0c 0202 	andpl.w	r2, ip, r2
 8002370:	ea4a 0202 	orrmi.w	r2, sl, r2
 8002374:	602a      	str	r2, [r5, #0]
 8002376:	3301      	adds	r3, #1
 8002378:	fa34 f203 	lsrs.w	r2, r4, r3
 800237c:	f47f af7c 	bne.w	8002278 <HAL_GPIO_Init+0x14>
 8002380:	b005      	add	sp, #20
 8002382:	e8bd 8ff0 	ldmia.w	sp!, {r4, r5, r6, r7, r8, r9, sl, fp, pc}
 8002386:	f8d0 8008 	ldr.w	r8, [r0, #8]
 800238a:	68cf      	ldr	r7, [r1, #12]
 800238c:	2503      	movs	r5, #3
 800238e:	fa05 f50c 	lsl.w	r5, r5, ip
 8002392:	ea28 0805 	bic.w	r8, r8, r5
 8002396:	fa07 f90c 	lsl.w	r9, r7, ip
 800239a:	ea49 0808 	orr.w	r8, r9, r8
 800239e:	f8c0 8008 	str.w	r8, [r0, #8]
 80023a2:	f8d0 8004 	ldr.w	r8, [r0, #4]
 80023a6:	f3c6 1900 	ubfx	r9, r6, #4, #1
 80023aa:	ea28 080e 	bic.w	r8, r8, lr
 80023ae:	fa09 fe03 	lsl.w	lr, r9, r3
 80023b2:	ea4e 0e08 	orr.w	lr, lr, r8
 80023b6:	43ed      	mvns	r5, r5
 80023b8:	f8c0 e004 	str.w	lr, [r0, #4]
 80023bc:	f8d0 800c 	ldr.w	r8, [r0, #12]
 80023c0:	688f      	ldr	r7, [r1, #8]
 80023c2:	ea08 0805 	and.w	r8, r8, r5
 80023c6:	fa07 fe0c 	lsl.w	lr, r7, ip
 80023ca:	ea4e 0e08 	orr.w	lr, lr, r8
 80023ce:	2a02      	cmp	r2, #2
 80023d0:	f8c0 e00c 	str.w	lr, [r0, #12]
 80023d4:	d002      	beq.n	80023dc <HAL_GPIO_Init+0x178>
 80023d6:	fa02 f20c 	lsl.w	r2, r2, ip
 80023da:	e760      	b.n	800229e <HAL_GPIO_Init+0x3a>
 80023dc:	ea4f 08d3 	mov.w	r8, r3, lsr #3
 80023e0:	eb00 0888 	add.w	r8, r0, r8, lsl #2
 80023e4:	f003 0e07 	and.w	lr, r3, #7
 80023e8:	f8d8 7020 	ldr.w	r7, [r8, #32]
 80023ec:	9701      	str	r7, [sp, #4]
 80023ee:	690f      	ldr	r7, [r1, #16]
 80023f0:	ea4f 0e8e 	mov.w	lr, lr, lsl #2
 80023f4:	fa07 f90e 	lsl.w	r9, r7, lr
 80023f8:	270f      	movs	r7, #15
 80023fa:	fa07 fe0e 	lsl.w	lr, r7, lr
 80023fe:	9f01      	ldr	r7, [sp, #4]
 8002400:	ea27 0e0e 	bic.w	lr, r7, lr
 8002404:	ea49 0e0e 	orr.w	lr, r9, lr
 8002408:	fa02 f20c 	lsl.w	r2, r2, ip
 800240c:	f8c8 e020 	str.w	lr, [r8, #32]
 8002410:	e745      	b.n	800229e <HAL_GPIO_Init+0x3a>
 8002412:	2503      	movs	r5, #3
 8002414:	fa05 f50c 	lsl.w	r5, r5, ip
 8002418:	43ed      	mvns	r5, r5
 800241a:	e7cf      	b.n	80023bc <HAL_GPIO_Init+0x158>
 800241c:	f04f 0c03 	mov.w	ip, #3
 8002420:	e77d      	b.n	800231e <HAL_GPIO_Init+0xba>
 8002422:	f04f 0c01 	mov.w	ip, #1
 8002426:	e77a      	b.n	800231e <HAL_GPIO_Init+0xba>
 8002428:	f04f 0c02 	mov.w	ip, #2
 800242c:	e777      	b.n	800231e <HAL_GPIO_Init+0xba>
 800242e:	bf00      	nop
 8002430:	40021000 	.word	0x40021000
 8002434:	48000400 	.word	0x48000400
 8002438:	40010400 	.word	0x40010400

0800243c <HAL_DMA_IRQHandler>:
 800243c:	b470      	push	{r4, r5, r6}
 800243e:	e9d0 6310 	ldrd	r6, r3, [r0, #64]	; 0x40
 8002442:	2204      	movs	r2, #4
 8002444:	6831      	ldr	r1, [r6, #0]
 8002446:	6805      	ldr	r5, [r0, #0]
 8002448:	f003 031c 	and.w	r3, r3, #28
 800244c:	409a      	lsls	r2, r3
 800244e:	420a      	tst	r2, r1
 8002450:	682c      	ldr	r4, [r5, #0]
 8002452:	d00e      	beq.n	8002472 <HAL_DMA_IRQHandler+0x36>
 8002454:	f014 0f04 	tst.w	r4, #4
 8002458:	d00b      	beq.n	8002472 <HAL_DMA_IRQHandler+0x36>
 800245a:	682b      	ldr	r3, [r5, #0]
 800245c:	069b      	lsls	r3, r3, #26
 800245e:	d403      	bmi.n	8002468 <HAL_DMA_IRQHandler+0x2c>
 8002460:	682b      	ldr	r3, [r5, #0]
 8002462:	f023 0304 	bic.w	r3, r3, #4
 8002466:	602b      	str	r3, [r5, #0]
 8002468:	6b03      	ldr	r3, [r0, #48]	; 0x30
 800246a:	6072      	str	r2, [r6, #4]
 800246c:	b1cb      	cbz	r3, 80024a2 <HAL_DMA_IRQHandler+0x66>
 800246e:	bc70      	pop	{r4, r5, r6}
 8002470:	4718      	bx	r3
 8002472:	2202      	movs	r2, #2
 8002474:	409a      	lsls	r2, r3
 8002476:	420a      	tst	r2, r1
 8002478:	d015      	beq.n	80024a6 <HAL_DMA_IRQHandler+0x6a>
 800247a:	f014 0f02 	tst.w	r4, #2
 800247e:	d012      	beq.n	80024a6 <HAL_DMA_IRQHandler+0x6a>
 8002480:	682b      	ldr	r3, [r5, #0]
 8002482:	0699      	lsls	r1, r3, #26
 8002484:	d406      	bmi.n	8002494 <HAL_DMA_IRQHandler+0x58>
 8002486:	682b      	ldr	r3, [r5, #0]
 8002488:	2101      	movs	r1, #1
 800248a:	f023 030a 	bic.w	r3, r3, #10
 800248e:	602b      	str	r3, [r5, #0]
 8002490:	f880 1025 	strb.w	r1, [r0, #37]	; 0x25
 8002494:	6ac3      	ldr	r3, [r0, #44]	; 0x2c
 8002496:	6072      	str	r2, [r6, #4]
 8002498:	2200      	movs	r2, #0
 800249a:	f880 2024 	strb.w	r2, [r0, #36]	; 0x24
 800249e:	2b00      	cmp	r3, #0
 80024a0:	d1e5      	bne.n	800246e <HAL_DMA_IRQHandler+0x32>
 80024a2:	bc70      	pop	{r4, r5, r6}
 80024a4:	4770      	bx	lr
 80024a6:	2208      	movs	r2, #8
 80024a8:	409a      	lsls	r2, r3
 80024aa:	420a      	tst	r2, r1
 80024ac:	d0f9      	beq.n	80024a2 <HAL_DMA_IRQHandler+0x66>
 80024ae:	0722      	lsls	r2, r4, #28
 80024b0:	d5f7      	bpl.n	80024a2 <HAL_DMA_IRQHandler+0x66>
 80024b2:	682a      	ldr	r2, [r5, #0]
 80024b4:	6b41      	ldr	r1, [r0, #52]	; 0x34
 80024b6:	f022 020e 	bic.w	r2, r2, #14
 80024ba:	602a      	str	r2, [r5, #0]
 80024bc:	2201      	movs	r2, #1
 80024be:	fa02 f303 	lsl.w	r3, r2, r3
 80024c2:	2400      	movs	r4, #0
 80024c4:	6073      	str	r3, [r6, #4]
 80024c6:	63c2      	str	r2, [r0, #60]	; 0x3c
 80024c8:	f880 4024 	strb.w	r4, [r0, #36]	; 0x24
 80024cc:	f880 2025 	strb.w	r2, [r0, #37]	; 0x25
 80024d0:	2900      	cmp	r1, #0
 80024d2:	d0e6      	beq.n	80024a2 <HAL_DMA_IRQHandler+0x66>
 80024d4:	bc70      	pop	{r4, r5, r6}
 80024d6:	4708      	bx	r1

080024d8 <HAL_DMA_Start_IT>:
 80024d8:	b4f0      	push	{r4, r5, r6, r7}
 80024da:	f890 4024 	ldrb.w	r4, [r0, #36]	; 0x24
 80024de:	2c01      	cmp	r4, #1
 80024e0:	d03d      	beq.n	800255e <HAL_DMA_Start_IT+0x86>
 80024e2:	f890 4025 	ldrb.w	r4, [r0, #37]	; 0x25
 80024e6:	2601      	movs	r6, #1
 80024e8:	42b4      	cmp	r4, r6
 80024ea:	b2e5      	uxtb	r5, r4
 80024ec:	f880 6024 	strb.w	r6, [r0, #36]	; 0x24
 80024f0:	d005      	beq.n	80024fe <HAL_DMA_Start_IT+0x26>
 80024f2:	2300      	movs	r3, #0
 80024f4:	f880 3024 	strb.w	r3, [r0, #36]	; 0x24
 80024f8:	bcf0      	pop	{r4, r5, r6, r7}
 80024fa:	2002      	movs	r0, #2
 80024fc:	4770      	bx	lr
 80024fe:	6804      	ldr	r4, [r0, #0]
 8002500:	f8d0 c040 	ldr.w	ip, [r0, #64]	; 0x40
 8002504:	2702      	movs	r7, #2
 8002506:	2600      	movs	r6, #0
 8002508:	f880 7025 	strb.w	r7, [r0, #37]	; 0x25
 800250c:	63c6      	str	r6, [r0, #60]	; 0x3c
 800250e:	6c47      	ldr	r7, [r0, #68]	; 0x44
 8002510:	6826      	ldr	r6, [r4, #0]
 8002512:	f007 071c 	and.w	r7, r7, #28
 8002516:	f026 0601 	bic.w	r6, r6, #1
 800251a:	6026      	str	r6, [r4, #0]
 800251c:	40bd      	lsls	r5, r7
 800251e:	6886      	ldr	r6, [r0, #8]
 8002520:	f8cc 5004 	str.w	r5, [ip, #4]
 8002524:	6063      	str	r3, [r4, #4]
 8002526:	6b03      	ldr	r3, [r0, #48]	; 0x30
 8002528:	2e10      	cmp	r6, #16
 800252a:	bf0b      	itete	eq
 800252c:	60a2      	streq	r2, [r4, #8]
 800252e:	60a1      	strne	r1, [r4, #8]
 8002530:	60e1      	streq	r1, [r4, #12]
 8002532:	60e2      	strne	r2, [r4, #12]
 8002534:	b153      	cbz	r3, 800254c <HAL_DMA_Start_IT+0x74>
 8002536:	6823      	ldr	r3, [r4, #0]
 8002538:	f043 030e 	orr.w	r3, r3, #14
 800253c:	6023      	str	r3, [r4, #0]
 800253e:	6823      	ldr	r3, [r4, #0]
 8002540:	f043 0301 	orr.w	r3, r3, #1
 8002544:	6023      	str	r3, [r4, #0]
 8002546:	2000      	movs	r0, #0
 8002548:	bcf0      	pop	{r4, r5, r6, r7}
 800254a:	4770      	bx	lr
 800254c:	6823      	ldr	r3, [r4, #0]
 800254e:	f023 0304 	bic.w	r3, r3, #4
 8002552:	6023      	str	r3, [r4, #0]
 8002554:	6823      	ldr	r3, [r4, #0]
 8002556:	f043 030a 	orr.w	r3, r3, #10
 800255a:	6023      	str	r3, [r4, #0]
 800255c:	e7ef      	b.n	800253e <HAL_DMA_Start_IT+0x66>
 800255e:	2002      	movs	r0, #2
 8002560:	bcf0      	pop	{r4, r5, r6, r7}
 8002562:	4770      	bx	lr

08002564 <HAL_NVIC_EnableIRQ.part.0>:
 8002564:	4a04      	ldr	r2, [pc, #16]	; (8002578 <HAL_NVIC_EnableIRQ.part.0+0x14>)
 8002566:	f000 011f 	and.w	r1, r0, #31
 800256a:	2301      	movs	r3, #1
 800256c:	0940      	lsrs	r0, r0, #5
 800256e:	408b      	lsls	r3, r1
 8002570:	f842 3020 	str.w	r3, [r2, r0, lsl #2]
 8002574:	4770      	bx	lr
 8002576:	bf00      	nop
 8002578:	e000e100 	.word	0xe000e100

0800257c <HAL_InitTick>:
 800257c:	b570      	push	{r4, r5, r6, lr}
 800257e:	4d10      	ldr	r5, [pc, #64]	; (80025c0 <HAL_InitTick+0x44>)
 8002580:	4a10      	ldr	r2, [pc, #64]	; (80025c4 <HAL_InitTick+0x48>)
 8002582:	682b      	ldr	r3, [r5, #0]
 8002584:	fba2 2303 	umull	r2, r3, r2, r3
 8002588:	099b      	lsrs	r3, r3, #6
 800258a:	3b01      	subs	r3, #1
 800258c:	f1b3 7f80 	cmp.w	r3, #16777216	; 0x1000000
 8002590:	d20c      	bcs.n	80025ac <HAL_InitTick+0x30>
 8002592:	4a0d      	ldr	r2, [pc, #52]	; (80025c8 <HAL_InitTick+0x4c>)
 8002594:	490d      	ldr	r1, [pc, #52]	; (80025cc <HAL_InitTick+0x50>)
 8002596:	6053      	str	r3, [r2, #4]
 8002598:	23f0      	movs	r3, #240	; 0xf0
 800259a:	f881 3023 	strb.w	r3, [r1, #35]	; 0x23
 800259e:	2600      	movs	r6, #0
 80025a0:	2307      	movs	r3, #7
 80025a2:	280f      	cmp	r0, #15
 80025a4:	6096      	str	r6, [r2, #8]
 80025a6:	4604      	mov	r4, r0
 80025a8:	6013      	str	r3, [r2, #0]
 80025aa:	d901      	bls.n	80025b0 <HAL_InitTick+0x34>
 80025ac:	2001      	movs	r0, #1
 80025ae:	bd70      	pop	{r4, r5, r6, pc}
 80025b0:	4601      	mov	r1, r0
 80025b2:	f04f 30ff 	mov.w	r0, #4294967295	; 0xffffffff
 80025b6:	f7fd fe2d 	bl	8000214 <HAL_NVIC_SetPriority.constprop.0>
 80025ba:	606c      	str	r4, [r5, #4]
 80025bc:	4630      	mov	r0, r6
 80025be:	bd70      	pop	{r4, r5, r6, pc}
 80025c0:	20000000 	.word	0x20000000
 80025c4:	10624dd3 	.word	0x10624dd3
 80025c8:	e000e010 	.word	0xe000e010
 80025cc:	e000ed00 	.word	0xe000ed00

080025d0 <__NVIC_SystemReset>:
 80025d0:	f3bf 8f4f 	dsb	sy
 80025d4:	4905      	ldr	r1, [pc, #20]	; (80025ec <__NVIC_SystemReset+0x1c>)
 80025d6:	4b06      	ldr	r3, [pc, #24]	; (80025f0 <__NVIC_SystemReset+0x20>)
 80025d8:	68ca      	ldr	r2, [r1, #12]
 80025da:	f402 62e0 	and.w	r2, r2, #1792	; 0x700
 80025de:	4313      	orrs	r3, r2
 80025e0:	60cb      	str	r3, [r1, #12]
 80025e2:	f3bf 8f4f 	dsb	sy
 80025e6:	bf00      	nop
 80025e8:	e7fd      	b.n	80025e6 <__NVIC_SystemReset+0x16>
 80025ea:	bf00      	nop
 80025ec:	e000ed00 	.word	0xe000ed00
 80025f0:	05fa0004 	.word	0x05fa0004

080025f4 <acc_integration_sleep_us.constprop.0>:
 80025f4:	b538      	push	{r3, r4, r5, lr}
 80025f6:	4b4f      	ldr	r3, [pc, #316]	; (8002734 <acc_integration_sleep_us.constprop.0+0x140>)
 80025f8:	f893 2024 	ldrb.w	r2, [r3, #36]	; 0x24
 80025fc:	2100      	movs	r1, #0
 80025fe:	2a01      	cmp	r2, #1
 8002600:	f883 1045 	strb.w	r1, [r3, #69]	; 0x45
 8002604:	f000 808c 	beq.w	8002720 <acc_integration_sleep_us.constprop.0+0x12c>
 8002608:	685a      	ldr	r2, [r3, #4]
 800260a:	2153      	movs	r1, #83	; 0x53
 800260c:	2502      	movs	r5, #2
 800260e:	20ca      	movs	r0, #202	; 0xca
 8002610:	2401      	movs	r4, #1
 8002612:	f883 5025 	strb.w	r5, [r3, #37]	; 0x25
 8002616:	f883 4024 	strb.w	r4, [r3, #36]	; 0x24
 800261a:	6250      	str	r0, [r2, #36]	; 0x24
 800261c:	6251      	str	r1, [r2, #36]	; 0x24
 800261e:	6891      	ldr	r1, [r2, #8]
 8002620:	f421 6180 	bic.w	r1, r1, #1024	; 0x400
 8002624:	6091      	str	r1, [r2, #8]
 8002626:	68d1      	ldr	r1, [r2, #12]
 8002628:	b2c9      	uxtb	r1, r1
 800262a:	f461 6190 	orn	r1, r1, #1152	; 0x480
 800262e:	60d1      	str	r1, [r2, #12]
 8002630:	68d1      	ldr	r1, [r2, #12]
 8002632:	0649      	lsls	r1, r1, #25
 8002634:	d563      	bpl.n	80026fe <acc_integration_sleep_us.constprop.0+0x10a>
 8002636:	211f      	movs	r1, #31
 8002638:	6151      	str	r1, [r2, #20]
 800263a:	6891      	ldr	r1, [r2, #8]
 800263c:	483e      	ldr	r0, [pc, #248]	; (8002738 <acc_integration_sleep_us.constprop.0+0x144>)
 800263e:	f021 0107 	bic.w	r1, r1, #7
 8002642:	f041 0103 	orr.w	r1, r1, #3
 8002646:	6091      	str	r1, [r2, #8]
 8002648:	6801      	ldr	r1, [r0, #0]
 800264a:	f441 1180 	orr.w	r1, r1, #1048576	; 0x100000
 800264e:	6001      	str	r1, [r0, #0]
 8002650:	6881      	ldr	r1, [r0, #8]
 8002652:	f441 1180 	orr.w	r1, r1, #1048576	; 0x100000
 8002656:	6081      	str	r1, [r0, #8]
 8002658:	6891      	ldr	r1, [r2, #8]
 800265a:	f441 4180 	orr.w	r1, r1, #16384	; 0x4000
 800265e:	6091      	str	r1, [r2, #8]
 8002660:	6891      	ldr	r1, [r2, #8]
 8002662:	24ff      	movs	r4, #255	; 0xff
 8002664:	f441 6180 	orr.w	r1, r1, #1024	; 0x400
 8002668:	2001      	movs	r0, #1
 800266a:	6091      	str	r1, [r2, #8]
 800266c:	6254      	str	r4, [r2, #36]	; 0x24
 800266e:	f883 0025 	strb.w	r0, [r3, #37]	; 0x25
 8002672:	f893 2045 	ldrb.w	r2, [r3, #69]	; 0x45
 8002676:	2100      	movs	r1, #0
 8002678:	f883 1024 	strb.w	r1, [r3, #36]	; 0x24
 800267c:	b98a      	cbnz	r2, 80026a2 <acc_integration_sleep_us.constprop.0+0xae>
 800267e:	b672      	cpsid	i
 8002680:	f3bf 8f4f 	dsb	sy
 8002684:	f3bf 8f6f 	isb	sy
 8002688:	f893 2045 	ldrb.w	r2, [r3, #69]	; 0x45
 800268c:	b902      	cbnz	r2, 8002690 <acc_integration_sleep_us.constprop.0+0x9c>
 800268e:	bf30      	wfi
 8002690:	b662      	cpsie	i
 8002692:	f3bf 8f4f 	dsb	sy
 8002696:	f3bf 8f6f 	isb	sy
 800269a:	f893 2045 	ldrb.w	r2, [r3, #69]	; 0x45
 800269e:	2a00      	cmp	r2, #0
 80026a0:	d0ed      	beq.n	800267e <acc_integration_sleep_us.constprop.0+0x8a>
 80026a2:	f893 2024 	ldrb.w	r2, [r3, #36]	; 0x24
 80026a6:	2100      	movs	r1, #0
 80026a8:	2a01      	cmp	r2, #1
 80026aa:	f883 1045 	strb.w	r1, [r3, #69]	; 0x45
 80026ae:	d037      	beq.n	8002720 <acc_integration_sleep_us.constprop.0+0x12c>
 80026b0:	6858      	ldr	r0, [r3, #4]
 80026b2:	2253      	movs	r2, #83	; 0x53
 80026b4:	2401      	movs	r4, #1
 80026b6:	2502      	movs	r5, #2
 80026b8:	21ca      	movs	r1, #202	; 0xca
 80026ba:	f883 5025 	strb.w	r5, [r3, #37]	; 0x25
 80026be:	f883 4024 	strb.w	r4, [r3, #36]	; 0x24
 80026c2:	6241      	str	r1, [r0, #36]	; 0x24
 80026c4:	6242      	str	r2, [r0, #36]	; 0x24
 80026c6:	6882      	ldr	r2, [r0, #8]
 80026c8:	f422 6280 	bic.w	r2, r2, #1024	; 0x400
 80026cc:	6082      	str	r2, [r0, #8]
 80026ce:	6882      	ldr	r2, [r0, #8]
 80026d0:	f422 4280 	bic.w	r2, r2, #16384	; 0x4000
 80026d4:	6082      	str	r2, [r0, #8]
 80026d6:	681c      	ldr	r4, [r3, #0]
 80026d8:	e004      	b.n	80026e4 <acc_integration_sleep_us.constprop.0+0xf0>
 80026da:	6819      	ldr	r1, [r3, #0]
 80026dc:	1b09      	subs	r1, r1, r4
 80026de:	f5b1 7f7a 	cmp.w	r1, #1000	; 0x3e8
 80026e2:	d81f      	bhi.n	8002724 <acc_integration_sleep_us.constprop.0+0x130>
 80026e4:	68c2      	ldr	r2, [r0, #12]
 80026e6:	f012 0204 	ands.w	r2, r2, #4
 80026ea:	d0f6      	beq.n	80026da <acc_integration_sleep_us.constprop.0+0xe6>
 80026ec:	24ff      	movs	r4, #255	; 0xff
 80026ee:	2201      	movs	r2, #1
 80026f0:	2100      	movs	r1, #0
 80026f2:	6244      	str	r4, [r0, #36]	; 0x24
 80026f4:	f883 1024 	strb.w	r1, [r3, #36]	; 0x24
 80026f8:	f883 2025 	strb.w	r2, [r3, #37]	; 0x25
 80026fc:	bd38      	pop	{r3, r4, r5, pc}
 80026fe:	681c      	ldr	r4, [r3, #0]
 8002700:	68d1      	ldr	r1, [r2, #12]
 8002702:	f011 0104 	ands.w	r1, r1, #4
 8002706:	d196      	bne.n	8002636 <acc_integration_sleep_us.constprop.0+0x42>
 8002708:	6818      	ldr	r0, [r3, #0]
 800270a:	1b00      	subs	r0, r0, r4
 800270c:	f5b0 7f7a 	cmp.w	r0, #1000	; 0x3e8
 8002710:	d9f6      	bls.n	8002700 <acc_integration_sleep_us.constprop.0+0x10c>
 8002712:	24ff      	movs	r4, #255	; 0xff
 8002714:	2003      	movs	r0, #3
 8002716:	6254      	str	r4, [r2, #36]	; 0x24
 8002718:	f883 1024 	strb.w	r1, [r3, #36]	; 0x24
 800271c:	f883 0025 	strb.w	r0, [r3, #37]	; 0x25
 8002720:	f7ff ff56 	bl	80025d0 <__NVIC_SystemReset>
 8002724:	24ff      	movs	r4, #255	; 0xff
 8002726:	2103      	movs	r1, #3
 8002728:	6244      	str	r4, [r0, #36]	; 0x24
 800272a:	f883 2024 	strb.w	r2, [r3, #36]	; 0x24
 800272e:	f883 1025 	strb.w	r1, [r3, #37]	; 0x25
 8002732:	e7f5      	b.n	8002720 <acc_integration_sleep_us.constprop.0+0x12c>
 8002734:	200000ac 	.word	0x200000ac
 8002738:	40010400 	.word	0x40010400

0800273c <HAL_UART_Init.constprop.0>:
 800273c:	e92d 43f0 	stmdb	sp!, {r4, r5, r6, r7, r8, r9, lr}
 8002740:	6f86      	ldr	r6, [r0, #120]	; 0x78
 8002742:	b0a1      	sub	sp, #132	; 0x84
 8002744:	4604      	mov	r4, r0
 8002746:	2e00      	cmp	r6, #0
 8002748:	d05e      	beq.n	8002808 <HAL_UART_Init.constprop.0+0xcc>
 800274a:	6825      	ldr	r5, [r4, #0]
 800274c:	68a3      	ldr	r3, [r4, #8]
 800274e:	6926      	ldr	r6, [r4, #16]
 8002750:	6960      	ldr	r0, [r4, #20]
 8002752:	4ac6      	ldr	r2, [pc, #792]	; (8002a6c <HAL_UART_Init.constprop.0+0x330>)
 8002754:	2124      	movs	r1, #36	; 0x24
 8002756:	67a1      	str	r1, [r4, #120]	; 0x78
 8002758:	6829      	ldr	r1, [r5, #0]
 800275a:	f021 0101 	bic.w	r1, r1, #1
 800275e:	6029      	str	r1, [r5, #0]
 8002760:	4333      	orrs	r3, r6
 8002762:	6829      	ldr	r1, [r5, #0]
 8002764:	4303      	orrs	r3, r0
 8002766:	69e0      	ldr	r0, [r4, #28]
 8002768:	400a      	ands	r2, r1
 800276a:	4303      	orrs	r3, r0
 800276c:	4313      	orrs	r3, r2
 800276e:	602b      	str	r3, [r5, #0]
 8002770:	686b      	ldr	r3, [r5, #4]
 8002772:	68e1      	ldr	r1, [r4, #12]
 8002774:	4abe      	ldr	r2, [pc, #760]	; (8002a70 <HAL_UART_Init.constprop.0+0x334>)
 8002776:	f423 5340 	bic.w	r3, r3, #12288	; 0x3000
 800277a:	430b      	orrs	r3, r1
 800277c:	606b      	str	r3, [r5, #4]
 800277e:	4295      	cmp	r5, r2
 8002780:	69a3      	ldr	r3, [r4, #24]
 8002782:	68aa      	ldr	r2, [r5, #8]
 8002784:	f000 80ba 	beq.w	80028fc <HAL_UART_Init.constprop.0+0x1c0>
 8002788:	6a26      	ldr	r6, [r4, #32]
 800278a:	49ba      	ldr	r1, [pc, #744]	; (8002a74 <HAL_UART_Init.constprop.0+0x338>)
 800278c:	f422 6230 	bic.w	r2, r2, #2816	; 0xb00
 8002790:	4333      	orrs	r3, r6
 8002792:	4313      	orrs	r3, r2
 8002794:	428d      	cmp	r5, r1
 8002796:	60ab      	str	r3, [r5, #8]
 8002798:	d00e      	beq.n	80027b8 <HAL_UART_Init.constprop.0+0x7c>
 800279a:	4bb7      	ldr	r3, [pc, #732]	; (8002a78 <HAL_UART_Init.constprop.0+0x33c>)
 800279c:	429d      	cmp	r5, r3
 800279e:	f000 8215 	beq.w	8002bcc <HAL_UART_Init.constprop.0+0x490>
 80027a2:	4bb6      	ldr	r3, [pc, #728]	; (8002a7c <HAL_UART_Init.constprop.0+0x340>)
 80027a4:	429d      	cmp	r5, r3
 80027a6:	f000 812e 	beq.w	8002a06 <HAL_UART_Init.constprop.0+0x2ca>
 80027aa:	2300      	movs	r3, #0
 80027ac:	e9c4 3319 	strd	r3, r3, [r4, #100]	; 0x64
 80027b0:	2001      	movs	r0, #1
 80027b2:	b021      	add	sp, #132	; 0x84
 80027b4:	e8bd 83f0 	ldmia.w	sp!, {r4, r5, r6, r7, r8, r9, pc}
 80027b8:	4bb1      	ldr	r3, [pc, #708]	; (8002a80 <HAL_UART_Init.constprop.0+0x344>)
 80027ba:	4ab2      	ldr	r2, [pc, #712]	; (8002a84 <HAL_UART_Init.constprop.0+0x348>)
 80027bc:	f8d3 3088 	ldr.w	r3, [r3, #136]	; 0x88
 80027c0:	f003 0303 	and.w	r3, r3, #3
 80027c4:	3b01      	subs	r3, #1
 80027c6:	2b02      	cmp	r3, #2
 80027c8:	f200 813f 	bhi.w	8002a4a <HAL_UART_Init.constprop.0+0x30e>
 80027cc:	4413      	add	r3, r2
 80027ce:	f893 39b0 	ldrb.w	r3, [r3, #2480]	; 0x9b0
 80027d2:	f5b0 4f00 	cmp.w	r0, #32768	; 0x8000
 80027d6:	f000 8163 	beq.w	8002aa0 <HAL_UART_Init.constprop.0+0x364>
 80027da:	2b08      	cmp	r3, #8
 80027dc:	d8e5      	bhi.n	80027aa <HAL_UART_Init.constprop.0+0x6e>
 80027de:	a101      	add	r1, pc, #4	; (adr r1, 80027e4 <HAL_UART_Init.constprop.0+0xa8>)
 80027e0:	f851 f023 	ldr.w	pc, [r1, r3, lsl #2]
 80027e4:	08002a45 	.word	0x08002a45
 80027e8:	08002a53 	.word	0x08002a53
 80027ec:	08002a03 	.word	0x08002a03
 80027f0:	080027ab 	.word	0x080027ab
 80027f4:	08002a2b 	.word	0x08002a2b
 80027f8:	080027ab 	.word	0x080027ab
 80027fc:	080027ab 	.word	0x080027ab
 8002800:	080027ab 	.word	0x080027ab
 8002804:	08002991 	.word	0x08002991
 8002808:	f880 6074 	strb.w	r6, [r0, #116]	; 0x74
 800280c:	225c      	movs	r2, #92	; 0x5c
 800280e:	a809      	add	r0, sp, #36	; 0x24
 8002810:	4631      	mov	r1, r6
 8002812:	e9cd 6604 	strd	r6, r6, [sp, #16]
 8002816:	e9cd 6606 	strd	r6, r6, [sp, #24]
 800281a:	9608      	str	r6, [sp, #32]
 800281c:	f007 fab1 	bl	8009d82 <memset>
 8002820:	6825      	ldr	r5, [r4, #0]
 8002822:	4b94      	ldr	r3, [pc, #592]	; (8002a74 <HAL_UART_Init.constprop.0+0x338>)
 8002824:	429d      	cmp	r5, r3
 8002826:	f000 8200 	beq.w	8002c2a <HAL_UART_Init.constprop.0+0x4ee>
 800282a:	4b93      	ldr	r3, [pc, #588]	; (8002a78 <HAL_UART_Init.constprop.0+0x33c>)
 800282c:	429d      	cmp	r5, r3
 800282e:	d18d      	bne.n	800274c <HAL_UART_Init.constprop.0+0x10>
 8002830:	a809      	add	r0, sp, #36	; 0x24
 8002832:	2702      	movs	r7, #2
 8002834:	9612      	str	r6, [sp, #72]	; 0x48
 8002836:	9709      	str	r7, [sp, #36]	; 0x24
 8002838:	f7ff fafe 	bl	8001e38 <HAL_RCCEx_PeriphCLKConfig>
 800283c:	4606      	mov	r6, r0
 800283e:	2800      	cmp	r0, #0
 8002840:	f040 821e 	bne.w	8002c80 <HAL_UART_Init.constprop.0+0x544>
 8002844:	4b8e      	ldr	r3, [pc, #568]	; (8002a80 <HAL_UART_Init.constprop.0+0x344>)
 8002846:	4d90      	ldr	r5, [pc, #576]	; (8002a88 <HAL_UART_Init.constprop.0+0x34c>)
 8002848:	6d9a      	ldr	r2, [r3, #88]	; 0x58
 800284a:	f442 3200 	orr.w	r2, r2, #131072	; 0x20000
 800284e:	659a      	str	r2, [r3, #88]	; 0x58
 8002850:	6d9a      	ldr	r2, [r3, #88]	; 0x58
 8002852:	f402 3200 	and.w	r2, r2, #131072	; 0x20000
 8002856:	9201      	str	r2, [sp, #4]
 8002858:	9a01      	ldr	r2, [sp, #4]
 800285a:	6cda      	ldr	r2, [r3, #76]	; 0x4c
 800285c:	f042 0201 	orr.w	r2, r2, #1
 8002860:	64da      	str	r2, [r3, #76]	; 0x4c
 8002862:	6cdb      	ldr	r3, [r3, #76]	; 0x4c
 8002864:	9705      	str	r7, [sp, #20]
 8002866:	f003 0301 	and.w	r3, r3, #1
 800286a:	200f      	movs	r0, #15
 800286c:	9300      	str	r3, [sp, #0]
 800286e:	2203      	movs	r2, #3
 8002870:	2307      	movs	r3, #7
 8002872:	a904      	add	r1, sp, #16
 8002874:	9004      	str	r0, [sp, #16]
 8002876:	f105 0948 	add.w	r9, r5, #72	; 0x48
 800287a:	f04f 4090 	mov.w	r0, #1207959552	; 0x48000000
 800287e:	f8dd c000 	ldr.w	ip, [sp]
 8002882:	9207      	str	r2, [sp, #28]
 8002884:	9308      	str	r3, [sp, #32]
 8002886:	9606      	str	r6, [sp, #24]
 8002888:	f04f 0880 	mov.w	r8, #128	; 0x80
 800288c:	f7ff fcea 	bl	8002264 <HAL_GPIO_Init>
 8002890:	4b7e      	ldr	r3, [pc, #504]	; (8002a8c <HAL_UART_Init.constprop.0+0x350>)
 8002892:	64ab      	str	r3, [r5, #72]	; 0x48
 8002894:	4648      	mov	r0, r9
 8002896:	e9c5 6614 	strd	r6, r6, [r5, #80]	; 0x50
 800289a:	e9c5 6617 	strd	r6, r6, [r5, #92]	; 0x5c
 800289e:	e9c5 6619 	strd	r6, r6, [r5, #100]	; 0x64
 80028a2:	64ef      	str	r7, [r5, #76]	; 0x4c
 80028a4:	f8c5 8058 	str.w	r8, [r5, #88]	; 0x58
 80028a8:	f7fd fd38 	bl	800031c <HAL_DMA_Init.constprop.0>
 80028ac:	4603      	mov	r3, r0
 80028ae:	2800      	cmp	r0, #0
 80028b0:	f040 81e6 	bne.w	8002c80 <HAL_UART_Init.constprop.0+0x544>
 80028b4:	f105 0690 	add.w	r6, r5, #144	; 0x90
 80028b8:	4975      	ldr	r1, [pc, #468]	; (8002a90 <HAL_UART_Init.constprop.0+0x354>)
 80028ba:	f8c4 9070 	str.w	r9, [r4, #112]	; 0x70
 80028be:	2210      	movs	r2, #16
 80028c0:	4630      	mov	r0, r6
 80028c2:	f8c5 1090 	str.w	r1, [r5, #144]	; 0x90
 80028c6:	e9c5 3827 	strd	r3, r8, [r5, #156]	; 0x9c
 80028ca:	e9c5 3329 	strd	r3, r3, [r5, #164]	; 0xa4
 80028ce:	e9c5 332b 	strd	r3, r3, [r5, #172]	; 0xac
 80028d2:	672c      	str	r4, [r5, #112]	; 0x70
 80028d4:	f8c5 7094 	str.w	r7, [r5, #148]	; 0x94
 80028d8:	f8c5 2098 	str.w	r2, [r5, #152]	; 0x98
 80028dc:	f7fd fd1e 	bl	800031c <HAL_DMA_Init.constprop.0>
 80028e0:	4601      	mov	r1, r0
 80028e2:	2800      	cmp	r0, #0
 80028e4:	f040 81cc 	bne.w	8002c80 <HAL_UART_Init.constprop.0+0x544>
 80028e8:	66e6      	str	r6, [r4, #108]	; 0x6c
 80028ea:	2026      	movs	r0, #38	; 0x26
 80028ec:	f8c5 40b8 	str.w	r4, [r5, #184]	; 0xb8
 80028f0:	f7fd fc90 	bl	8000214 <HAL_NVIC_SetPriority.constprop.0>
 80028f4:	2026      	movs	r0, #38	; 0x26
 80028f6:	f7ff fe35 	bl	8002564 <HAL_NVIC_EnableIRQ.part.0>
 80028fa:	e726      	b.n	800274a <HAL_UART_Init.constprop.0+0xe>
 80028fc:	f422 6230 	bic.w	r2, r2, #2816	; 0xb00
 8002900:	4313      	orrs	r3, r2
 8002902:	495f      	ldr	r1, [pc, #380]	; (8002a80 <HAL_UART_Init.constprop.0+0x344>)
 8002904:	60ab      	str	r3, [r5, #8]
 8002906:	f8d1 3088 	ldr.w	r3, [r1, #136]	; 0x88
 800290a:	f403 6340 	and.w	r3, r3, #3072	; 0xc00
 800290e:	f5b3 6f00 	cmp.w	r3, #2048	; 0x800
 8002912:	f000 8188 	beq.w	8002c26 <HAL_UART_Init.constprop.0+0x4ea>
 8002916:	d80c      	bhi.n	8002932 <HAL_UART_Init.constprop.0+0x1f6>
 8002918:	2b00      	cmp	r3, #0
 800291a:	f000 817e 	beq.w	8002c1a <HAL_UART_Init.constprop.0+0x4de>
 800291e:	f5b3 6f80 	cmp.w	r3, #1024	; 0x400
 8002922:	f47f af42 	bne.w	80027aa <HAL_UART_Init.constprop.0+0x6e>
 8002926:	f7ff fc47 	bl	80021b8 <HAL_RCC_GetSysClockFreq>
 800292a:	2800      	cmp	r0, #0
 800292c:	f000 8081 	beq.w	8002a32 <HAL_UART_Init.constprop.0+0x2f6>
 8002930:	e005      	b.n	800293e <HAL_UART_Init.constprop.0+0x202>
 8002932:	f5b3 6f40 	cmp.w	r3, #3072	; 0xc00
 8002936:	f47f af38 	bne.w	80027aa <HAL_UART_Init.constprop.0+0x6e>
 800293a:	f44f 4000 	mov.w	r0, #32768	; 0x8000
 800293e:	6862      	ldr	r2, [r4, #4]
 8002940:	eb02 0342 	add.w	r3, r2, r2, lsl #1
 8002944:	4283      	cmp	r3, r0
 8002946:	f63f af30 	bhi.w	80027aa <HAL_UART_Init.constprop.0+0x6e>
 800294a:	ebb0 3f02 	cmp.w	r0, r2, lsl #12
 800294e:	f63f af2c 	bhi.w	80027aa <HAL_UART_Init.constprop.0+0x6e>
 8002952:	0856      	lsrs	r6, r2, #1
 8002954:	f44f 7380 	mov.w	r3, #256	; 0x100
 8002958:	2700      	movs	r7, #0
 800295a:	fbe3 6700 	umlal	r6, r7, r3, r0
 800295e:	f04f 0800 	mov.w	r8, #0
 8002962:	4643      	mov	r3, r8
 8002964:	4630      	mov	r0, r6
 8002966:	4639      	mov	r1, r7
 8002968:	f004 fe2a 	bl	80075c0 <__aeabi_uldivmod>
 800296c:	4b49      	ldr	r3, [pc, #292]	; (8002a94 <HAL_UART_Init.constprop.0+0x358>)
 800296e:	f5a0 7240 	sub.w	r2, r0, #768	; 0x300
 8002972:	429a      	cmp	r2, r3
 8002974:	f63f af19 	bhi.w	80027aa <HAL_UART_Init.constprop.0+0x6e>
 8002978:	6825      	ldr	r5, [r4, #0]
 800297a:	60e8      	str	r0, [r5, #12]
 800297c:	e9c4 8819 	strd	r8, r8, [r4, #100]	; 0x64
 8002980:	e019      	b.n	80029b6 <HAL_UART_Init.constprop.0+0x27a>
 8002982:	2b30      	cmp	r3, #48	; 0x30
 8002984:	f47f af11 	bne.w	80027aa <HAL_UART_Init.constprop.0+0x6e>
 8002988:	f5b0 4f00 	cmp.w	r0, #32768	; 0x8000
 800298c:	f000 80a1 	beq.w	8002ad2 <HAL_UART_Init.constprop.0+0x396>
 8002990:	f44f 4000 	mov.w	r0, #32768	; 0x8000
 8002994:	6863      	ldr	r3, [r4, #4]
 8002996:	f64f 72ef 	movw	r2, #65519	; 0xffef
 800299a:	eb00 0053 	add.w	r0, r0, r3, lsr #1
 800299e:	fbb0 f0f3 	udiv	r0, r0, r3
 80029a2:	f1a0 0310 	sub.w	r3, r0, #16
 80029a6:	4293      	cmp	r3, r2
 80029a8:	f63f aeff 	bhi.w	80027aa <HAL_UART_Init.constprop.0+0x6e>
 80029ac:	6825      	ldr	r5, [r4, #0]
 80029ae:	2300      	movs	r3, #0
 80029b0:	60e8      	str	r0, [r5, #12]
 80029b2:	e9c4 3319 	strd	r3, r3, [r4, #100]	; 0x64
 80029b6:	6a63      	ldr	r3, [r4, #36]	; 0x24
 80029b8:	2b00      	cmp	r3, #0
 80029ba:	f040 80af 	bne.w	8002b1c <HAL_UART_Init.constprop.0+0x3e0>
 80029be:	686b      	ldr	r3, [r5, #4]
 80029c0:	4a31      	ldr	r2, [pc, #196]	; (8002a88 <HAL_UART_Init.constprop.0+0x34c>)
 80029c2:	f423 4390 	bic.w	r3, r3, #18432	; 0x4800
 80029c6:	606b      	str	r3, [r5, #4]
 80029c8:	68ab      	ldr	r3, [r5, #8]
 80029ca:	f023 032a 	bic.w	r3, r3, #42	; 0x2a
 80029ce:	60ab      	str	r3, [r5, #8]
 80029d0:	682b      	ldr	r3, [r5, #0]
 80029d2:	2100      	movs	r1, #0
 80029d4:	f043 0301 	orr.w	r3, r3, #1
 80029d8:	602b      	str	r3, [r5, #0]
 80029da:	f8c4 1080 	str.w	r1, [r4, #128]	; 0x80
 80029de:	6816      	ldr	r6, [r2, #0]
 80029e0:	682b      	ldr	r3, [r5, #0]
 80029e2:	071a      	lsls	r2, r3, #28
 80029e4:	f100 808e 	bmi.w	8002b04 <HAL_UART_Init.constprop.0+0x3c8>
 80029e8:	682b      	ldr	r3, [r5, #0]
 80029ea:	075b      	lsls	r3, r3, #29
 80029ec:	f100 80e1 	bmi.w	8002bb2 <HAL_UART_Init.constprop.0+0x476>
 80029f0:	2300      	movs	r3, #0
 80029f2:	2220      	movs	r2, #32
 80029f4:	67a2      	str	r2, [r4, #120]	; 0x78
 80029f6:	f884 3074 	strb.w	r3, [r4, #116]	; 0x74
 80029fa:	67e2      	str	r2, [r4, #124]	; 0x7c
 80029fc:	4618      	mov	r0, r3
 80029fe:	6623      	str	r3, [r4, #96]	; 0x60
 8002a00:	e6d7      	b.n	80027b2 <HAL_UART_Init.constprop.0+0x76>
 8002a02:	4825      	ldr	r0, [pc, #148]	; (8002a98 <HAL_UART_Init.constprop.0+0x35c>)
 8002a04:	e7c6      	b.n	8002994 <HAL_UART_Init.constprop.0+0x258>
 8002a06:	f503 33e4 	add.w	r3, r3, #116736	; 0x1c800
 8002a0a:	f8d3 3088 	ldr.w	r3, [r3, #136]	; 0x88
 8002a0e:	f003 0330 	and.w	r3, r3, #48	; 0x30
 8002a12:	2b20      	cmp	r3, #32
 8002a14:	f000 8136 	beq.w	8002c84 <HAL_UART_Init.constprop.0+0x548>
 8002a18:	d8b3      	bhi.n	8002982 <HAL_UART_Init.constprop.0+0x246>
 8002a1a:	b17b      	cbz	r3, 8002a3c <HAL_UART_Init.constprop.0+0x300>
 8002a1c:	2b10      	cmp	r3, #16
 8002a1e:	f47f aec4 	bne.w	80027aa <HAL_UART_Init.constprop.0+0x6e>
 8002a22:	f5b0 4f00 	cmp.w	r0, #32768	; 0x8000
 8002a26:	f000 80e2 	beq.w	8002bee <HAL_UART_Init.constprop.0+0x4b2>
 8002a2a:	f7ff fbc5 	bl	80021b8 <HAL_RCC_GetSysClockFreq>
 8002a2e:	2800      	cmp	r0, #0
 8002a30:	d1b0      	bne.n	8002994 <HAL_UART_Init.constprop.0+0x258>
 8002a32:	2300      	movs	r3, #0
 8002a34:	e9c4 3319 	strd	r3, r3, [r4, #100]	; 0x64
 8002a38:	6825      	ldr	r5, [r4, #0]
 8002a3a:	e7bc      	b.n	80029b6 <HAL_UART_Init.constprop.0+0x27a>
 8002a3c:	f5b0 4f00 	cmp.w	r0, #32768	; 0x8000
 8002a40:	f000 80cf 	beq.w	8002be2 <HAL_UART_Init.constprop.0+0x4a6>
 8002a44:	f7ff fba4 	bl	8002190 <HAL_RCC_GetPCLK1Freq>
 8002a48:	e7f1      	b.n	8002a2e <HAL_UART_Init.constprop.0+0x2f2>
 8002a4a:	f5b0 4f00 	cmp.w	r0, #32768	; 0x8000
 8002a4e:	f000 80d4 	beq.w	8002bfa <HAL_UART_Init.constprop.0+0x4be>
 8002a52:	4b0b      	ldr	r3, [pc, #44]	; (8002a80 <HAL_UART_Init.constprop.0+0x344>)
 8002a54:	4911      	ldr	r1, [pc, #68]	; (8002a9c <HAL_UART_Init.constprop.0+0x360>)
 8002a56:	689b      	ldr	r3, [r3, #8]
 8002a58:	6808      	ldr	r0, [r1, #0]
 8002a5a:	f3c3 23c2 	ubfx	r3, r3, #11, #3
 8002a5e:	441a      	add	r2, r3
 8002a60:	f892 3978 	ldrb.w	r3, [r2, #2424]	; 0x978
 8002a64:	f003 031f 	and.w	r3, r3, #31
 8002a68:	40d8      	lsrs	r0, r3
 8002a6a:	e7e0      	b.n	8002a2e <HAL_UART_Init.constprop.0+0x2f2>
 8002a6c:	efff69f3 	.word	0xefff69f3
 8002a70:	40008000 	.word	0x40008000
 8002a74:	40013800 	.word	0x40013800
 8002a78:	40004400 	.word	0x40004400
 8002a7c:	40004800 	.word	0x40004800
 8002a80:	40021000 	.word	0x40021000
 8002a84:	0800b5e0 	.word	0x0800b5e0
 8002a88:	200000ac 	.word	0x200000ac
 8002a8c:	4002006c 	.word	0x4002006c
 8002a90:	40020080 	.word	0x40020080
 8002a94:	000ffcff 	.word	0x000ffcff
 8002a98:	00f42400 	.word	0x00f42400
 8002a9c:	20000000 	.word	0x20000000
 8002aa0:	2b08      	cmp	r3, #8
 8002aa2:	f63f ae82 	bhi.w	80027aa <HAL_UART_Init.constprop.0+0x6e>
 8002aa6:	a101      	add	r1, pc, #4	; (adr r1, 8002aac <HAL_UART_Init.constprop.0+0x370>)
 8002aa8:	f851 f023 	ldr.w	pc, [r1, r3, lsl #2]
 8002aac:	08002be3 	.word	0x08002be3
 8002ab0:	08002bfb 	.word	0x08002bfb
 8002ab4:	08002ad1 	.word	0x08002ad1
 8002ab8:	080027ab 	.word	0x080027ab
 8002abc:	08002bef 	.word	0x08002bef
 8002ac0:	080027ab 	.word	0x080027ab
 8002ac4:	080027ab 	.word	0x080027ab
 8002ac8:	080027ab 	.word	0x080027ab
 8002acc:	08002ad3 	.word	0x08002ad3
 8002ad0:	486f      	ldr	r0, [pc, #444]	; (8002c90 <HAL_UART_Init.constprop.0+0x554>)
 8002ad2:	6862      	ldr	r2, [r4, #4]
 8002ad4:	0853      	lsrs	r3, r2, #1
 8002ad6:	eb03 0040 	add.w	r0, r3, r0, lsl #1
 8002ada:	f64f 73ef 	movw	r3, #65519	; 0xffef
 8002ade:	fbb0 f0f2 	udiv	r0, r0, r2
 8002ae2:	f1a0 0210 	sub.w	r2, r0, #16
 8002ae6:	429a      	cmp	r2, r3
 8002ae8:	f63f ae5f 	bhi.w	80027aa <HAL_UART_Init.constprop.0+0x6e>
 8002aec:	f020 030f 	bic.w	r3, r0, #15
 8002af0:	b29b      	uxth	r3, r3
 8002af2:	6825      	ldr	r5, [r4, #0]
 8002af4:	f3c0 0042 	ubfx	r0, r0, #1, #3
 8002af8:	4318      	orrs	r0, r3
 8002afa:	2300      	movs	r3, #0
 8002afc:	60e8      	str	r0, [r5, #12]
 8002afe:	e9c4 3319 	strd	r3, r3, [r4, #100]	; 0x64
 8002b02:	e758      	b.n	80029b6 <HAL_UART_Init.constprop.0+0x27a>
 8002b04:	f06f 437e 	mvn.w	r3, #4261412864	; 0xfe000000
 8002b08:	4632      	mov	r2, r6
 8002b0a:	f44f 1100 	mov.w	r1, #2097152	; 0x200000
 8002b0e:	4620      	mov	r0, r4
 8002b10:	f7fd fbac 	bl	800026c <UART_WaitOnFlagUntilTimeout.constprop.0>
 8002b14:	2800      	cmp	r0, #0
 8002b16:	d157      	bne.n	8002bc8 <HAL_UART_Init.constprop.0+0x48c>
 8002b18:	6825      	ldr	r5, [r4, #0]
 8002b1a:	e765      	b.n	80029e8 <HAL_UART_Init.constprop.0+0x2ac>
 8002b1c:	07de      	lsls	r6, r3, #31
 8002b1e:	d505      	bpl.n	8002b2c <HAL_UART_Init.constprop.0+0x3f0>
 8002b20:	686a      	ldr	r2, [r5, #4]
 8002b22:	6aa1      	ldr	r1, [r4, #40]	; 0x28
 8002b24:	f422 3200 	bic.w	r2, r2, #131072	; 0x20000
 8002b28:	430a      	orrs	r2, r1
 8002b2a:	606a      	str	r2, [r5, #4]
 8002b2c:	0798      	lsls	r0, r3, #30
 8002b2e:	d505      	bpl.n	8002b3c <HAL_UART_Init.constprop.0+0x400>
 8002b30:	686a      	ldr	r2, [r5, #4]
 8002b32:	6ae1      	ldr	r1, [r4, #44]	; 0x2c
 8002b34:	f422 3280 	bic.w	r2, r2, #65536	; 0x10000
 8002b38:	430a      	orrs	r2, r1
 8002b3a:	606a      	str	r2, [r5, #4]
 8002b3c:	0759      	lsls	r1, r3, #29
 8002b3e:	d505      	bpl.n	8002b4c <HAL_UART_Init.constprop.0+0x410>
 8002b40:	686a      	ldr	r2, [r5, #4]
 8002b42:	6b21      	ldr	r1, [r4, #48]	; 0x30
 8002b44:	f422 2280 	bic.w	r2, r2, #262144	; 0x40000
 8002b48:	430a      	orrs	r2, r1
 8002b4a:	606a      	str	r2, [r5, #4]
 8002b4c:	071a      	lsls	r2, r3, #28
 8002b4e:	d505      	bpl.n	8002b5c <HAL_UART_Init.constprop.0+0x420>
 8002b50:	686a      	ldr	r2, [r5, #4]
 8002b52:	6b61      	ldr	r1, [r4, #52]	; 0x34
 8002b54:	f422 4200 	bic.w	r2, r2, #32768	; 0x8000
 8002b58:	430a      	orrs	r2, r1
 8002b5a:	606a      	str	r2, [r5, #4]
 8002b5c:	06df      	lsls	r7, r3, #27
 8002b5e:	d505      	bpl.n	8002b6c <HAL_UART_Init.constprop.0+0x430>
 8002b60:	68aa      	ldr	r2, [r5, #8]
 8002b62:	6ba1      	ldr	r1, [r4, #56]	; 0x38
 8002b64:	f422 5280 	bic.w	r2, r2, #4096	; 0x1000
 8002b68:	430a      	orrs	r2, r1
 8002b6a:	60aa      	str	r2, [r5, #8]
 8002b6c:	069e      	lsls	r6, r3, #26
 8002b6e:	d505      	bpl.n	8002b7c <HAL_UART_Init.constprop.0+0x440>
 8002b70:	68aa      	ldr	r2, [r5, #8]
 8002b72:	6be1      	ldr	r1, [r4, #60]	; 0x3c
 8002b74:	f422 5200 	bic.w	r2, r2, #8192	; 0x2000
 8002b78:	430a      	orrs	r2, r1
 8002b7a:	60aa      	str	r2, [r5, #8]
 8002b7c:	0658      	lsls	r0, r3, #25
 8002b7e:	d50e      	bpl.n	8002b9e <HAL_UART_Init.constprop.0+0x462>
 8002b80:	686a      	ldr	r2, [r5, #4]
 8002b82:	6c21      	ldr	r1, [r4, #64]	; 0x40
 8002b84:	f422 1280 	bic.w	r2, r2, #1048576	; 0x100000
 8002b88:	430a      	orrs	r2, r1
 8002b8a:	f5b1 1f80 	cmp.w	r1, #1048576	; 0x100000
 8002b8e:	606a      	str	r2, [r5, #4]
 8002b90:	d105      	bne.n	8002b9e <HAL_UART_Init.constprop.0+0x462>
 8002b92:	686a      	ldr	r2, [r5, #4]
 8002b94:	6c61      	ldr	r1, [r4, #68]	; 0x44
 8002b96:	f422 02c0 	bic.w	r2, r2, #6291456	; 0x600000
 8002b9a:	430a      	orrs	r2, r1
 8002b9c:	606a      	str	r2, [r5, #4]
 8002b9e:	0619      	lsls	r1, r3, #24
 8002ba0:	f57f af0d 	bpl.w	80029be <HAL_UART_Init.constprop.0+0x282>
 8002ba4:	686b      	ldr	r3, [r5, #4]
 8002ba6:	6ca2      	ldr	r2, [r4, #72]	; 0x48
 8002ba8:	f423 2300 	bic.w	r3, r3, #524288	; 0x80000
 8002bac:	4313      	orrs	r3, r2
 8002bae:	606b      	str	r3, [r5, #4]
 8002bb0:	e705      	b.n	80029be <HAL_UART_Init.constprop.0+0x282>
 8002bb2:	4632      	mov	r2, r6
 8002bb4:	f06f 437e 	mvn.w	r3, #4261412864	; 0xfe000000
 8002bb8:	f44f 0180 	mov.w	r1, #4194304	; 0x400000
 8002bbc:	4620      	mov	r0, r4
 8002bbe:	f7fd fb55 	bl	800026c <UART_WaitOnFlagUntilTimeout.constprop.0>
 8002bc2:	2800      	cmp	r0, #0
 8002bc4:	f43f af14 	beq.w	80029f0 <HAL_UART_Init.constprop.0+0x2b4>
 8002bc8:	2003      	movs	r0, #3
 8002bca:	e5f2      	b.n	80027b2 <HAL_UART_Init.constprop.0+0x76>
 8002bcc:	f503 33e6 	add.w	r3, r3, #117760	; 0x1cc00
 8002bd0:	4a30      	ldr	r2, [pc, #192]	; (8002c94 <HAL_UART_Init.constprop.0+0x558>)
 8002bd2:	f8d3 3088 	ldr.w	r3, [r3, #136]	; 0x88
 8002bd6:	f003 030c 	and.w	r3, r3, #12
 8002bda:	4413      	add	r3, r2
 8002bdc:	f893 39b4 	ldrb.w	r3, [r3, #2484]	; 0x9b4
 8002be0:	e5f7      	b.n	80027d2 <HAL_UART_Init.constprop.0+0x96>
 8002be2:	f7ff fad5 	bl	8002190 <HAL_RCC_GetPCLK1Freq>
 8002be6:	2800      	cmp	r0, #0
 8002be8:	f43f af23 	beq.w	8002a32 <HAL_UART_Init.constprop.0+0x2f6>
 8002bec:	e771      	b.n	8002ad2 <HAL_UART_Init.constprop.0+0x396>
 8002bee:	f7ff fae3 	bl	80021b8 <HAL_RCC_GetSysClockFreq>
 8002bf2:	2800      	cmp	r0, #0
 8002bf4:	f43f af1d 	beq.w	8002a32 <HAL_UART_Init.constprop.0+0x2f6>
 8002bf8:	e76b      	b.n	8002ad2 <HAL_UART_Init.constprop.0+0x396>
 8002bfa:	4b27      	ldr	r3, [pc, #156]	; (8002c98 <HAL_UART_Init.constprop.0+0x55c>)
 8002bfc:	4927      	ldr	r1, [pc, #156]	; (8002c9c <HAL_UART_Init.constprop.0+0x560>)
 8002bfe:	689b      	ldr	r3, [r3, #8]
 8002c00:	6808      	ldr	r0, [r1, #0]
 8002c02:	f3c3 23c2 	ubfx	r3, r3, #11, #3
 8002c06:	441a      	add	r2, r3
 8002c08:	f892 3978 	ldrb.w	r3, [r2, #2424]	; 0x978
 8002c0c:	f003 031f 	and.w	r3, r3, #31
 8002c10:	40d8      	lsrs	r0, r3
 8002c12:	2800      	cmp	r0, #0
 8002c14:	f43f af0d 	beq.w	8002a32 <HAL_UART_Init.constprop.0+0x2f6>
 8002c18:	e75b      	b.n	8002ad2 <HAL_UART_Init.constprop.0+0x396>
 8002c1a:	f7ff fab9 	bl	8002190 <HAL_RCC_GetPCLK1Freq>
 8002c1e:	2800      	cmp	r0, #0
 8002c20:	f43f af07 	beq.w	8002a32 <HAL_UART_Init.constprop.0+0x2f6>
 8002c24:	e68b      	b.n	800293e <HAL_UART_Init.constprop.0+0x202>
 8002c26:	481a      	ldr	r0, [pc, #104]	; (8002c90 <HAL_UART_Init.constprop.0+0x554>)
 8002c28:	e689      	b.n	800293e <HAL_UART_Init.constprop.0+0x202>
 8002c2a:	2301      	movs	r3, #1
 8002c2c:	a809      	add	r0, sp, #36	; 0x24
 8002c2e:	9611      	str	r6, [sp, #68]	; 0x44
 8002c30:	9309      	str	r3, [sp, #36]	; 0x24
 8002c32:	f7ff f901 	bl	8001e38 <HAL_RCCEx_PeriphCLKConfig>
 8002c36:	bb18      	cbnz	r0, 8002c80 <HAL_UART_Init.constprop.0+0x544>
 8002c38:	4b17      	ldr	r3, [pc, #92]	; (8002c98 <HAL_UART_Init.constprop.0+0x55c>)
 8002c3a:	6e1a      	ldr	r2, [r3, #96]	; 0x60
 8002c3c:	f442 4280 	orr.w	r2, r2, #16384	; 0x4000
 8002c40:	661a      	str	r2, [r3, #96]	; 0x60
 8002c42:	6e1a      	ldr	r2, [r3, #96]	; 0x60
 8002c44:	f402 4280 	and.w	r2, r2, #16384	; 0x4000
 8002c48:	9203      	str	r2, [sp, #12]
 8002c4a:	9a03      	ldr	r2, [sp, #12]
 8002c4c:	6cda      	ldr	r2, [r3, #76]	; 0x4c
 8002c4e:	f042 0201 	orr.w	r2, r2, #1
 8002c52:	64da      	str	r2, [r3, #76]	; 0x4c
 8002c54:	6cdb      	ldr	r3, [r3, #76]	; 0x4c
 8002c56:	9006      	str	r0, [sp, #24]
 8002c58:	f003 0301 	and.w	r3, r3, #1
 8002c5c:	f44f 60c0 	mov.w	r0, #1536	; 0x600
 8002c60:	9302      	str	r3, [sp, #8]
 8002c62:	2502      	movs	r5, #2
 8002c64:	2203      	movs	r2, #3
 8002c66:	2307      	movs	r3, #7
 8002c68:	9004      	str	r0, [sp, #16]
 8002c6a:	a904      	add	r1, sp, #16
 8002c6c:	f04f 4090 	mov.w	r0, #1207959552	; 0x48000000
 8002c70:	9505      	str	r5, [sp, #20]
 8002c72:	e9cd 2307 	strd	r2, r3, [sp, #28]
 8002c76:	9e02      	ldr	r6, [sp, #8]
 8002c78:	f7ff faf4 	bl	8002264 <HAL_GPIO_Init>
 8002c7c:	6825      	ldr	r5, [r4, #0]
 8002c7e:	e565      	b.n	800274c <HAL_UART_Init.constprop.0+0x10>
 8002c80:	f7ff fca6 	bl	80025d0 <__NVIC_SystemReset>
 8002c84:	f5b0 4f00 	cmp.w	r0, #32768	; 0x8000
 8002c88:	4801      	ldr	r0, [pc, #4]	; (8002c90 <HAL_UART_Init.constprop.0+0x554>)
 8002c8a:	f47f ae83 	bne.w	8002994 <HAL_UART_Init.constprop.0+0x258>
 8002c8e:	e720      	b.n	8002ad2 <HAL_UART_Init.constprop.0+0x396>
 8002c90:	00f42400 	.word	0x00f42400
 8002c94:	0800b5e0 	.word	0x0800b5e0
 8002c98:	40021000 	.word	0x40021000
 8002c9c:	20000000 	.word	0x20000000

08002ca0 <acc_hal_integration_sensor_transfer16>:
 8002ca0:	b570      	push	{r4, r5, r6, lr}
 8002ca2:	4c86      	ldr	r4, [pc, #536]	; (8002ebc <acc_hal_integration_sensor_transfer16+0x21c>)
 8002ca4:	f894 3134 	ldrb.w	r3, [r4, #308]	; 0x134
 8002ca8:	2000      	movs	r0, #0
 8002caa:	2b01      	cmp	r3, #1
 8002cac:	f884 0044 	strb.w	r0, [r4, #68]	; 0x44
 8002cb0:	d00f      	beq.n	8002cd2 <acc_hal_integration_sensor_transfer16+0x32>
 8002cb2:	f894 3135 	ldrb.w	r3, [r4, #309]	; 0x135
 8002cb6:	2001      	movs	r0, #1
 8002cb8:	4283      	cmp	r3, r0
 8002cba:	b2dd      	uxtb	r5, r3
 8002cbc:	f884 0134 	strb.w	r0, [r4, #308]	; 0x134
 8002cc0:	d00e      	beq.n	8002ce0 <acc_hal_integration_sensor_transfer16+0x40>
 8002cc2:	f8d4 30dc 	ldr.w	r3, [r4, #220]	; 0xdc
 8002cc6:	f5b3 7f82 	cmp.w	r3, #260	; 0x104
 8002cca:	d003      	beq.n	8002cd4 <acc_hal_integration_sensor_transfer16+0x34>
 8002ccc:	2300      	movs	r3, #0
 8002cce:	f884 3134 	strb.w	r3, [r4, #308]	; 0x134
 8002cd2:	bd70      	pop	{r4, r5, r6, pc}
 8002cd4:	f8d4 30e0 	ldr.w	r3, [r4, #224]	; 0xe0
 8002cd8:	2b00      	cmp	r3, #0
 8002cda:	d1f7      	bne.n	8002ccc <acc_hal_integration_sensor_transfer16+0x2c>
 8002cdc:	2d04      	cmp	r5, #4
 8002cde:	d1f5      	bne.n	8002ccc <acc_hal_integration_sensor_transfer16+0x2c>
 8002ce0:	2900      	cmp	r1, #0
 8002ce2:	d0f3      	beq.n	8002ccc <acc_hal_integration_sensor_transfer16+0x2c>
 8002ce4:	b293      	uxth	r3, r2
 8002ce6:	2b00      	cmp	r3, #0
 8002ce8:	d0f0      	beq.n	8002ccc <acc_hal_integration_sensor_transfer16+0x2c>
 8002cea:	f894 2135 	ldrb.w	r2, [r4, #309]	; 0x135
 8002cee:	f8d4 50d8 	ldr.w	r5, [r4, #216]	; 0xd8
 8002cf2:	f8d4 60e4 	ldr.w	r6, [r4, #228]	; 0xe4
 8002cf6:	2a04      	cmp	r2, #4
 8002cf8:	bf18      	it	ne
 8002cfa:	2205      	movne	r2, #5
 8002cfc:	f04f 0000 	mov.w	r0, #0
 8002d00:	bf18      	it	ne
 8002d02:	f884 2135 	strbne.w	r2, [r4, #309]	; 0x135
 8002d06:	f8c4 0138 	str.w	r0, [r4, #312]	; 0x138
 8002d0a:	f8a4 3116 	strh.w	r3, [r4, #278]	; 0x116
 8002d0e:	f8a4 311e 	strh.w	r3, [r4, #286]	; 0x11e
 8002d12:	686a      	ldr	r2, [r5, #4]
 8002d14:	f8c4 1110 	str.w	r1, [r4, #272]	; 0x110
 8002d18:	f422 42c0 	bic.w	r2, r2, #24576	; 0x6000
 8002d1c:	f5b6 6fe0 	cmp.w	r6, #1792	; 0x700
 8002d20:	e9c4 0049 	strd	r0, r0, [r4, #292]	; 0x124
 8002d24:	f8a4 3114 	strh.w	r3, [r4, #276]	; 0x114
 8002d28:	f8c4 1118 	str.w	r1, [r4, #280]	; 0x118
 8002d2c:	f8a4 311c 	strh.w	r3, [r4, #284]	; 0x11c
 8002d30:	606a      	str	r2, [r5, #4]
 8002d32:	d929      	bls.n	8002d88 <acc_hal_integration_sensor_transfer16+0xe8>
 8002d34:	686b      	ldr	r3, [r5, #4]
 8002d36:	f8d4 0130 	ldr.w	r0, [r4, #304]	; 0x130
 8002d3a:	f423 5380 	bic.w	r3, r3, #4096	; 0x1000
 8002d3e:	606b      	str	r3, [r5, #4]
 8002d40:	f894 3135 	ldrb.w	r3, [r4, #309]	; 0x135
 8002d44:	2b04      	cmp	r3, #4
 8002d46:	bf07      	ittee	eq
 8002d48:	4a5d      	ldreq	r2, [pc, #372]	; (8002ec0 <acc_hal_integration_sensor_transfer16+0x220>)
 8002d4a:	4b5e      	ldreq	r3, [pc, #376]	; (8002ec4 <acc_hal_integration_sensor_transfer16+0x224>)
 8002d4c:	4a5e      	ldrne	r2, [pc, #376]	; (8002ec8 <acc_hal_integration_sensor_transfer16+0x228>)
 8002d4e:	4b5f      	ldrne	r3, [pc, #380]	; (8002ecc <acc_hal_integration_sensor_transfer16+0x22c>)
 8002d50:	e9c0 320b 	strd	r3, r2, [r0, #44]	; 0x2c
 8002d54:	f8b4 311e 	ldrh.w	r3, [r4, #286]	; 0x11e
 8002d58:	4a5d      	ldr	r2, [pc, #372]	; (8002ed0 <acc_hal_integration_sensor_transfer16+0x230>)
 8002d5a:	6342      	str	r2, [r0, #52]	; 0x34
 8002d5c:	2600      	movs	r6, #0
 8002d5e:	460a      	mov	r2, r1
 8002d60:	b29b      	uxth	r3, r3
 8002d62:	f105 010c 	add.w	r1, r5, #12
 8002d66:	6386      	str	r6, [r0, #56]	; 0x38
 8002d68:	f7ff fbb6 	bl	80024d8 <HAL_DMA_Start_IT>
 8002d6c:	4605      	mov	r5, r0
 8002d6e:	b378      	cbz	r0, 8002dd0 <acc_hal_integration_sensor_transfer16+0x130>
 8002d70:	f8d4 3138 	ldr.w	r3, [r4, #312]	; 0x138
 8002d74:	f884 6134 	strb.w	r6, [r4, #308]	; 0x134
 8002d78:	f043 0310 	orr.w	r3, r3, #16
 8002d7c:	2201      	movs	r2, #1
 8002d7e:	f8c4 3138 	str.w	r3, [r4, #312]	; 0x138
 8002d82:	f884 2135 	strb.w	r2, [r4, #309]	; 0x135
 8002d86:	bd70      	pop	{r4, r5, r6, pc}
 8002d88:	f8d4 012c 	ldr.w	r0, [r4, #300]	; 0x12c
 8002d8c:	686a      	ldr	r2, [r5, #4]
 8002d8e:	6980      	ldr	r0, [r0, #24]
 8002d90:	f442 5280 	orr.w	r2, r2, #4096	; 0x1000
 8002d94:	f5b0 6f80 	cmp.w	r0, #1024	; 0x400
 8002d98:	606a      	str	r2, [r5, #4]
 8002d9a:	d05f      	beq.n	8002e5c <acc_hal_integration_sensor_transfer16+0x1bc>
 8002d9c:	f8d4 0130 	ldr.w	r0, [r4, #304]	; 0x130
 8002da0:	6983      	ldr	r3, [r0, #24]
 8002da2:	f5b3 6f80 	cmp.w	r3, #1024	; 0x400
 8002da6:	d1cb      	bne.n	8002d40 <acc_hal_integration_sensor_transfer16+0xa0>
 8002da8:	686b      	ldr	r3, [r5, #4]
 8002daa:	f423 5380 	bic.w	r3, r3, #4096	; 0x1000
 8002dae:	606b      	str	r3, [r5, #4]
 8002db0:	f8b4 311e 	ldrh.w	r3, [r4, #286]	; 0x11e
 8002db4:	f013 0f01 	tst.w	r3, #1
 8002db8:	686b      	ldr	r3, [r5, #4]
 8002dba:	d169      	bne.n	8002e90 <acc_hal_integration_sensor_transfer16+0x1f0>
 8002dbc:	f423 5300 	bic.w	r3, r3, #8192	; 0x2000
 8002dc0:	606b      	str	r3, [r5, #4]
 8002dc2:	f8b4 311e 	ldrh.w	r3, [r4, #286]	; 0x11e
 8002dc6:	f3c3 034e 	ubfx	r3, r3, #1, #15
 8002dca:	f8a4 311e 	strh.w	r3, [r4, #286]	; 0x11e
 8002dce:	e7b7      	b.n	8002d40 <acc_hal_integration_sensor_transfer16+0xa0>
 8002dd0:	f8d4 20d8 	ldr.w	r2, [r4, #216]	; 0xd8
 8002dd4:	f8d4 012c 	ldr.w	r0, [r4, #300]	; 0x12c
 8002dd8:	6853      	ldr	r3, [r2, #4]
 8002dda:	f8d4 1110 	ldr.w	r1, [r4, #272]	; 0x110
 8002dde:	f043 0301 	orr.w	r3, r3, #1
 8002de2:	6053      	str	r3, [r2, #4]
 8002de4:	f8b4 3116 	ldrh.w	r3, [r4, #278]	; 0x116
 8002de8:	6305      	str	r5, [r0, #48]	; 0x30
 8002dea:	e9c0 550d 	strd	r5, r5, [r0, #52]	; 0x34
 8002dee:	320c      	adds	r2, #12
 8002df0:	b29b      	uxth	r3, r3
 8002df2:	62c5      	str	r5, [r0, #44]	; 0x2c
 8002df4:	f7ff fb70 	bl	80024d8 <HAL_DMA_Start_IT>
 8002df8:	2800      	cmp	r0, #0
 8002dfa:	d13d      	bne.n	8002e78 <acc_hal_integration_sensor_transfer16+0x1d8>
 8002dfc:	f8d4 30d8 	ldr.w	r3, [r4, #216]	; 0xd8
 8002e00:	681a      	ldr	r2, [r3, #0]
 8002e02:	0652      	lsls	r2, r2, #25
 8002e04:	d525      	bpl.n	8002e52 <acc_hal_integration_sensor_transfer16+0x1b2>
 8002e06:	685a      	ldr	r2, [r3, #4]
 8002e08:	f042 0220 	orr.w	r2, r2, #32
 8002e0c:	605a      	str	r2, [r3, #4]
 8002e0e:	685a      	ldr	r2, [r3, #4]
 8002e10:	f042 0202 	orr.w	r2, r2, #2
 8002e14:	605a      	str	r2, [r3, #4]
 8002e16:	6822      	ldr	r2, [r4, #0]
 8002e18:	f894 3044 	ldrb.w	r3, [r4, #68]	; 0x44
 8002e1c:	2100      	movs	r1, #0
 8002e1e:	f884 1134 	strb.w	r1, [r4, #308]	; 0x134
 8002e22:	2b00      	cmp	r3, #0
 8002e24:	f47f af55 	bne.w	8002cd2 <acc_hal_integration_sensor_transfer16+0x32>
 8002e28:	f241 3187 	movw	r1, #4999	; 0x1387
 8002e2c:	e00c      	b.n	8002e48 <acc_hal_integration_sensor_transfer16+0x1a8>
 8002e2e:	b672      	cpsid	i
 8002e30:	f894 3044 	ldrb.w	r3, [r4, #68]	; 0x44
 8002e34:	b903      	cbnz	r3, 8002e38 <acc_hal_integration_sensor_transfer16+0x198>
 8002e36:	bf30      	wfi
 8002e38:	b662      	cpsie	i
 8002e3a:	f3bf 8f6f 	isb	sy
 8002e3e:	f894 3044 	ldrb.w	r3, [r4, #68]	; 0x44
 8002e42:	2b00      	cmp	r3, #0
 8002e44:	f47f af45 	bne.w	8002cd2 <acc_hal_integration_sensor_transfer16+0x32>
 8002e48:	6823      	ldr	r3, [r4, #0]
 8002e4a:	1a9b      	subs	r3, r3, r2
 8002e4c:	428b      	cmp	r3, r1
 8002e4e:	d9ee      	bls.n	8002e2e <acc_hal_integration_sensor_transfer16+0x18e>
 8002e50:	bd70      	pop	{r4, r5, r6, pc}
 8002e52:	681a      	ldr	r2, [r3, #0]
 8002e54:	f042 0240 	orr.w	r2, r2, #64	; 0x40
 8002e58:	601a      	str	r2, [r3, #0]
 8002e5a:	e7d4      	b.n	8002e06 <acc_hal_integration_sensor_transfer16+0x166>
 8002e5c:	f013 0f01 	tst.w	r3, #1
 8002e60:	686b      	ldr	r3, [r5, #4]
 8002e62:	d120      	bne.n	8002ea6 <acc_hal_integration_sensor_transfer16+0x206>
 8002e64:	f423 4380 	bic.w	r3, r3, #16384	; 0x4000
 8002e68:	606b      	str	r3, [r5, #4]
 8002e6a:	f8b4 3116 	ldrh.w	r3, [r4, #278]	; 0x116
 8002e6e:	f3c3 034e 	ubfx	r3, r3, #1, #15
 8002e72:	f8a4 3116 	strh.w	r3, [r4, #278]	; 0x116
 8002e76:	e791      	b.n	8002d9c <acc_hal_integration_sensor_transfer16+0xfc>
 8002e78:	f8d4 3138 	ldr.w	r3, [r4, #312]	; 0x138
 8002e7c:	f884 5134 	strb.w	r5, [r4, #308]	; 0x134
 8002e80:	f043 0310 	orr.w	r3, r3, #16
 8002e84:	2201      	movs	r2, #1
 8002e86:	f8c4 3138 	str.w	r3, [r4, #312]	; 0x138
 8002e8a:	f884 2135 	strb.w	r2, [r4, #309]	; 0x135
 8002e8e:	bd70      	pop	{r4, r5, r6, pc}
 8002e90:	f443 5300 	orr.w	r3, r3, #8192	; 0x2000
 8002e94:	606b      	str	r3, [r5, #4]
 8002e96:	f8b4 311e 	ldrh.w	r3, [r4, #286]	; 0x11e
 8002e9a:	f3c3 034e 	ubfx	r3, r3, #1, #15
 8002e9e:	3301      	adds	r3, #1
 8002ea0:	f8a4 311e 	strh.w	r3, [r4, #286]	; 0x11e
 8002ea4:	e74c      	b.n	8002d40 <acc_hal_integration_sensor_transfer16+0xa0>
 8002ea6:	f443 4380 	orr.w	r3, r3, #16384	; 0x4000
 8002eaa:	606b      	str	r3, [r5, #4]
 8002eac:	f8b4 3116 	ldrh.w	r3, [r4, #278]	; 0x116
 8002eb0:	f3c3 034e 	ubfx	r3, r3, #1, #15
 8002eb4:	3301      	adds	r3, #1
 8002eb6:	f8a4 3116 	strh.w	r3, [r4, #278]	; 0x116
 8002eba:	e76f      	b.n	8002d9c <acc_hal_integration_sensor_transfer16+0xfc>
 8002ebc:	200000ac 	.word	0x200000ac
 8002ec0:	08001bdd 	.word	0x08001bdd
 8002ec4:	08001c5d 	.word	0x08001c5d
 8002ec8:	08001be1 	.word	0x08001be1
 8002ecc:	08001be5 	.word	0x08001be5
 8002ed0:	08001bb9 	.word	0x08001bb9

08002ed4 <acc_control_helper_destroy>:
 8002ed4:	b510      	push	{r4, lr}
 8002ed6:	4604      	mov	r4, r0
 8002ed8:	6840      	ldr	r0, [r0, #4]
 8002eda:	b118      	cbz	r0, 8002ee4 <acc_control_helper_destroy+0x10>
 8002edc:	f7fe fe06 	bl	8001aec <acc_sensor_destroy>
 8002ee0:	2300      	movs	r3, #0
 8002ee2:	6063      	str	r3, [r4, #4]
 8002ee4:	6920      	ldr	r0, [r4, #16]
 8002ee6:	b118      	cbz	r0, 8002ef0 <acc_control_helper_destroy+0x1c>
 8002ee8:	f007 fdc2 	bl	800aa70 <free>
 8002eec:	2300      	movs	r3, #0
 8002eee:	6123      	str	r3, [r4, #16]
 8002ef0:	6820      	ldr	r0, [r4, #0]
 8002ef2:	b158      	cbz	r0, 8002f0c <acc_control_helper_destroy+0x38>
 8002ef4:	4b0f      	ldr	r3, [pc, #60]	; (8002f34 <acc_control_helper_destroy+0x60>)
 8002ef6:	6802      	ldr	r2, [r0, #0]
 8002ef8:	429a      	cmp	r2, r3
 8002efa:	d015      	beq.n	8002f28 <acc_control_helper_destroy+0x54>
 8002efc:	4b0e      	ldr	r3, [pc, #56]	; (8002f38 <acc_control_helper_destroy+0x64>)
 8002efe:	4a0f      	ldr	r2, [pc, #60]	; (8002f3c <acc_control_helper_destroy+0x68>)
 8002f00:	6bdb      	ldr	r3, [r3, #60]	; 0x3c
 8002f02:	490f      	ldr	r1, [pc, #60]	; (8002f40 <acc_control_helper_destroy+0x6c>)
 8002f04:	2000      	movs	r0, #0
 8002f06:	4798      	blx	r3
 8002f08:	2300      	movs	r3, #0
 8002f0a:	6023      	str	r3, [r4, #0]
 8002f0c:	68e0      	ldr	r0, [r4, #12]
 8002f0e:	b118      	cbz	r0, 8002f18 <acc_control_helper_destroy+0x44>
 8002f10:	f7fe fe0e 	bl	8001b30 <acc_processing_destroy>
 8002f14:	2300      	movs	r3, #0
 8002f16:	60e3      	str	r3, [r4, #12]
 8002f18:	4b0a      	ldr	r3, [pc, #40]	; (8002f44 <acc_control_helper_destroy+0x70>)
 8002f1a:	f44f 5280 	mov.w	r2, #4096	; 0x1000
 8002f1e:	e8bd 4010 	ldmia.w	sp!, {r4, lr}
 8002f22:	629a      	str	r2, [r3, #40]	; 0x28
 8002f24:	f7ff bb66 	b.w	80025f4 <acc_integration_sleep_us.constprop.0>
 8002f28:	2300      	movs	r3, #0
 8002f2a:	6003      	str	r3, [r0, #0]
 8002f2c:	f7fe f99e 	bl	800126c <acc_rss_integration_mem_free>
 8002f30:	e7ea      	b.n	8002f08 <acc_control_helper_destroy+0x34>
 8002f32:	bf00      	nop
 8002f34:	1337b00f 	.word	0x1337b00f
 8002f38:	200000ac 	.word	0x200000ac
 8002f3c:	0800fc34 	.word	0x0800fc34
 8002f40:	0800fc4c 	.word	0x0800fc4c
 8002f44:	48000400 	.word	0x48000400

08002f48 <acc_vector_float_alloc>:
 8002f48:	b570      	push	{r4, r5, r6, lr}
 8002f4a:	4605      	mov	r5, r0
 8002f4c:	2008      	movs	r0, #8
 8002f4e:	f007 fd87 	bl	800aa60 <malloc>
 8002f52:	4604      	mov	r4, r0
 8002f54:	b130      	cbz	r0, 8002f64 <acc_vector_float_alloc+0x1c>
 8002f56:	00a8      	lsls	r0, r5, #2
 8002f58:	f007 fd82 	bl	800aa60 <malloc>
 8002f5c:	4606      	mov	r6, r0
 8002f5e:	6060      	str	r0, [r4, #4]
 8002f60:	b110      	cbz	r0, 8002f68 <acc_vector_float_alloc+0x20>
 8002f62:	6025      	str	r5, [r4, #0]
 8002f64:	4620      	mov	r0, r4
 8002f66:	bd70      	pop	{r4, r5, r6, pc}
 8002f68:	4620      	mov	r0, r4
 8002f6a:	f007 fd81 	bl	800aa70 <free>
 8002f6e:	4634      	mov	r4, r6
 8002f70:	e7f8      	b.n	8002f64 <acc_vector_float_alloc+0x1c>
 8002f72:	bf00      	nop

08002f74 <acc_vector_iq_alloc>:
 8002f74:	b570      	push	{r4, r5, r6, lr}
 8002f76:	4605      	mov	r5, r0
 8002f78:	2008      	movs	r0, #8
 8002f7a:	f007 fd71 	bl	800aa60 <malloc>
 8002f7e:	4604      	mov	r4, r0
 8002f80:	b130      	cbz	r0, 8002f90 <acc_vector_iq_alloc+0x1c>
 8002f82:	00e8      	lsls	r0, r5, #3
 8002f84:	f007 fd6c 	bl	800aa60 <malloc>
 8002f88:	4606      	mov	r6, r0
 8002f8a:	6060      	str	r0, [r4, #4]
 8002f8c:	b110      	cbz	r0, 8002f94 <acc_vector_iq_alloc+0x20>
 8002f8e:	6025      	str	r5, [r4, #0]
 8002f90:	4620      	mov	r0, r4
 8002f92:	bd70      	pop	{r4, r5, r6, pc}
 8002f94:	4620      	mov	r0, r4
 8002f96:	f007 fd6b 	bl	800aa70 <free>
 8002f9a:	4634      	mov	r4, r6
 8002f9c:	e7f8      	b.n	8002f90 <acc_vector_iq_alloc+0x1c>
 8002f9e:	bf00      	nop

08002fa0 <acc_sensor_a121_lut_buffer_write.constprop.0>:
 8002fa0:	e92d 4ff8 	stmdb	sp!, {r3, r4, r5, r6, r7, r8, r9, sl, fp, lr}
 8002fa4:	4c16      	ldr	r4, [pc, #88]	; (8003000 <acc_sensor_a121_lut_buffer_write.constprop.0+0x60>)
 8002fa6:	9e0a      	ldr	r6, [sp, #40]	; 0x28
 8002fa8:	8da7      	ldrh	r7, [r4, #44]	; 0x2c
 8002faa:	3a04      	subs	r2, #4
 8002fac:	3f04      	subs	r7, #4
 8002fae:	0852      	lsrs	r2, r2, #1
 8002fb0:	087f      	lsrs	r7, r7, #1
 8002fb2:	4297      	cmp	r7, r2
 8002fb4:	460d      	mov	r5, r1
 8002fb6:	4681      	mov	r9, r0
 8002fb8:	4698      	mov	r8, r3
 8002fba:	bf28      	it	cs
 8002fbc:	4617      	movcs	r7, r2
 8002fbe:	f101 0a04 	add.w	sl, r1, #4
 8002fc2:	2400      	movs	r4, #0
 8002fc4:	1b33      	subs	r3, r6, r4
 8002fc6:	42bb      	cmp	r3, r7
 8002fc8:	bf28      	it	cs
 8002fca:	463b      	movcs	r3, r7
 8002fcc:	ea6f 4184 	mvn.w	r1, r4, lsl #18
 8002fd0:	1e5a      	subs	r2, r3, #1
 8002fd2:	ea6f 4191 	mvn.w	r1, r1, lsr #18
 8002fd6:	469b      	mov	fp, r3
 8002fd8:	806a      	strh	r2, [r5, #2]
 8002fda:	8029      	strh	r1, [r5, #0]
 8002fdc:	005a      	lsls	r2, r3, #1
 8002fde:	eb08 0144 	add.w	r1, r8, r4, lsl #1
 8002fe2:	4650      	mov	r0, sl
 8002fe4:	441c      	add	r4, r3
 8002fe6:	f007 fc21 	bl	800a82c <memcpy>
 8002fea:	f10b 0202 	add.w	r2, fp, #2
 8002fee:	2300      	movs	r3, #0
 8002ff0:	4629      	mov	r1, r5
 8002ff2:	4648      	mov	r0, r9
 8002ff4:	f7fe f964 	bl	80012c0 <acc_rss_integration_sensor_device_transfer>
 8002ff8:	42a6      	cmp	r6, r4
 8002ffa:	d8e3      	bhi.n	8002fc4 <acc_sensor_a121_lut_buffer_write.constprop.0+0x24>
 8002ffc:	e8bd 8ff8 	ldmia.w	sp!, {r3, r4, r5, r6, r7, r8, r9, sl, fp, pc}
 8003000:	200000ac 	.word	0x200000ac

08003004 <internal_buffer_processed_read.part.0.constprop.0>:
 8003004:	e92d 4ff0 	stmdb	sp!, {r4, r5, r6, r7, r8, r9, sl, fp, lr}
 8003008:	4c25      	ldr	r4, [pc, #148]	; (80030a0 <internal_buffer_processed_read.part.0.constprop.0+0x9c>)
 800300a:	b085      	sub	sp, #20
 800300c:	2600      	movs	r6, #0
 800300e:	e9cd 6602 	strd	r6, r6, [sp, #8]
 8003012:	f8b4 802c 	ldrh.w	r8, [r4, #44]	; 0x2c
 8003016:	9201      	str	r2, [sp, #4]
 8003018:	4689      	mov	r9, r1
 800301a:	2b00      	cmp	r3, #0
 800301c:	d03a      	beq.n	8003094 <internal_buffer_processed_read.part.0.constprop.0+0x90>
 800301e:	ea4f 0858 	mov.w	r8, r8, lsr #1
 8003022:	4683      	mov	fp, r0
 8003024:	f1a8 0804 	sub.w	r8, r8, #4
 8003028:	469a      	mov	sl, r3
 800302a:	460d      	mov	r5, r1
 800302c:	461f      	mov	r7, r3
 800302e:	e026      	b.n	800307e <internal_buffer_processed_read.part.0.constprop.0+0x7a>
 8003030:	9b01      	ldr	r3, [sp, #4]
 8003032:	f248 0100 	movw	r1, #32768	; 0x8000
 8003036:	199a      	adds	r2, r3, r6
 8003038:	8029      	strh	r1, [r5, #0]
 800303a:	1e63      	subs	r3, r4, #1
 800303c:	f04f 0100 	mov.w	r1, #0
 8003040:	80e9      	strh	r1, [r5, #6]
 8003042:	806a      	strh	r2, [r5, #2]
 8003044:	80ab      	strh	r3, [r5, #4]
 8003046:	0062      	lsls	r2, r4, #1
 8003048:	2100      	movs	r1, #0
 800304a:	f105 0008 	add.w	r0, r5, #8
 800304e:	f006 fe98 	bl	8009d82 <memset>
 8003052:	4629      	mov	r1, r5
 8003054:	2301      	movs	r3, #1
 8003056:	4658      	mov	r0, fp
 8003058:	1d22      	adds	r2, r4, #4
 800305a:	f7fe f931 	bl	80012c0 <acc_rss_integration_sensor_device_transfer>
 800305e:	ab02      	add	r3, sp, #8
 8003060:	cb03      	ldmia	r3!, {r0, r1}
 8003062:	4426      	add	r6, r4
 8003064:	6069      	str	r1, [r5, #4]
 8003066:	6028      	str	r0, [r5, #0]
 8003068:	eb09 0546 	add.w	r5, r9, r6, lsl #1
 800306c:	f859 0016 	ldr.w	r0, [r9, r6, lsl #1]
 8003070:	6869      	ldr	r1, [r5, #4]
 8003072:	ab02      	add	r3, sp, #8
 8003074:	4556      	cmp	r6, sl
 8003076:	c303      	stmia	r3!, {r0, r1}
 8003078:	eba7 0704 	sub.w	r7, r7, r4
 800307c:	d20a      	bcs.n	8003094 <internal_buffer_processed_read.part.0.constprop.0+0x90>
 800307e:	45b8      	cmp	r8, r7
 8003080:	4644      	mov	r4, r8
 8003082:	bf28      	it	cs
 8003084:	463c      	movcs	r4, r7
 8003086:	45b8      	cmp	r8, r7
 8003088:	d2d2      	bcs.n	8003030 <internal_buffer_processed_read.part.0.constprop.0+0x2c>
 800308a:	e000      	b.n	800308e <internal_buffer_processed_read.part.0.constprop.0+0x8a>
 800308c:	3c01      	subs	r4, #1
 800308e:	07e3      	lsls	r3, r4, #31
 8003090:	d4fc      	bmi.n	800308c <internal_buffer_processed_read.part.0.constprop.0+0x88>
 8003092:	e7cd      	b.n	8003030 <internal_buffer_processed_read.part.0.constprop.0+0x2c>
 8003094:	f109 0008 	add.w	r0, r9, #8
 8003098:	b005      	add	sp, #20
 800309a:	e8bd 8ff0 	ldmia.w	sp!, {r4, r5, r6, r7, r8, r9, sl, fp, pc}
 800309e:	bf00      	nop
 80030a0:	200000ac 	.word	0x200000ac

080030a4 <acc_confprogram_live_patch.constprop.0>:
 80030a4:	e92d 4ff0 	stmdb	sp!, {r4, r5, r6, r7, r8, r9, sl, fp, lr}
 80030a8:	f8df b118 	ldr.w	fp, [pc, #280]	; 80031c4 <acc_confprogram_live_patch.constprop.0+0x120>
 80030ac:	f89b 4028 	ldrb.w	r4, [fp, #40]	; 0x28
 80030b0:	b089      	sub	sp, #36	; 0x24
 80030b2:	2c03      	cmp	r4, #3
 80030b4:	9f12      	ldr	r7, [sp, #72]	; 0x48
 80030b6:	4680      	mov	r8, r0
 80030b8:	4689      	mov	r9, r1
 80030ba:	4615      	mov	r5, r2
 80030bc:	461e      	mov	r6, r3
 80030be:	d906      	bls.n	80030ce <acc_confprogram_live_patch.constprop.0+0x2a>
 80030c0:	f8db 403c 	ldr.w	r4, [fp, #60]	; 0x3c
 80030c4:	4a3b      	ldr	r2, [pc, #236]	; (80031b4 <acc_confprogram_live_patch.constprop.0+0x110>)
 80030c6:	493c      	ldr	r1, [pc, #240]	; (80031b8 <acc_confprogram_live_patch.constprop.0+0x114>)
 80030c8:	9700      	str	r7, [sp, #0]
 80030ca:	2004      	movs	r0, #4
 80030cc:	47a0      	blx	r4
 80030ce:	eb05 06c6 	add.w	r6, r5, r6, lsl #3
 80030d2:	8873      	ldrh	r3, [r6, #2]
 80030d4:	b31b      	cbz	r3, 800311e <acc_confprogram_live_patch.constprop.0+0x7a>
 80030d6:	2500      	movs	r5, #0
 80030d8:	6873      	ldr	r3, [r6, #4]
 80030da:	f853 4025 	ldr.w	r4, [r3, r5, lsl #2]
 80030de:	f3c4 7001 	ubfx	r0, r4, #28, #2
 80030e2:	2801      	cmp	r0, #1
 80030e4:	d00c      	beq.n	8003100 <acc_confprogram_live_patch.constprop.0+0x5c>
 80030e6:	2802      	cmp	r0, #2
 80030e8:	d032      	beq.n	8003150 <acc_confprogram_live_patch.constprop.0+0xac>
 80030ea:	b1e0      	cbz	r0, 8003126 <acc_confprogram_live_patch.constprop.0+0x82>
 80030ec:	f8db 303c 	ldr.w	r3, [fp, #60]	; 0x3c
 80030f0:	4a32      	ldr	r2, [pc, #200]	; (80031bc <acc_confprogram_live_patch.constprop.0+0x118>)
 80030f2:	4931      	ldr	r1, [pc, #196]	; (80031b8 <acc_confprogram_live_patch.constprop.0+0x114>)
 80030f4:	2000      	movs	r0, #0
 80030f6:	4798      	blx	r3
 80030f8:	2000      	movs	r0, #0
 80030fa:	b009      	add	sp, #36	; 0x24
 80030fc:	e8bd 8ff0 	ldmia.w	sp!, {r4, r5, r6, r7, r8, r9, sl, fp, pc}
 8003100:	1e3b      	subs	r3, r7, #0
 8003102:	bf18      	it	ne
 8003104:	2301      	movne	r3, #1
 8003106:	9300      	str	r3, [sp, #0]
 8003108:	b2a2      	uxth	r2, r4
 800310a:	f3c4 4303 	ubfx	r3, r4, #16, #4
 800310e:	4649      	mov	r1, r9
 8003110:	4640      	mov	r0, r8
 8003112:	f7fe f925 	bl	8001360 <acc_confprogram_modify_runif_sensor.constprop.0>
 8003116:	8873      	ldrh	r3, [r6, #2]
 8003118:	3501      	adds	r5, #1
 800311a:	429d      	cmp	r5, r3
 800311c:	d3dc      	bcc.n	80030d8 <acc_confprogram_live_patch.constprop.0+0x34>
 800311e:	2001      	movs	r0, #1
 8003120:	b009      	add	sp, #36	; 0x24
 8003122:	e8bd 8ff0 	ldmia.w	sp!, {r4, r5, r6, r7, r8, r9, sl, fp, pc}
 8003126:	f3c4 5a44 	ubfx	sl, r4, #21, #5
 800312a:	2301      	movs	r3, #1
 800312c:	fa03 f30a 	lsl.w	r3, r3, sl
 8003130:	429f      	cmp	r7, r3
 8003132:	d311      	bcc.n	8003158 <acc_confprogram_live_patch.constprop.0+0xb4>
 8003134:	3b01      	subs	r3, #1
 8003136:	e9cd 7300 	strd	r7, r3, [sp]
 800313a:	f8db 503c 	ldr.w	r5, [fp, #60]	; 0x3c
 800313e:	4a20      	ldr	r2, [pc, #128]	; (80031c0 <acc_confprogram_live_patch.constprop.0+0x11c>)
 8003140:	491d      	ldr	r1, [pc, #116]	; (80031b8 <acc_confprogram_live_patch.constprop.0+0x114>)
 8003142:	9003      	str	r0, [sp, #12]
 8003144:	b2a3      	uxth	r3, r4
 8003146:	47a8      	blx	r5
 8003148:	9803      	ldr	r0, [sp, #12]
 800314a:	b009      	add	sp, #36	; 0x24
 800314c:	e8bd 8ff0 	ldmia.w	sp!, {r4, r5, r6, r7, r8, r9, sl, fp, pc}
 8003150:	fab7 f387 	clz	r3, r7
 8003154:	095b      	lsrs	r3, r3, #5
 8003156:	e7d6      	b.n	8003106 <acc_confprogram_live_patch.constprop.0+0x62>
 8003158:	b2a3      	uxth	r3, r4
 800315a:	f443 4c20 	orr.w	ip, r3, #40960	; 0xa000
 800315e:	f04f 0e01 	mov.w	lr, #1
 8003162:	9303      	str	r3, [sp, #12]
 8003164:	2205      	movs	r2, #5
 8003166:	2301      	movs	r3, #1
 8003168:	a905      	add	r1, sp, #20
 800316a:	f8ad 0018 	strh.w	r0, [sp, #24]
 800316e:	f8cd 001a 	str.w	r0, [sp, #26]
 8003172:	4640      	mov	r0, r8
 8003174:	f8ad e016 	strh.w	lr, [sp, #22]
 8003178:	f8ad c014 	strh.w	ip, [sp, #20]
 800317c:	f7fe f8a0 	bl	80012c0 <acc_rss_integration_sensor_device_transfer>
 8003180:	a904      	add	r1, sp, #16
 8003182:	f10d 001a 	add.w	r0, sp, #26
 8003186:	f7fd fa4b 	bl	8000620 <acc_utils_transfer_buffer_to_uint32.constprop.0>
 800318a:	f1ca 0a20 	rsb	sl, sl, #32
 800318e:	f04f 33ff 	mov.w	r3, #4294967295	; 0xffffffff
 8003192:	f3c4 4404 	ubfx	r4, r4, #16, #5
 8003196:	fa23 fa0a 	lsr.w	sl, r3, sl
 800319a:	9b04      	ldr	r3, [sp, #16]
 800319c:	9903      	ldr	r1, [sp, #12]
 800319e:	fa0a fa04 	lsl.w	sl, sl, r4
 80031a2:	ea23 020a 	bic.w	r2, r3, sl
 80031a6:	fa07 f404 	lsl.w	r4, r7, r4
 80031aa:	4322      	orrs	r2, r4
 80031ac:	4640      	mov	r0, r8
 80031ae:	f7fe f8bd 	bl	800132c <acc_sensor_a121_conf_write_instr>
 80031b2:	e7b0      	b.n	8003116 <acc_confprogram_live_patch.constprop.0+0x72>
 80031b4:	0800fc54 	.word	0x0800fc54
 80031b8:	0800f5c0 	.word	0x0800f5c0
 80031bc:	0800fcb0 	.word	0x0800fcb0
 80031c0:	0800fc78 	.word	0x0800fc78
 80031c4:	200000ac 	.word	0x200000ac

080031c8 <acc_rss_integration_mem_calloc_debug.part.0.constprop.0>:
 80031c8:	b570      	push	{r4, r5, r6, lr}
 80031ca:	4e09      	ldr	r6, [pc, #36]	; (80031f0 <acc_rss_integration_mem_calloc_debug.part.0.constprop.0+0x28>)
 80031cc:	6b33      	ldr	r3, [r6, #48]	; 0x30
 80031ce:	4605      	mov	r5, r0
 80031d0:	4798      	blx	r3
 80031d2:	4604      	mov	r4, r0
 80031d4:	b128      	cbz	r0, 80031e2 <acc_rss_integration_mem_calloc_debug.part.0.constprop.0+0x1a>
 80031d6:	462a      	mov	r2, r5
 80031d8:	2100      	movs	r1, #0
 80031da:	f006 fdd2 	bl	8009d82 <memset>
 80031de:	4620      	mov	r0, r4
 80031e0:	bd70      	pop	{r4, r5, r6, pc}
 80031e2:	6bf3      	ldr	r3, [r6, #60]	; 0x3c
 80031e4:	4a03      	ldr	r2, [pc, #12]	; (80031f4 <acc_rss_integration_mem_calloc_debug.part.0.constprop.0+0x2c>)
 80031e6:	4904      	ldr	r1, [pc, #16]	; (80031f8 <acc_rss_integration_mem_calloc_debug.part.0.constprop.0+0x30>)
 80031e8:	4798      	blx	r3
 80031ea:	4620      	mov	r0, r4
 80031ec:	bd70      	pop	{r4, r5, r6, pc}
 80031ee:	bf00      	nop
 80031f0:	200000ac 	.word	0x200000ac
 80031f4:	0800fcd8 	.word	0x0800fcd8
 80031f8:	0800fce8 	.word	0x0800fce8

080031fc <HAL_RTC_DeactivateAlarm.constprop.0>:
 80031fc:	491c      	ldr	r1, [pc, #112]	; (8003270 <HAL_RTC_DeactivateAlarm.constprop.0+0x74>)
 80031fe:	f891 3024 	ldrb.w	r3, [r1, #36]	; 0x24
 8003202:	2b01      	cmp	r3, #1
 8003204:	d032      	beq.n	800326c <HAL_RTC_DeactivateAlarm.constprop.0+0x70>
 8003206:	b430      	push	{r4, r5}
 8003208:	684c      	ldr	r4, [r1, #4]
 800320a:	2353      	movs	r3, #83	; 0x53
 800320c:	2001      	movs	r0, #1
 800320e:	2502      	movs	r5, #2
 8003210:	22ca      	movs	r2, #202	; 0xca
 8003212:	f881 5025 	strb.w	r5, [r1, #37]	; 0x25
 8003216:	f881 0024 	strb.w	r0, [r1, #36]	; 0x24
 800321a:	6262      	str	r2, [r4, #36]	; 0x24
 800321c:	6263      	str	r3, [r4, #36]	; 0x24
 800321e:	68a3      	ldr	r3, [r4, #8]
 8003220:	f423 7380 	bic.w	r3, r3, #256	; 0x100
 8003224:	60a3      	str	r3, [r4, #8]
 8003226:	68a3      	ldr	r3, [r4, #8]
 8003228:	f423 5380 	bic.w	r3, r3, #4096	; 0x1000
 800322c:	60a3      	str	r3, [r4, #8]
 800322e:	6808      	ldr	r0, [r1, #0]
 8003230:	e004      	b.n	800323c <HAL_RTC_DeactivateAlarm.constprop.0+0x40>
 8003232:	680a      	ldr	r2, [r1, #0]
 8003234:	1a12      	subs	r2, r2, r0
 8003236:	f5b2 7f7a 	cmp.w	r2, #1000	; 0x3e8
 800323a:	d80d      	bhi.n	8003258 <HAL_RTC_DeactivateAlarm.constprop.0+0x5c>
 800323c:	68e3      	ldr	r3, [r4, #12]
 800323e:	f013 0301 	ands.w	r3, r3, #1
 8003242:	d0f6      	beq.n	8003232 <HAL_RTC_DeactivateAlarm.constprop.0+0x36>
 8003244:	2000      	movs	r0, #0
 8003246:	22ff      	movs	r2, #255	; 0xff
 8003248:	2301      	movs	r3, #1
 800324a:	6262      	str	r2, [r4, #36]	; 0x24
 800324c:	f881 0024 	strb.w	r0, [r1, #36]	; 0x24
 8003250:	f881 3025 	strb.w	r3, [r1, #37]	; 0x25
 8003254:	bc30      	pop	{r4, r5}
 8003256:	4770      	bx	lr
 8003258:	20ff      	movs	r0, #255	; 0xff
 800325a:	2203      	movs	r2, #3
 800325c:	6260      	str	r0, [r4, #36]	; 0x24
 800325e:	f881 3024 	strb.w	r3, [r1, #36]	; 0x24
 8003262:	f881 2025 	strb.w	r2, [r1, #37]	; 0x25
 8003266:	4610      	mov	r0, r2
 8003268:	bc30      	pop	{r4, r5}
 800326a:	4770      	bx	lr
 800326c:	2002      	movs	r0, #2
 800326e:	4770      	bx	lr
 8003270:	200000ac 	.word	0x200000ac

08003274 <acc_a121_cal_session_get_10_ps_wavelet_program_data>:
 8003274:	b510      	push	{r4, lr}
 8003276:	f44f 7340 	mov.w	r3, #768	; 0x300
 800327a:	4614      	mov	r4, r2
 800327c:	2200      	movs	r2, #0
 800327e:	f7ff fec1 	bl	8003004 <internal_buffer_processed_read.part.0.constprop.0>
 8003282:	6020      	str	r0, [r4, #0]
 8003284:	bd10      	pop	{r4, pc}
 8003286:	bf00      	nop

08003288 <acc_config_step_length_get>:
 8003288:	b508      	push	{r3, lr}
 800328a:	b118      	cbz	r0, 8003294 <acc_config_step_length_get+0xc>
 800328c:	4b06      	ldr	r3, [pc, #24]	; (80032a8 <acc_config_step_length_get+0x20>)
 800328e:	6802      	ldr	r2, [r0, #0]
 8003290:	429a      	cmp	r2, r3
 8003292:	d007      	beq.n	80032a4 <acc_config_step_length_get+0x1c>
 8003294:	4b05      	ldr	r3, [pc, #20]	; (80032ac <acc_config_step_length_get+0x24>)
 8003296:	4a06      	ldr	r2, [pc, #24]	; (80032b0 <acc_config_step_length_get+0x28>)
 8003298:	6bdb      	ldr	r3, [r3, #60]	; 0x3c
 800329a:	4906      	ldr	r1, [pc, #24]	; (80032b4 <acc_config_step_length_get+0x2c>)
 800329c:	2000      	movs	r0, #0
 800329e:	4798      	blx	r3
 80032a0:	2000      	movs	r0, #0
 80032a2:	bd08      	pop	{r3, pc}
 80032a4:	8940      	ldrh	r0, [r0, #10]
 80032a6:	bd08      	pop	{r3, pc}
 80032a8:	1337b00f 	.word	0x1337b00f
 80032ac:	200000ac 	.word	0x200000ac
 80032b0:	0800fc34 	.word	0x0800fc34
 80032b4:	0800fc4c 	.word	0x0800fc4c

080032b8 <element_frame_callback>:
 80032b8:	b5f8      	push	{r3, r4, r5, r6, r7, lr}
 80032ba:	6995      	ldr	r5, [r2, #24]
 80032bc:	782b      	ldrb	r3, [r5, #0]
 80032be:	f8b5 e002 	ldrh.w	lr, [r5, #2]
 80032c2:	4614      	mov	r4, r2
 80032c4:	eb02 0343 	add.w	r3, r2, r3, lsl #1
 80032c8:	460f      	mov	r7, r1
 80032ca:	f8b3 6044 	ldrh.w	r6, [r3, #68]	; 0x44
 80032ce:	6963      	ldr	r3, [r4, #20]
 80032d0:	4601      	mov	r1, r0
 80032d2:	0072      	lsls	r2, r6, #1
 80032d4:	eb03 004e 	add.w	r0, r3, lr, lsl #1
 80032d8:	f007 fab6 	bl	800a848 <memmove>
 80032dc:	6de2      	ldr	r2, [r4, #92]	; 0x5c
 80032de:	8869      	ldrh	r1, [r5, #2]
 80032e0:	7813      	ldrb	r3, [r2, #0]
 80032e2:	440e      	add	r6, r1
 80032e4:	806e      	strh	r6, [r5, #2]
 80032e6:	b903      	cbnz	r3, 80032ea <element_frame_callback+0x32>
 80032e8:	793b      	ldrb	r3, [r7, #4]
 80032ea:	7013      	strb	r3, [r2, #0]
 80032ec:	bdf8      	pop	{r3, r4, r5, r6, r7, pc}
 80032ee:	bf00      	nop

080032f0 <element_phase_enhancement_event>:
 80032f0:	e92d 4ff0 	stmdb	sp!, {r4, r5, r6, r7, r8, r9, sl, fp, lr}
 80032f4:	ed2d 8b04 	vpush	{d8-d9}
 80032f8:	f890 3038 	ldrb.w	r3, [r0, #56]	; 0x38
 80032fc:	b08d      	sub	sp, #52	; 0x34
 80032fe:	9007      	str	r0, [sp, #28]
 8003300:	9303      	str	r3, [sp, #12]
 8003302:	2b00      	cmp	r3, #0
 8003304:	f000 80e7 	beq.w	80034d6 <element_phase_enhancement_event+0x1e6>
 8003308:	9807      	ldr	r0, [sp, #28]
 800330a:	8f82      	ldrh	r2, [r0, #60]	; 0x3c
 800330c:	6904      	ldr	r4, [r0, #16]
 800330e:	8fc3      	ldrh	r3, [r0, #62]	; 0x3e
 8003310:	f8b0 504c 	ldrh.w	r5, [r0, #76]	; 0x4c
 8003314:	f934 1012 	ldrsh.w	r1, [r4, r2, lsl #1]
 8003318:	9509      	str	r5, [sp, #36]	; 0x24
 800331a:	4602      	mov	r2, r0
 800331c:	005b      	lsls	r3, r3, #1
 800331e:	8f40      	ldrh	r0, [r0, #58]	; 0x3a
 8003320:	9008      	str	r0, [sp, #32]
 8003322:	9301      	str	r3, [sp, #4]
 8003324:	2d00      	cmp	r5, #0
 8003326:	f000 80d6 	beq.w	80034d6 <element_phase_enhancement_event+0x1e6>
 800332a:	4610      	mov	r0, r2
 800332c:	6c52      	ldr	r2, [r2, #68]	; 0x44
 800332e:	6c83      	ldr	r3, [r0, #72]	; 0x48
 8003330:	f8b0 504e 	ldrh.w	r5, [r0, #78]	; 0x4e
 8003334:	f8b0 b040 	ldrh.w	fp, [r0, #64]	; 0x40
 8003338:	eddf 8a70 	vldr	s17, [pc, #448]	; 80034fc <element_phase_enhancement_event+0x20c>
 800333c:	f8df 81c8 	ldr.w	r8, [pc, #456]	; 8003508 <element_phase_enhancement_event+0x218>
 8003340:	950a      	str	r5, [sp, #40]	; 0x28
 8003342:	18d3      	adds	r3, r2, r3
 8003344:	9302      	str	r3, [sp, #8]
 8003346:	2200      	movs	r2, #0
 8003348:	0109      	lsls	r1, r1, #4
 800334a:	43db      	mvns	r3, r3
 800334c:	9205      	str	r2, [sp, #20]
 800334e:	910b      	str	r1, [sp, #44]	; 0x2c
 8003350:	9304      	str	r3, [sp, #16]
 8003352:	4691      	mov	r9, r2
 8003354:	eeb6 9a00 	vmov.f32	s18, #96	; 0x3f000000  0.5
 8003358:	9a02      	ldr	r2, [sp, #8]
 800335a:	4969      	ldr	r1, [pc, #420]	; (8003500 <element_phase_enhancement_event+0x210>)
 800335c:	4613      	mov	r3, r2
 800335e:	fb81 3103 	smull	r3, r1, r1, r3
 8003362:	17d3      	asrs	r3, r2, #31
 8003364:	ebc3 01a1 	rsb	r1, r3, r1, asr #2
 8003368:	eb01 0141 	add.w	r1, r1, r1, lsl #1
 800336c:	ebb2 01c1 	subs.w	r1, r2, r1, lsl #3
 8003370:	9a02      	ldr	r2, [sp, #8]
 8003372:	bf48      	it	mi
 8003374:	3118      	addmi	r1, #24
 8003376:	2a00      	cmp	r2, #0
 8003378:	b209      	sxth	r1, r1
 800337a:	f2c0 80b5 	blt.w	80034e8 <element_phase_enhancement_event+0x1f8>
 800337e:	4860      	ldr	r0, [pc, #384]	; (8003500 <element_phase_enhancement_event+0x210>)
 8003380:	fb80 0202 	smull	r0, r2, r0, r2
 8003384:	ebc3 02a2 	rsb	r2, r3, r2, asr #2
 8003388:	b212      	sxth	r2, r2
 800338a:	9b0b      	ldr	r3, [sp, #44]	; 0x2c
 800338c:	0412      	lsls	r2, r2, #16
 800338e:	fb82 5603 	smull	r5, r6, r2, r3
 8003392:	2d00      	cmp	r5, #0
 8003394:	f176 0300 	sbcs.w	r3, r6, #0
 8003398:	da04      	bge.n	80033a4 <element_phase_enhancement_event+0xb4>
 800339a:	f64f 73ff 	movw	r3, #65535	; 0xffff
 800339e:	18ed      	adds	r5, r5, r3
 80033a0:	f146 0600 	adc.w	r6, r6, #0
 80033a4:	9b08      	ldr	r3, [sp, #32]
 80033a6:	4419      	add	r1, r3
 80033a8:	0c2a      	lsrs	r2, r5, #16
 80033aa:	f934 1011 	ldrsh.w	r1, [r4, r1, lsl #1]
 80033ae:	ea42 4206 	orr.w	r2, r2, r6, lsl #16
 80033b2:	eba2 1201 	sub.w	r2, r2, r1, lsl #4
 80033b6:	ee07 2a90 	vmov	s15, r2
 80033ba:	eef8 9ae7 	vcvt.f32.s32	s19, s15
 80033be:	ee69 9aa8 	vmul.f32	s19, s19, s17
 80033c2:	eeb0 0a69 	vmov.f32	s0, s19
 80033c6:	f005 faf5 	bl	80089b4 <cosf>
 80033ca:	eeb0 8a40 	vmov.f32	s16, s0
 80033ce:	eeb0 0a69 	vmov.f32	s0, s19
 80033d2:	f005 fb5d 	bl	8008a90 <sinf>
 80033d6:	f1bb 0f00 	cmp.w	fp, #0
 80033da:	d06b      	beq.n	80034b4 <element_phase_enhancement_event+0x1c4>
 80033dc:	9a07      	ldr	r2, [sp, #28]
 80033de:	6d13      	ldr	r3, [r2, #80]	; 0x50
 80033e0:	f8b2 a042 	ldrh.w	sl, [r2, #66]	; 0x42
 80033e4:	f893 e000 	ldrb.w	lr, [r3]
 80033e8:	9306      	str	r3, [sp, #24]
 80033ea:	2000      	movs	r0, #0
 80033ec:	4605      	mov	r5, r0
 80033ee:	f647 77ff 	movw	r7, #32767	; 0x7fff
 80033f2:	e009      	b.n	8003408 <element_phase_enhancement_event+0x118>
 80033f4:	f8dd e00c 	ldr.w	lr, [sp, #12]
 80033f8:	52e2      	strh	r2, [r4, r3]
 80033fa:	3501      	adds	r5, #1
 80033fc:	fa1f fc85 	uxth.w	ip, r5
 8003400:	45e3      	cmp	fp, ip
 8003402:	4450      	add	r0, sl
 8003404:	8071      	strh	r1, [r6, #2]
 8003406:	d952      	bls.n	80034ae <element_phase_enhancement_event+0x1be>
 8003408:	9a01      	ldr	r2, [sp, #4]
 800340a:	eb09 0350 	add.w	r3, r9, r0, lsr #1
 800340e:	b29b      	uxth	r3, r3
 8003410:	eb02 0383 	add.w	r3, r2, r3, lsl #2
 8003414:	18e6      	adds	r6, r4, r3
 8003416:	5ee2      	ldrsh	r2, [r4, r3]
 8003418:	ee07 2a90 	vmov	s15, r2
 800341c:	f9b6 2002 	ldrsh.w	r2, [r6, #2]
 8003420:	ee06 2a90 	vmov	s13, r2
 8003424:	eef8 7ae7 	vcvt.f32.s32	s15, s15
 8003428:	eef8 6ae6 	vcvt.f32.s32	s13, s13
 800342c:	ee27 7a88 	vmul.f32	s14, s15, s16
 8003430:	ee26 6a80 	vmul.f32	s12, s13, s0
 8003434:	ee67 7a80 	vmul.f32	s15, s15, s0
 8003438:	ee66 6a88 	vmul.f32	s13, s13, s16
 800343c:	ee37 7a46 	vsub.f32	s14, s14, s12
 8003440:	ee77 7aa6 	vadd.f32	s15, s15, s13
 8003444:	eeb5 7ac0 	vcmpe.f32	s14, #0.0
 8003448:	eef1 fa10 	vmrs	APSR_nzcv, fpscr
 800344c:	eef5 7ac0 	vcmpe.f32	s15, #0.0
 8003450:	bf4c      	ite	mi
 8003452:	ee37 7a49 	vsubmi.f32	s14, s14, s18
 8003456:	ee37 7a09 	vaddpl.f32	s14, s14, s18
 800345a:	eef1 fa10 	vmrs	APSR_nzcv, fpscr
 800345e:	bf4c      	ite	mi
 8003460:	ee77 7ac9 	vsubmi.f32	s15, s15, s18
 8003464:	ee77 7a89 	vaddpl.f32	s15, s15, s18
 8003468:	eebd 7ac7 	vcvt.s32.f32	s14, s14
 800346c:	eefd 7ae7 	vcvt.s32.f32	s15, s15
 8003470:	ee17 ca10 	vmov	ip, s14
 8003474:	ee17 1a90 	vmov	r1, s15
 8003478:	ee17 2a10 	vmov	r2, s14
 800347c:	45c4      	cmp	ip, r8
 800347e:	bfb8      	it	lt
 8003480:	4642      	movlt	r2, r8
 8003482:	4541      	cmp	r1, r8
 8003484:	bfb8      	it	lt
 8003486:	4641      	movlt	r1, r8
 8003488:	42ba      	cmp	r2, r7
 800348a:	bfa8      	it	ge
 800348c:	463a      	movge	r2, r7
 800348e:	42b9      	cmp	r1, r7
 8003490:	bfa8      	it	ge
 8003492:	4639      	movge	r1, r7
 8003494:	f1be 0f00 	cmp.w	lr, #0
 8003498:	d1ae      	bne.n	80033f8 <element_phase_enhancement_event+0x108>
 800349a:	4594      	cmp	ip, r2
 800349c:	d1aa      	bne.n	80033f4 <element_phase_enhancement_event+0x104>
 800349e:	ee17 ca90 	vmov	ip, s15
 80034a2:	ebbc 0e01 	subs.w	lr, ip, r1
 80034a6:	bf18      	it	ne
 80034a8:	f04f 0e01 	movne.w	lr, #1
 80034ac:	e7a4      	b.n	80033f8 <element_phase_enhancement_event+0x108>
 80034ae:	9b06      	ldr	r3, [sp, #24]
 80034b0:	f883 e000 	strb.w	lr, [r3]
 80034b4:	9b05      	ldr	r3, [sp, #20]
 80034b6:	9a02      	ldr	r2, [sp, #8]
 80034b8:	3301      	adds	r3, #1
 80034ba:	fa1f f983 	uxth.w	r9, r3
 80034be:	4611      	mov	r1, r2
 80034c0:	9305      	str	r3, [sp, #20]
 80034c2:	9a04      	ldr	r2, [sp, #16]
 80034c4:	9b0a      	ldr	r3, [sp, #40]	; 0x28
 80034c6:	4419      	add	r1, r3
 80034c8:	1ad3      	subs	r3, r2, r3
 80034ca:	9304      	str	r3, [sp, #16]
 80034cc:	9b09      	ldr	r3, [sp, #36]	; 0x24
 80034ce:	9102      	str	r1, [sp, #8]
 80034d0:	454b      	cmp	r3, r9
 80034d2:	f63f af41 	bhi.w	8003358 <element_phase_enhancement_event+0x68>
 80034d6:	9b07      	ldr	r3, [sp, #28]
 80034d8:	6818      	ldr	r0, [r3, #0]
 80034da:	6843      	ldr	r3, [r0, #4]
 80034dc:	b00d      	add	sp, #52	; 0x34
 80034de:	ecbd 8b04 	vpop	{d8-d9}
 80034e2:	e8bd 4ff0 	ldmia.w	sp!, {r4, r5, r6, r7, r8, r9, sl, fp, lr}
 80034e6:	4718      	bx	r3
 80034e8:	9b04      	ldr	r3, [sp, #16]
 80034ea:	461a      	mov	r2, r3
 80034ec:	4b05      	ldr	r3, [pc, #20]	; (8003504 <element_phase_enhancement_event+0x214>)
 80034ee:	fba3 3202 	umull	r3, r2, r3, r2
 80034f2:	ea6f 1212 	mvn.w	r2, r2, lsr #4
 80034f6:	b212      	sxth	r2, r2
 80034f8:	e747      	b.n	800338a <element_phase_enhancement_event+0x9a>
 80034fa:	bf00      	nop
 80034fc:	37800000 	.word	0x37800000
 8003500:	2aaaaaab 	.word	0x2aaaaaab
 8003504:	aaaaaaab 	.word	0xaaaaaaab
 8003508:	ffff8000 	.word	0xffff8000

0800350c <acc_translation_a121_translate>:
 800350c:	e92d 4ff0 	stmdb	sp!, {r4, r5, r6, r7, r8, r9, sl, fp, lr}
 8003510:	ed2d 8b0c 	vpush	{d8-d13}
 8003514:	4683      	mov	fp, r0
 8003516:	b0a3      	sub	sp, #140	; 0x8c
 8003518:	f890 404e 	ldrb.w	r4, [r0, #78]	; 0x4e
 800351c:	f890 004c 	ldrb.w	r0, [r0, #76]	; 0x4c
 8003520:	900c      	str	r0, [sp, #48]	; 0x30
 8003522:	2c04      	cmp	r4, #4
 8003524:	f8bb 0048 	ldrh.w	r0, [fp, #72]	; 0x48
 8003528:	9007      	str	r0, [sp, #28]
 800352a:	4688      	mov	r8, r1
 800352c:	4692      	mov	sl, r2
 800352e:	9300      	str	r3, [sp, #0]
 8003530:	d837      	bhi.n	80035a2 <acc_translation_a121_translate+0x96>
 8003532:	ed9b 6a10 	vldr	s12, [fp, #64]	; 0x40
 8003536:	eeb5 6ac0 	vcmpe.f32	s12, #0.0
 800353a:	eef1 fa10 	vmrs	APSR_nzcv, fpscr
 800353e:	f100 81f9 	bmi.w	8003934 <acc_translation_a121_translate+0x428>
 8003542:	f89b 3056 	ldrb.w	r3, [fp, #86]	; 0x56
 8003546:	f8df 909c 	ldr.w	r9, [pc, #156]	; 80035e4 <acc_translation_a121_translate+0xd8>
 800354a:	2b00      	cmp	r3, #0
 800354c:	f040 8288 	bne.w	8003a60 <acc_translation_a121_translate+0x554>
 8003550:	eddb 7a11 	vldr	s15, [fp, #68]	; 0x44
 8003554:	ed99 7a4f 	vldr	s14, [r9, #316]	; 0x13c
 8003558:	eef5 7ac0 	vcmpe.f32	s15, #0.0
 800355c:	eef1 fa10 	vmrs	APSR_nzcv, fpscr
 8003560:	eeb8 8a47 	vcvt.f32.u32	s16, s14
 8003564:	f340 856e 	ble.w	8004044 <acc_translation_a121_translate+0xb38>
 8003568:	ee88 9a27 	vdiv.f32	s18, s16, s15
 800356c:	eef6 7a00 	vmov.f32	s15, #96	; 0x3f000000  0.5
 8003570:	ee39 9a27 	vadd.f32	s18, s18, s15
 8003574:	f100 857f 	bmi.w	8004076 <acc_translation_a121_translate+0xb6a>
 8003578:	ee19 0a10 	vmov	r0, s18
 800357c:	f004 f838 	bl	80075f0 <__aeabi_f2ulz>
 8003580:	2901      	cmp	r1, #1
 8003582:	bf08      	it	eq
 8003584:	2800      	cmpeq	r0, #0
 8003586:	f080 8576 	bcs.w	8004076 <acc_translation_a121_translate+0xb6a>
 800358a:	f89b 304a 	ldrb.w	r3, [fp, #74]	; 0x4a
 800358e:	2b00      	cmp	r3, #0
 8003590:	f000 8294 	beq.w	8003abc <acc_translation_a121_translate+0x5b0>
 8003594:	f8d9 303c 	ldr.w	r3, [r9, #60]	; 0x3c
 8003598:	4a0f      	ldr	r2, [pc, #60]	; (80035d8 <acc_translation_a121_translate+0xcc>)
 800359a:	4910      	ldr	r1, [pc, #64]	; (80035dc <acc_translation_a121_translate+0xd0>)
 800359c:	2000      	movs	r0, #0
 800359e:	4798      	blx	r3
 80035a0:	e026      	b.n	80035f0 <acc_translation_a121_translate+0xe4>
 80035a2:	f8df 9040 	ldr.w	r9, [pc, #64]	; 80035e4 <acc_translation_a121_translate+0xd8>
 80035a6:	4a0e      	ldr	r2, [pc, #56]	; (80035e0 <acc_translation_a121_translate+0xd4>)
 80035a8:	f8d9 303c 	ldr.w	r3, [r9, #60]	; 0x3c
 80035ac:	490b      	ldr	r1, [pc, #44]	; (80035dc <acc_translation_a121_translate+0xd0>)
 80035ae:	2000      	movs	r0, #0
 80035b0:	4798      	blx	r3
 80035b2:	eddb 7a11 	vldr	s15, [fp, #68]	; 0x44
 80035b6:	ed99 7a4f 	vldr	s14, [r9, #316]	; 0x13c
 80035ba:	eef5 7ac0 	vcmpe.f32	s15, #0.0
 80035be:	eef1 fa10 	vmrs	APSR_nzcv, fpscr
 80035c2:	eeb8 8a47 	vcvt.f32.u32	s16, s14
 80035c6:	dd11      	ble.n	80035ec <acc_translation_a121_translate+0xe0>
 80035c8:	ee88 9a27 	vdiv.f32	s18, s16, s15
 80035cc:	eef6 7a00 	vmov.f32	s15, #96	; 0x3f000000  0.5
 80035d0:	ee39 9a27 	vadd.f32	s18, s18, s15
 80035d4:	e00c      	b.n	80035f0 <acc_translation_a121_translate+0xe4>
 80035d6:	bf00      	nop
 80035d8:	0800fd7c 	.word	0x0800fd7c
 80035dc:	0800fd14 	.word	0x0800fd14
 80035e0:	0800fcf8 	.word	0x0800fcf8
 80035e4:	200000ac 	.word	0x200000ac
 80035e8:	00000000 	.word	0x00000000
 80035ec:	ed1f 9a02 	vldr	s18, [pc, #-8]	; 80035e8 <acc_translation_a121_translate+0xdc>
 80035f0:	9b07      	ldr	r3, [sp, #28]
 80035f2:	b10b      	cbz	r3, 80035f8 <acc_translation_a121_translate+0xec>
 80035f4:	f89b 304e 	ldrb.w	r3, [fp, #78]	; 0x4e
 80035f8:	9308      	str	r3, [sp, #32]
 80035fa:	f89b 304a 	ldrb.w	r3, [fp, #74]	; 0x4a
 80035fe:	9302      	str	r3, [sp, #8]
 8003600:	2b00      	cmp	r3, #0
 8003602:	f040 81a0 	bne.w	8003946 <acc_translation_a121_translate+0x43a>
 8003606:	f89b 3050 	ldrb.w	r3, [fp, #80]	; 0x50
 800360a:	2b02      	cmp	r3, #2
 800360c:	f040 872f 	bne.w	800446e <acc_translation_a121_translate+0xf62>
 8003610:	f89b 404e 	ldrb.w	r4, [fp, #78]	; 0x4e
 8003614:	2c01      	cmp	r4, #1
 8003616:	f000 8248 	beq.w	8003aaa <acc_translation_a121_translate+0x59e>
 800361a:	2400      	movs	r4, #0
 800361c:	9a38      	ldr	r2, [sp, #224]	; 0xe0
 800361e:	9b02      	ldr	r3, [sp, #8]
 8003620:	7114      	strb	r4, [r2, #4]
 8003622:	f8aa 41ac 	strh.w	r4, [sl, #428]	; 0x1ac
 8003626:	b193      	cbz	r3, 800364e <acc_translation_a121_translate+0x142>
 8003628:	f89b 304f 	ldrb.w	r3, [fp, #79]	; 0x4f
 800362c:	2b01      	cmp	r3, #1
 800362e:	f000 873d 	beq.w	80044ac <acc_translation_a121_translate+0xfa0>
 8003632:	2b02      	cmp	r3, #2
 8003634:	f000 8734 	beq.w	80044a0 <acc_translation_a121_translate+0xf94>
 8003638:	2b00      	cmp	r3, #0
 800363a:	f000 8720 	beq.w	800447e <acc_translation_a121_translate+0xf72>
 800363e:	f8d9 303c 	ldr.w	r3, [r9, #60]	; 0x3c
 8003642:	4ac4      	ldr	r2, [pc, #784]	; (8003954 <acc_translation_a121_translate+0x448>)
 8003644:	49c4      	ldr	r1, [pc, #784]	; (8003958 <acc_translation_a121_translate+0x44c>)
 8003646:	2000      	movs	r0, #0
 8003648:	4798      	blx	r3
 800364a:	2300      	movs	r3, #0
 800364c:	9302      	str	r3, [sp, #8]
 800364e:	f1b8 0f00 	cmp.w	r8, #0
 8003652:	d04e      	beq.n	80036f2 <acc_translation_a121_translate+0x1e6>
 8003654:	f8b8 3008 	ldrh.w	r3, [r8, #8]
 8003658:	f8b8 1082 	ldrh.w	r1, [r8, #130]	; 0x82
 800365c:	f8b8 2080 	ldrh.w	r2, [r8, #128]	; 0x80
 8003660:	f8b8 007e 	ldrh.w	r0, [r8, #126]	; 0x7e
 8003664:	f8aa 1004 	strh.w	r1, [sl, #4]
 8003668:	009b      	lsls	r3, r3, #2
 800366a:	f8b8 1084 	ldrh.w	r1, [r8, #132]	; 0x84
 800366e:	f8aa 2002 	strh.w	r2, [sl, #2]
 8003672:	b29b      	uxth	r3, r3
 8003674:	f103 0230 	add.w	r2, r3, #48	; 0x30
 8003678:	f8aa 0000 	strh.w	r0, [sl]
 800367c:	f8b8 0002 	ldrh.w	r0, [r8, #2]
 8003680:	f8aa 1006 	strh.w	r1, [sl, #6]
 8003684:	f8b8 1004 	ldrh.w	r1, [r8, #4]
 8003688:	f8aa 0008 	strh.w	r0, [sl, #8]
 800368c:	b292      	uxth	r2, r2
 800368e:	f8b8 0006 	ldrh.w	r0, [r8, #6]
 8003692:	f8aa 100a 	strh.w	r1, [sl, #10]
 8003696:	f8b8 100a 	ldrh.w	r1, [r8, #10]
 800369a:	f8aa 000c 	strh.w	r0, [sl, #12]
 800369e:	2a5f      	cmp	r2, #95	; 0x5f
 80036a0:	f8b8 0020 	ldrh.w	r0, [r8, #32]
 80036a4:	f8aa 100e 	strh.w	r1, [sl, #14]
 80036a8:	f8b8 1022 	ldrh.w	r1, [r8, #34]	; 0x22
 80036ac:	f8aa 1012 	strh.w	r1, [sl, #18]
 80036b0:	f8aa 0010 	strh.w	r0, [sl, #16]
 80036b4:	f240 81d0 	bls.w	8003a58 <acc_translation_a121_translate+0x54c>
 80036b8:	2060      	movs	r0, #96	; 0x60
 80036ba:	fbb2 f1f0 	udiv	r1, r2, r0
 80036be:	fb00 2211 	mls	r2, r0, r1, r2
 80036c2:	b291      	uxth	r1, r2
 80036c4:	2000      	movs	r0, #0
 80036c6:	461a      	mov	r2, r3
 80036c8:	4605      	mov	r5, r0
 80036ca:	460b      	mov	r3, r1
 80036cc:	2101      	movs	r1, #1
 80036ce:	2403      	movs	r4, #3
 80036d0:	f8aa 3014 	strh.w	r3, [sl, #20]
 80036d4:	2300      	movs	r3, #0
 80036d6:	f8aa 2016 	strh.w	r2, [sl, #22]
 80036da:	f8aa 1018 	strh.w	r1, [sl, #24]
 80036de:	f8aa 501c 	strh.w	r5, [sl, #28]
 80036e2:	f8aa 001e 	strh.w	r0, [sl, #30]
 80036e6:	f8aa 1020 	strh.w	r1, [sl, #32]
 80036ea:	f8aa 401a 	strh.w	r4, [sl, #26]
 80036ee:	f8aa 3022 	strh.w	r3, [sl, #34]	; 0x22
 80036f2:	9900      	ldr	r1, [sp, #0]
 80036f4:	2201      	movs	r2, #1
 80036f6:	814a      	strh	r2, [r1, #10]
 80036f8:	9a02      	ldr	r2, [sp, #8]
 80036fa:	2300      	movs	r3, #0
 80036fc:	804b      	strh	r3, [r1, #2]
 80036fe:	818b      	strh	r3, [r1, #12]
 8003700:	2a00      	cmp	r2, #0
 8003702:	f000 87f0 	beq.w	80046e6 <acc_translation_a121_translate+0x11da>
 8003706:	e9cd 3304 	strd	r3, r3, [sp, #16]
 800370a:	461d      	mov	r5, r3
 800370c:	f10a 023e 	add.w	r2, sl, #62	; 0x3e
 8003710:	f101 030e 	add.w	r3, r1, #14
 8003714:	ed9f aa91 	vldr	s20, [pc, #580]	; 800395c <acc_translation_a121_translate+0x450>
 8003718:	eddf 9a91 	vldr	s19, [pc, #580]	; 8003960 <acc_translation_a121_translate+0x454>
 800371c:	eddf 8a91 	vldr	s17, [pc, #580]	; 8003964 <acc_translation_a121_translate+0x458>
 8003720:	f8cd b004 	str.w	fp, [sp, #4]
 8003724:	465e      	mov	r6, fp
 8003726:	f10a 0746 	add.w	r7, sl, #70	; 0x46
 800372a:	46cb      	mov	fp, r9
 800372c:	9209      	str	r2, [sp, #36]	; 0x24
 800372e:	f8cd 800c 	str.w	r8, [sp, #12]
 8003732:	f8cd a018 	str.w	sl, [sp, #24]
 8003736:	4699      	mov	r9, r3
 8003738:	9a08      	ldr	r2, [sp, #32]
 800373a:	b2eb      	uxtb	r3, r5
 800373c:	429a      	cmp	r2, r3
 800373e:	f200 811b 	bhi.w	8003978 <acc_translation_a121_translate+0x46c>
 8003742:	9a09      	ldr	r2, [sp, #36]	; 0x24
 8003744:	2300      	movs	r3, #0
 8003746:	f8a9 3000 	strh.w	r3, [r9]
 800374a:	f8a9 3008 	strh.w	r3, [r9, #8]
 800374e:	f822 3015 	strh.w	r3, [r2, r5, lsl #1]
 8003752:	3501      	adds	r5, #1
 8003754:	2d04      	cmp	r5, #4
 8003756:	f109 0902 	add.w	r9, r9, #2
 800375a:	f106 0610 	add.w	r6, r6, #16
 800375e:	f107 0756 	add.w	r7, r7, #86	; 0x56
 8003762:	d1e9      	bne.n	8003738 <acc_translation_a121_translate+0x22c>
 8003764:	46d9      	mov	r9, fp
 8003766:	f8dd 800c 	ldr.w	r8, [sp, #12]
 800376a:	f8dd a018 	ldr.w	sl, [sp, #24]
 800376e:	f8dd b004 	ldr.w	fp, [sp, #4]
 8003772:	f8ba c1ac 	ldrh.w	ip, [sl, #428]	; 0x1ac
 8003776:	f1bc 0f01 	cmp.w	ip, #1
 800377a:	d104      	bne.n	8003786 <acc_translation_a121_translate+0x27a>
 800377c:	9b04      	ldr	r3, [sp, #16]
 800377e:	9a07      	ldr	r2, [sp, #28]
 8003780:	fb02 f303 	mul.w	r3, r2, r3
 8003784:	9304      	str	r3, [sp, #16]
 8003786:	9b00      	ldr	r3, [sp, #0]
 8003788:	f89b 1052 	ldrb.w	r1, [fp, #82]	; 0x52
 800378c:	899a      	ldrh	r2, [r3, #12]
 800378e:	f8bb 0054 	ldrh.w	r0, [fp, #84]	; 0x54
 8003792:	895b      	ldrh	r3, [r3, #10]
 8003794:	f89b 6053 	ldrb.w	r6, [fp, #83]	; 0x53
 8003798:	f8aa 119e 	strh.w	r1, [sl, #414]	; 0x19e
 800379c:	9907      	ldr	r1, [sp, #28]
 800379e:	9c04      	ldr	r4, [sp, #16]
 80037a0:	fb12 f201 	smulbb	r2, r2, r1
 80037a4:	b292      	uxth	r2, r2
 80037a6:	f64f 71ff 	movw	r1, #65535	; 0xffff
 80037aa:	428c      	cmp	r4, r1
 80037ac:	4413      	add	r3, r2
 80037ae:	bf28      	it	cs
 80037b0:	460c      	movcs	r4, r1
 80037b2:	b29b      	uxth	r3, r3
 80037b4:	0847      	lsrs	r7, r0, #1
 80037b6:	3803      	subs	r0, #3
 80037b8:	9905      	ldr	r1, [sp, #20]
 80037ba:	46a6      	mov	lr, r4
 80037bc:	1c5d      	adds	r5, r3, #1
 80037be:	f89b 4056 	ldrb.w	r4, [fp, #86]	; 0x56
 80037c2:	f8aa 01a8 	strh.w	r0, [sl, #424]	; 0x1a8
 80037c6:	9800      	ldr	r0, [sp, #0]
 80037c8:	f8aa 11a0 	strh.w	r1, [sl, #416]	; 0x1a0
 80037cc:	3f03      	subs	r7, #3
 80037ce:	f086 0601 	eor.w	r6, r6, #1
 80037d2:	fa1f f18e 	uxth.w	r1, lr
 80037d6:	b2ad      	uxth	r5, r5
 80037d8:	f8aa 71aa 	strh.w	r7, [sl, #426]	; 0x1aa
 80037dc:	f8aa 61a6 	strh.w	r6, [sl, #422]	; 0x1a6
 80037e0:	f8aa 11a4 	strh.w	r1, [sl, #420]	; 0x1a4
 80037e4:	8182      	strh	r2, [r0, #12]
 80037e6:	8083      	strh	r3, [r0, #4]
 80037e8:	80c5      	strh	r5, [r0, #6]
 80037ea:	2c00      	cmp	r4, #0
 80037ec:	f000 8114 	beq.w	8003a18 <acc_translation_a121_translate+0x50c>
 80037f0:	9800      	ldr	r0, [sp, #0]
 80037f2:	3341      	adds	r3, #65	; 0x41
 80037f4:	2240      	movs	r2, #64	; 0x40
 80037f6:	8003      	strh	r3, [r0, #0]
 80037f8:	8102      	strh	r2, [r0, #8]
 80037fa:	2401      	movs	r4, #1
 80037fc:	f8aa 41c0 	strh.w	r4, [sl, #448]	; 0x1c0
 8003800:	f1b8 0f00 	cmp.w	r8, #0
 8003804:	d003      	beq.n	800380e <acc_translation_a121_translate+0x302>
 8003806:	f8b8 300c 	ldrh.w	r3, [r8, #12]
 800380a:	f8aa 31c2 	strh.w	r3, [sl, #450]	; 0x1c2
 800380e:	9b02      	ldr	r3, [sp, #8]
 8003810:	2b00      	cmp	r3, #0
 8003812:	f040 810b 	bne.w	8003a2c <acc_translation_a121_translate+0x520>
 8003816:	9a38      	ldr	r2, [sp, #224]	; 0xe0
 8003818:	ed9b 6a10 	vldr	s12, [fp, #64]	; 0x40
 800381c:	2300      	movs	r3, #0
 800381e:	6013      	str	r3, [r2, #0]
 8003820:	9b0c      	ldr	r3, [sp, #48]	; 0x30
 8003822:	f8aa 31b2 	strh.w	r3, [sl, #434]	; 0x1b2
 8003826:	9b07      	ldr	r3, [sp, #28]
 8003828:	2b01      	cmp	r3, #1
 800382a:	f240 80f9 	bls.w	8003a20 <acc_translation_a121_translate+0x514>
 800382e:	f8bb 3048 	ldrh.w	r3, [fp, #72]	; 0x48
 8003832:	2201      	movs	r2, #1
 8003834:	3b02      	subs	r3, #2
 8003836:	f8aa 31ae 	strh.w	r3, [sl, #430]	; 0x1ae
 800383a:	f8aa 21b0 	strh.w	r2, [sl, #432]	; 0x1b0
 800383e:	ed9f 7a4a 	vldr	s14, [pc, #296]	; 8003968 <acc_translation_a121_translate+0x45c>
 8003842:	eddf 5a4a 	vldr	s11, [pc, #296]	; 800396c <acc_translation_a121_translate+0x460>
 8003846:	ee28 7a07 	vmul.f32	s14, s16, s14
 800384a:	eef1 7a00 	vmov.f32	s15, #16	; 0x40800000  4.0
 800384e:	ee68 7a27 	vmul.f32	s15, s16, s15
 8003852:	eec7 6a25 	vdiv.f32	s13, s14, s11
 8003856:	ee87 7aa5 	vdiv.f32	s14, s15, s11
 800385a:	eec8 7a25 	vdiv.f32	s15, s16, s11
 800385e:	eef6 5a00 	vmov.f32	s11, #96	; 0x3f000000  0.5
 8003862:	ee76 6aa5 	vadd.f32	s13, s13, s11
 8003866:	ee37 7a25 	vadd.f32	s14, s14, s11
 800386a:	eefc 6ae6 	vcvt.u32.f32	s13, s13
 800386e:	ee77 7aa5 	vadd.f32	s15, s15, s11
 8003872:	eebc 7ac7 	vcvt.u32.f32	s14, s14
 8003876:	ee16 3a90 	vmov	r3, s13
 800387a:	eeb5 6a40 	vcmp.f32	s12, #0.0
 800387e:	ee17 2a10 	vmov	r2, s14
 8003882:	eef1 fa10 	vmrs	APSR_nzcv, fpscr
 8003886:	eefc 7ae7 	vcvt.u32.f32	s15, s15
 800388a:	f8aa 31b8 	strh.w	r3, [sl, #440]	; 0x1b8
 800388e:	bf14      	ite	ne
 8003890:	2301      	movne	r3, #1
 8003892:	2300      	moveq	r3, #0
 8003894:	f8aa 21b6 	strh.w	r2, [sl, #438]	; 0x1b6
 8003898:	f8aa 3038 	strh.w	r3, [sl, #56]	; 0x38
 800389c:	ee17 2a90 	vmov	r2, s15
 80038a0:	9b02      	ldr	r3, [sp, #8]
 80038a2:	f8aa 21b4 	strh.w	r2, [sl, #436]	; 0x1b4
 80038a6:	2b00      	cmp	r3, #0
 80038a8:	f000 80a2 	beq.w	80039f0 <acc_translation_a121_translate+0x4e4>
 80038ac:	eeb5 6a40 	vcmp.f32	s12, #0.0
 80038b0:	eef1 fa10 	vmrs	APSR_nzcv, fpscr
 80038b4:	d00c      	beq.n	80038d0 <acc_translation_a121_translate+0x3c4>
 80038b6:	eec8 7a06 	vdiv.f32	s15, s16, s12
 80038ba:	ee77 5aa5 	vadd.f32	s11, s15, s11
 80038be:	eefc 7ae5 	vcvt.u32.f32	s15, s11
 80038c2:	ee17 3a90 	vmov	r3, s15
 80038c6:	0c1a      	lsrs	r2, r3, #16
 80038c8:	f8aa 303c 	strh.w	r3, [sl, #60]	; 0x3c
 80038cc:	f8aa 203a 	strh.w	r2, [sl, #58]	; 0x3a
 80038d0:	eddb 7a11 	vldr	s15, [fp, #68]	; 0x44
 80038d4:	f89b 304a 	ldrb.w	r3, [fp, #74]	; 0x4a
 80038d8:	f89b 204b 	ldrb.w	r2, [fp, #75]	; 0x4b
 80038dc:	f8aa 3030 	strh.w	r3, [sl, #48]	; 0x30
 80038e0:	eef5 7a40 	vcmp.f32	s15, #0.0
 80038e4:	eef1 fa10 	vmrs	APSR_nzcv, fpscr
 80038e8:	bf14      	ite	ne
 80038ea:	2301      	movne	r3, #1
 80038ec:	2300      	moveq	r3, #0
 80038ee:	f8aa 2032 	strh.w	r2, [sl, #50]	; 0x32
 80038f2:	f8aa 302a 	strh.w	r3, [sl, #42]	; 0x2a
 80038f6:	d008      	beq.n	800390a <acc_translation_a121_translate+0x3fe>
 80038f8:	eefc 7ac9 	vcvt.u32.f32	s15, s18
 80038fc:	ee17 3a90 	vmov	r3, s15
 8003900:	0c1a      	lsrs	r2, r3, #16
 8003902:	f8aa 302e 	strh.w	r3, [sl, #46]	; 0x2e
 8003906:	f8aa 202c 	strh.w	r2, [sl, #44]	; 0x2c
 800390a:	f89b 3051 	ldrb.w	r3, [fp, #81]	; 0x51
 800390e:	9802      	ldr	r0, [sp, #8]
 8003910:	f8aa 31be 	strh.w	r3, [sl, #446]	; 0x1be
 8003914:	2101      	movs	r1, #1
 8003916:	f240 72ff 	movw	r2, #2047	; 0x7ff
 800391a:	f640 0301 	movw	r3, #2049	; 0x801
 800391e:	f8aa 1024 	strh.w	r1, [sl, #36]	; 0x24
 8003922:	f8aa 21ba 	strh.w	r2, [sl, #442]	; 0x1ba
 8003926:	f8aa 31bc 	strh.w	r3, [sl, #444]	; 0x1bc
 800392a:	b023      	add	sp, #140	; 0x8c
 800392c:	ecbd 8b0c 	vpop	{d8-d13}
 8003930:	e8bd 8ff0 	ldmia.w	sp!, {r4, r5, r6, r7, r8, r9, sl, fp, pc}
 8003934:	f8df 903c 	ldr.w	r9, [pc, #60]	; 8003974 <acc_translation_a121_translate+0x468>
 8003938:	4a0d      	ldr	r2, [pc, #52]	; (8003970 <acc_translation_a121_translate+0x464>)
 800393a:	f8d9 303c 	ldr.w	r3, [r9, #60]	; 0x3c
 800393e:	4906      	ldr	r1, [pc, #24]	; (8003958 <acc_translation_a121_translate+0x44c>)
 8003940:	2000      	movs	r0, #0
 8003942:	4798      	blx	r3
 8003944:	e635      	b.n	80035b2 <acc_translation_a121_translate+0xa6>
 8003946:	9a38      	ldr	r2, [sp, #224]	; 0xe0
 8003948:	2300      	movs	r3, #0
 800394a:	7113      	strb	r3, [r2, #4]
 800394c:	9302      	str	r3, [sp, #8]
 800394e:	f8aa 31ac 	strh.w	r3, [sl, #428]	; 0x1ac
 8003952:	e67c      	b.n	800364e <acc_translation_a121_translate+0x142>
 8003954:	0800fdf8 	.word	0x0800fdf8
 8003958:	0800fd14 	.word	0x0800fd14
 800395c:	3e124925 	.word	0x3e124925
 8003960:	00000000 	.word	0x00000000
 8003964:	3d75c28f 	.word	0x3d75c28f
 8003968:	43960000 	.word	0x43960000
 800396c:	49742400 	.word	0x49742400
 8003970:	0800fd28 	.word	0x0800fd28
 8003974:	200000ac 	.word	0x200000ac
 8003978:	9a09      	ldr	r2, [sp, #36]	; 0x24
 800397a:	2301      	movs	r3, #1
 800397c:	f822 3015 	strh.w	r3, [r2, r5, lsl #1]
 8003980:	9b01      	ldr	r3, [sp, #4]
 8003982:	8932      	ldrh	r2, [r6, #8]
 8003984:	f893 304c 	ldrb.w	r3, [r3, #76]	; 0x4c
 8003988:	930a      	str	r3, [sp, #40]	; 0x28
 800398a:	4618      	mov	r0, r3
 800398c:	f240 11ff 	movw	r1, #511	; 0x1ff
 8003990:	f240 33ff 	movw	r3, #1023	; 0x3ff
 8003994:	2800      	cmp	r0, #0
 8003996:	bf18      	it	ne
 8003998:	460b      	movne	r3, r1
 800399a:	b1ca      	cbz	r2, 80039d0 <acc_translation_a121_translate+0x4c4>
 800399c:	429a      	cmp	r2, r3
 800399e:	d817      	bhi.n	80039d0 <acc_translation_a121_translate+0x4c4>
 80039a0:	7b73      	ldrb	r3, [r6, #13]
 80039a2:	2b00      	cmp	r3, #0
 80039a4:	d168      	bne.n	8003a78 <acc_translation_a121_translate+0x56c>
 80039a6:	7bf3      	ldrb	r3, [r6, #15]
 80039a8:	7bb0      	ldrb	r0, [r6, #14]
 80039aa:	2800      	cmp	r0, #0
 80039ac:	f040 8255 	bne.w	8003e5a <acc_translation_a121_translate+0x94e>
 80039b0:	2b01      	cmp	r3, #1
 80039b2:	f000 80b1 	beq.w	8003b18 <acc_translation_a121_translate+0x60c>
 80039b6:	46d9      	mov	r9, fp
 80039b8:	4a4f      	ldr	r2, [pc, #316]	; (8003af8 <acc_translation_a121_translate+0x5ec>)
 80039ba:	f8d9 303c 	ldr.w	r3, [r9, #60]	; 0x3c
 80039be:	494f      	ldr	r1, [pc, #316]	; (8003afc <acc_translation_a121_translate+0x5f0>)
 80039c0:	f8dd 800c 	ldr.w	r8, [sp, #12]
 80039c4:	f8dd a018 	ldr.w	sl, [sp, #24]
 80039c8:	f8dd b004 	ldr.w	fp, [sp, #4]
 80039cc:	4798      	blx	r3
 80039ce:	e00c      	b.n	80039ea <acc_translation_a121_translate+0x4de>
 80039d0:	46d9      	mov	r9, fp
 80039d2:	4a4b      	ldr	r2, [pc, #300]	; (8003b00 <acc_translation_a121_translate+0x5f4>)
 80039d4:	f8d9 303c 	ldr.w	r3, [r9, #60]	; 0x3c
 80039d8:	4948      	ldr	r1, [pc, #288]	; (8003afc <acc_translation_a121_translate+0x5f0>)
 80039da:	f8dd 800c 	ldr.w	r8, [sp, #12]
 80039de:	f8dd a018 	ldr.w	sl, [sp, #24]
 80039e2:	f8dd b004 	ldr.w	fp, [sp, #4]
 80039e6:	2000      	movs	r0, #0
 80039e8:	4798      	blx	r3
 80039ea:	2300      	movs	r3, #0
 80039ec:	9302      	str	r3, [sp, #8]
 80039ee:	e6c0      	b.n	8003772 <acc_translation_a121_translate+0x266>
 80039f0:	eddb 7a11 	vldr	s15, [fp, #68]	; 0x44
 80039f4:	f89b 304a 	ldrb.w	r3, [fp, #74]	; 0x4a
 80039f8:	f89b 204b 	ldrb.w	r2, [fp, #75]	; 0x4b
 80039fc:	f8aa 3030 	strh.w	r3, [sl, #48]	; 0x30
 8003a00:	eef5 7a40 	vcmp.f32	s15, #0.0
 8003a04:	eef1 fa10 	vmrs	APSR_nzcv, fpscr
 8003a08:	bf14      	ite	ne
 8003a0a:	2301      	movne	r3, #1
 8003a0c:	2300      	moveq	r3, #0
 8003a0e:	f8aa 2032 	strh.w	r2, [sl, #50]	; 0x32
 8003a12:	f8aa 302a 	strh.w	r3, [sl, #42]	; 0x2a
 8003a16:	e778      	b.n	800390a <acc_translation_a121_translate+0x3fe>
 8003a18:	9b00      	ldr	r3, [sp, #0]
 8003a1a:	811c      	strh	r4, [r3, #8]
 8003a1c:	801d      	strh	r5, [r3, #0]
 8003a1e:	e6ed      	b.n	80037fc <acc_translation_a121_translate+0x2f0>
 8003a20:	2300      	movs	r3, #0
 8003a22:	f8aa 31ae 	strh.w	r3, [sl, #430]	; 0x1ae
 8003a26:	f8aa 31b0 	strh.w	r3, [sl, #432]	; 0x1b0
 8003a2a:	e708      	b.n	800383e <acc_translation_a121_translate+0x332>
 8003a2c:	f89b 204d 	ldrb.w	r2, [fp, #77]	; 0x4d
 8003a30:	2a07      	cmp	r2, #7
 8003a32:	d832      	bhi.n	8003a9a <acc_translation_a121_translate+0x58e>
 8003a34:	4b33      	ldr	r3, [pc, #204]	; (8003b04 <acc_translation_a121_translate+0x5f8>)
 8003a36:	eddf 9a34 	vldr	s19, [pc, #208]	; 8003b08 <acc_translation_a121_translate+0x5fc>
 8003a3a:	4413      	add	r3, r2
 8003a3c:	f893 39e8 	ldrb.w	r3, [r3, #2536]	; 0x9e8
 8003a40:	f8aa 31a2 	strh.w	r3, [sl, #418]	; 0x1a2
 8003a44:	9b38      	ldr	r3, [sp, #224]	; 0xe0
 8003a46:	edc3 9a00 	vstr	s19, [r3]
 8003a4a:	9b08      	ldr	r3, [sp, #32]
 8003a4c:	2b00      	cmp	r3, #0
 8003a4e:	f040 844c 	bne.w	80042ea <acc_translation_a121_translate+0xdde>
 8003a52:	ed9b 6a10 	vldr	s12, [fp, #64]	; 0x40
 8003a56:	e6e3      	b.n	8003820 <acc_translation_a121_translate+0x314>
 8003a58:	2003      	movs	r0, #3
 8003a5a:	2501      	movs	r5, #1
 8003a5c:	2100      	movs	r1, #0
 8003a5e:	e636      	b.n	80036ce <acc_translation_a121_translate+0x1c2>
 8003a60:	f89b 304b 	ldrb.w	r3, [fp, #75]	; 0x4b
 8003a64:	2b00      	cmp	r3, #0
 8003a66:	f43f ad73 	beq.w	8003550 <acc_translation_a121_translate+0x44>
 8003a6a:	4a28      	ldr	r2, [pc, #160]	; (8003b0c <acc_translation_a121_translate+0x600>)
 8003a6c:	f8d9 303c 	ldr.w	r3, [r9, #60]	; 0x3c
 8003a70:	4922      	ldr	r1, [pc, #136]	; (8003afc <acc_translation_a121_translate+0x5f0>)
 8003a72:	2000      	movs	r0, #0
 8003a74:	4798      	blx	r3
 8003a76:	e59c      	b.n	80035b2 <acc_translation_a121_translate+0xa6>
 8003a78:	7bf3      	ldrb	r3, [r6, #15]
 8003a7a:	2b02      	cmp	r3, #2
 8003a7c:	d194      	bne.n	80039a8 <acc_translation_a121_translate+0x49c>
 8003a7e:	46d9      	mov	r9, fp
 8003a80:	4a23      	ldr	r2, [pc, #140]	; (8003b10 <acc_translation_a121_translate+0x604>)
 8003a82:	f8d9 303c 	ldr.w	r3, [r9, #60]	; 0x3c
 8003a86:	491d      	ldr	r1, [pc, #116]	; (8003afc <acc_translation_a121_translate+0x5f0>)
 8003a88:	f8dd 800c 	ldr.w	r8, [sp, #12]
 8003a8c:	f8dd a018 	ldr.w	sl, [sp, #24]
 8003a90:	f8dd b004 	ldr.w	fp, [sp, #4]
 8003a94:	2000      	movs	r0, #0
 8003a96:	4798      	blx	r3
 8003a98:	e7a7      	b.n	80039ea <acc_translation_a121_translate+0x4de>
 8003a9a:	9a38      	ldr	r2, [sp, #224]	; 0xe0
 8003a9c:	ed9b 6a10 	vldr	s12, [fp, #64]	; 0x40
 8003aa0:	2300      	movs	r3, #0
 8003aa2:	6013      	str	r3, [r2, #0]
 8003aa4:	2300      	movs	r3, #0
 8003aa6:	9302      	str	r3, [sp, #8]
 8003aa8:	e6ba      	b.n	8003820 <acc_translation_a121_translate+0x314>
 8003aaa:	f89b 300f 	ldrb.w	r3, [fp, #15]
 8003aae:	3b01      	subs	r3, #1
 8003ab0:	2b01      	cmp	r3, #1
 8003ab2:	f63f adb3 	bhi.w	800361c <acc_translation_a121_translate+0x110>
 8003ab6:	e5b0      	b.n	800361a <acc_translation_a121_translate+0x10e>
 8003ab8:	ed9f 9a13 	vldr	s18, [pc, #76]	; 8003b08 <acc_translation_a121_translate+0x5fc>
 8003abc:	f89b 104f 	ldrb.w	r1, [fp, #79]	; 0x4f
 8003ac0:	f89b 2050 	ldrb.w	r2, [fp, #80]	; 0x50
 8003ac4:	9807      	ldr	r0, [sp, #28]
 8003ac6:	2800      	cmp	r0, #0
 8003ac8:	bf14      	ite	ne
 8003aca:	4620      	movne	r0, r4
 8003acc:	2000      	moveq	r0, #0
 8003ace:	4291      	cmp	r1, r2
 8003ad0:	9008      	str	r0, [sp, #32]
 8003ad2:	d80a      	bhi.n	8003aea <acc_translation_a121_translate+0x5de>
 8003ad4:	2b00      	cmp	r3, #0
 8003ad6:	f040 84c3 	bne.w	8004460 <acc_translation_a121_translate+0xf54>
 8003ada:	2a02      	cmp	r2, #2
 8003adc:	f000 8632 	beq.w	8004744 <acc_translation_a121_translate+0x1238>
 8003ae0:	9a38      	ldr	r2, [sp, #224]	; 0xe0
 8003ae2:	7113      	strb	r3, [r2, #4]
 8003ae4:	f8aa 31ac 	strh.w	r3, [sl, #428]	; 0x1ac
 8003ae8:	e59e      	b.n	8003628 <acc_translation_a121_translate+0x11c>
 8003aea:	f8d9 303c 	ldr.w	r3, [r9, #60]	; 0x3c
 8003aee:	4a09      	ldr	r2, [pc, #36]	; (8003b14 <acc_translation_a121_translate+0x608>)
 8003af0:	4902      	ldr	r1, [pc, #8]	; (8003afc <acc_translation_a121_translate+0x5f0>)
 8003af2:	2000      	movs	r0, #0
 8003af4:	4798      	blx	r3
 8003af6:	e580      	b.n	80035fa <acc_translation_a121_translate+0xee>
 8003af8:	0800fe74 	.word	0x0800fe74
 8003afc:	0800fd14 	.word	0x0800fd14
 8003b00:	0800fe38 	.word	0x0800fe38
 8003b04:	0800b5e0 	.word	0x0800b5e0
 8003b08:	00000000 	.word	0x00000000
 8003b0c:	0800fd3c 	.word	0x0800fd3c
 8003b10:	0800fe48 	.word	0x0800fe48
 8003b14:	0800fda8 	.word	0x0800fda8
 8003b18:	4bb8      	ldr	r3, [pc, #736]	; (8003dfc <acc_translation_a121_translate+0x8f0>)
 8003b1a:	f8b6 8006 	ldrh.w	r8, [r6, #6]
 8003b1e:	88b4      	ldrh	r4, [r6, #4]
 8003b20:	eb03 0080 	add.w	r0, r3, r0, lsl #2
 8003b24:	f1b8 0f18 	cmp.w	r8, #24
 8003b28:	f8d0 a9c4 	ldr.w	sl, [r0, #2500]	; 0x9c4
 8003b2c:	f240 82cd 	bls.w	80040ca <acc_translation_a121_translate+0xbbe>
 8003b30:	2218      	movs	r2, #24
 8003b32:	fbb8 f1f2 	udiv	r1, r8, r2
 8003b36:	fb02 8311 	mls	r3, r2, r1, r8
 8003b3a:	b29b      	uxth	r3, r3
 8003b3c:	2b00      	cmp	r3, #0
 8003b3e:	f040 82a6 	bne.w	800408e <acc_translation_a121_translate+0xb82>
 8003b42:	b28b      	uxth	r3, r1
 8003b44:	9310      	str	r3, [sp, #64]	; 0x40
 8003b46:	920b      	str	r2, [sp, #44]	; 0x2c
 8003b48:	2c00      	cmp	r4, #0
 8003b4a:	f040 82d2 	bne.w	80040f2 <acc_translation_a121_translate+0xbe6>
 8003b4e:	f8db 303c 	ldr.w	r3, [fp, #60]	; 0x3c
 8003b52:	4aab      	ldr	r2, [pc, #684]	; (8003e00 <acc_translation_a121_translate+0x8f4>)
 8003b54:	49ab      	ldr	r1, [pc, #684]	; (8003e04 <acc_translation_a121_translate+0x8f8>)
 8003b56:	4620      	mov	r0, r4
 8003b58:	4798      	blx	r3
 8003b5a:	9b0a      	ldr	r3, [sp, #40]	; 0x28
 8003b5c:	2b00      	cmp	r3, #0
 8003b5e:	f000 83c2 	beq.w	80042e6 <acc_translation_a121_translate+0xdda>
 8003b62:	2300      	movs	r3, #0
 8003b64:	930a      	str	r3, [sp, #40]	; 0x28
 8003b66:	2202      	movs	r2, #2
 8003b68:	6833      	ldr	r3, [r6, #0]
 8003b6a:	449a      	add	sl, r3
 8003b6c:	f50a 43c3 	add.w	r3, sl, #24960	; 0x6180
 8003b70:	fb14 f202 	smulbb	r2, r4, r2
 8003b74:	3328      	adds	r3, #40	; 0x28
 8003b76:	f24c 3150 	movw	r1, #50000	; 0xc350
 8003b7a:	3c01      	subs	r4, #1
 8003b7c:	b292      	uxth	r2, r2
 8003b7e:	428b      	cmp	r3, r1
 8003b80:	920e      	str	r2, [sp, #56]	; 0x38
 8003b82:	fb08 a804 	mla	r8, r8, r4, sl
 8003b86:	d907      	bls.n	8003b98 <acc_translation_a121_translate+0x68c>
 8003b88:	f8db 303c 	ldr.w	r3, [fp, #60]	; 0x3c
 8003b8c:	4a9e      	ldr	r2, [pc, #632]	; (8003e08 <acc_translation_a121_translate+0x8fc>)
 8003b8e:	499d      	ldr	r1, [pc, #628]	; (8003e04 <acc_translation_a121_translate+0x8f8>)
 8003b90:	2000      	movs	r0, #0
 8003b92:	4798      	blx	r3
 8003b94:	2300      	movs	r3, #0
 8003b96:	930a      	str	r3, [sp, #40]	; 0x28
 8003b98:	f508 43c3 	add.w	r3, r8, #24960	; 0x6180
 8003b9c:	3328      	adds	r3, #40	; 0x28
 8003b9e:	f24c 3250 	movw	r2, #50000	; 0xc350
 8003ba2:	4293      	cmp	r3, r2
 8003ba4:	d907      	bls.n	8003bb6 <acc_translation_a121_translate+0x6aa>
 8003ba6:	f8db 303c 	ldr.w	r3, [fp, #60]	; 0x3c
 8003baa:	4a98      	ldr	r2, [pc, #608]	; (8003e0c <acc_translation_a121_translate+0x900>)
 8003bac:	4995      	ldr	r1, [pc, #596]	; (8003e04 <acc_translation_a121_translate+0x8f8>)
 8003bae:	2000      	movs	r0, #0
 8003bb0:	4798      	blx	r3
 8003bb2:	2300      	movs	r3, #0
 8003bb4:	930a      	str	r3, [sp, #40]	; 0x28
 8003bb6:	f1ba 0f00 	cmp.w	sl, #0
 8003bba:	f2c0 838a 	blt.w	80042d2 <acc_translation_a121_translate+0xdc6>
 8003bbe:	2318      	movs	r3, #24
 8003bc0:	fb9a f3f3 	sdiv	r3, sl, r3
 8003bc4:	b21a      	sxth	r2, r3
 8003bc6:	f1b8 0f00 	cmp.w	r8, #0
 8003bca:	f2c0 837a 	blt.w	80042c2 <acc_translation_a121_translate+0xdb6>
 8003bce:	2118      	movs	r1, #24
 8003bd0:	fb98 f1f1 	sdiv	r1, r8, r1
 8003bd4:	b209      	sxth	r1, r1
 8003bd6:	b293      	uxth	r3, r2
 8003bd8:	2218      	movs	r2, #24
 8003bda:	fb9a f0f2 	sdiv	r0, sl, r2
 8003bde:	fb02 aa10 	mls	sl, r2, r0, sl
 8003be2:	f1ba 0f00 	cmp.w	sl, #0
 8003be6:	eba1 0103 	sub.w	r1, r1, r3
 8003bea:	bfb8      	it	lt
 8003bec:	f10a 0a18 	addlt.w	sl, sl, #24
 8003bf0:	9c10      	ldr	r4, [sp, #64]	; 0x40
 8003bf2:	9315      	str	r3, [sp, #84]	; 0x54
 8003bf4:	f04f 0e18 	mov.w	lr, #24
 8003bf8:	b28b      	uxth	r3, r1
 8003bfa:	fa0f fa8a 	sxth.w	sl, sl
 8003bfe:	b209      	sxth	r1, r1
 8003c00:	fbb3 f3f4 	udiv	r3, r3, r4
 8003c04:	9c0b      	ldr	r4, [sp, #44]	; 0x2c
 8003c06:	fb98 f0fe 	sdiv	r0, r8, lr
 8003c0a:	9116      	str	r1, [sp, #88]	; 0x58
 8003c0c:	fb0e 8810 	mls	r8, lr, r0, r8
 8003c10:	990b      	ldr	r1, [sp, #44]	; 0x2c
 8003c12:	fbb2 f2f1 	udiv	r2, r2, r1
 8003c16:	fa1f f18a 	uxth.w	r1, sl
 8003c1a:	f1b8 0f00 	cmp.w	r8, #0
 8003c1e:	fbb1 fcf4 	udiv	ip, r1, r4
 8003c22:	fb04 1c1c 	mls	ip, r4, ip, r1
 8003c26:	fa1f f08c 	uxth.w	r0, ip
 8003c2a:	bfb8      	it	lt
 8003c2c:	f108 0818 	addlt.w	r8, r8, #24
 8003c30:	900f      	str	r0, [sp, #60]	; 0x3c
 8003c32:	fa0f f088 	sxth.w	r0, r8
 8003c36:	9012      	str	r0, [sp, #72]	; 0x48
 8003c38:	9c0f      	ldr	r4, [sp, #60]	; 0x3c
 8003c3a:	980b      	ldr	r0, [sp, #44]	; 0x2c
 8003c3c:	3301      	adds	r3, #1
 8003c3e:	3a01      	subs	r2, #1
 8003c40:	b292      	uxth	r2, r2
 8003c42:	b29b      	uxth	r3, r3
 8003c44:	9218      	str	r2, [sp, #96]	; 0x60
 8003c46:	2b01      	cmp	r3, #1
 8003c48:	fb12 4200 	smlabb	r2, r2, r0, r4
 8003c4c:	b292      	uxth	r2, r2
 8003c4e:	f8bd 0048 	ldrh.w	r0, [sp, #72]	; 0x48
 8003c52:	f000 83f7 	beq.w	8004444 <acc_translation_a121_translate+0xf38>
 8003c56:	1a84      	subs	r4, r0, r2
 8003c58:	980f      	ldr	r0, [sp, #60]	; 0x3c
 8003c5a:	bf18      	it	ne
 8003c5c:	2401      	movne	r4, #1
 8003c5e:	4281      	cmp	r1, r0
 8003c60:	bf14      	ite	ne
 8003c62:	2001      	movne	r0, #1
 8003c64:	2000      	moveq	r0, #0
 8003c66:	eba3 0300 	sub.w	r3, r3, r0
 8003c6a:	eba3 0304 	sub.w	r3, r3, r4
 8003c6e:	b29b      	uxth	r3, r3
 8003c70:	930d      	str	r3, [sp, #52]	; 0x34
 8003c72:	b2a3      	uxth	r3, r4
 8003c74:	9411      	str	r4, [sp, #68]	; 0x44
 8003c76:	9314      	str	r3, [sp, #80]	; 0x50
 8003c78:	f000 83ed 	beq.w	8004456 <acc_translation_a121_translate+0xf4a>
 8003c7c:	4610      	mov	r0, r2
 8003c7e:	9b02      	ldr	r3, [sp, #8]
 8003c80:	9313      	str	r3, [sp, #76]	; 0x4c
 8003c82:	eba0 000a 	sub.w	r0, r0, sl
 8003c86:	9b0b      	ldr	r3, [sp, #44]	; 0x2c
 8003c88:	fb90 f0f3 	sdiv	r0, r0, r3
 8003c8c:	2301      	movs	r3, #1
 8003c8e:	9317      	str	r3, [sp, #92]	; 0x5c
 8003c90:	b283      	uxth	r3, r0
 8003c92:	9319      	str	r3, [sp, #100]	; 0x64
 8003c94:	9b0f      	ldr	r3, [sp, #60]	; 0x3c
 8003c96:	009b      	lsls	r3, r3, #2
 8003c98:	87fb      	strh	r3, [r7, #62]	; 0x3e
 8003c9a:	9b0a      	ldr	r3, [sp, #40]	; 0x28
 8003c9c:	0089      	lsls	r1, r1, #2
 8003c9e:	87b9      	strh	r1, [r7, #60]	; 0x3c
 8003ca0:	2b00      	cmp	r3, #0
 8003ca2:	f000 820f 	beq.w	80040c4 <acc_translation_a121_translate+0xbb8>
 8003ca6:	7bb3      	ldrb	r3, [r6, #14]
 8003ca8:	2b05      	cmp	r3, #5
 8003caa:	f200 8427 	bhi.w	80044fc <acc_translation_a121_translate+0xff0>
 8003cae:	4a53      	ldr	r2, [pc, #332]	; (8003dfc <acc_translation_a121_translate+0x8f0>)
 8003cb0:	eb02 0343 	add.w	r3, r2, r3, lsl #1
 8003cb4:	f8b3 89d8 	ldrh.w	r8, [r3, #2520]	; 0x9d8
 8003cb8:	9b15      	ldr	r3, [sp, #84]	; 0x54
 8003cba:	9916      	ldr	r1, [sp, #88]	; 0x58
 8003cbc:	f1c3 0429 	rsb	r4, r3, #41	; 0x29
 8003cc0:	f1a8 0a4a 	sub.w	sl, r8, #74	; 0x4a
 8003cc4:	fa14 f48a 	uxtah	r4, r4, sl
 8003cc8:	b222      	sxth	r2, r4
 8003cca:	9215      	str	r2, [sp, #84]	; 0x54
 8003ccc:	ea4f 0358 	mov.w	r3, r8, lsr #1
 8003cd0:	1a52      	subs	r2, r2, r1
 8003cd2:	3b03      	subs	r3, #3
 8003cd4:	f1a8 0103 	sub.w	r1, r8, #3
 8003cd8:	2a29      	cmp	r2, #41	; 0x29
 8003cda:	fa1f fa8a 	uxth.w	sl, sl
 8003cde:	b2a4      	uxth	r4, r4
 8003ce0:	86fb      	strh	r3, [r7, #54]	; 0x36
 8003ce2:	86b9      	strh	r1, [r7, #52]	; 0x34
 8003ce4:	dc07      	bgt.n	8003cf6 <acc_translation_a121_translate+0x7ea>
 8003ce6:	f8db 303c 	ldr.w	r3, [fp, #60]	; 0x3c
 8003cea:	4a49      	ldr	r2, [pc, #292]	; (8003e10 <acc_translation_a121_translate+0x904>)
 8003cec:	4945      	ldr	r1, [pc, #276]	; (8003e04 <acc_translation_a121_translate+0x8f8>)
 8003cee:	2000      	movs	r0, #0
 8003cf0:	4798      	blx	r3
 8003cf2:	2300      	movs	r3, #0
 8003cf4:	930a      	str	r3, [sp, #40]	; 0x28
 8003cf6:	9b15      	ldr	r3, [sp, #84]	; 0x54
 8003cf8:	f1a8 0814 	sub.w	r8, r8, #20
 8003cfc:	4543      	cmp	r3, r8
 8003cfe:	db07      	blt.n	8003d10 <acc_translation_a121_translate+0x804>
 8003d00:	f8db 303c 	ldr.w	r3, [fp, #60]	; 0x3c
 8003d04:	4a43      	ldr	r2, [pc, #268]	; (8003e14 <acc_translation_a121_translate+0x908>)
 8003d06:	493f      	ldr	r1, [pc, #252]	; (8003e04 <acc_translation_a121_translate+0x8f8>)
 8003d08:	2000      	movs	r0, #0
 8003d0a:	4798      	blx	r3
 8003d0c:	2300      	movs	r3, #0
 8003d0e:	930a      	str	r3, [sp, #40]	; 0x28
 8003d10:	9b0b      	ldr	r3, [sp, #44]	; 0x2c
 8003d12:	f8a7 a038 	strh.w	sl, [r7, #56]	; 0x38
 8003d16:	3b01      	subs	r3, #1
 8003d18:	009b      	lsls	r3, r3, #2
 8003d1a:	b29b      	uxth	r3, r3
 8003d1c:	2b2c      	cmp	r3, #44	; 0x2c
 8003d1e:	877c      	strh	r4, [r7, #58]	; 0x3a
 8003d20:	f240 8214 	bls.w	800414c <acc_translation_a121_translate+0xc40>
 8003d24:	2300      	movs	r3, #0
 8003d26:	f8a7 3050 	strh.w	r3, [r7, #80]	; 0x50
 8003d2a:	f8a7 3052 	strh.w	r3, [r7, #82]	; 0x52
 8003d2e:	f8a7 3054 	strh.w	r3, [r7, #84]	; 0x54
 8003d32:	9b10      	ldr	r3, [sp, #64]	; 0x40
 8003d34:	3b01      	subs	r3, #1
 8003d36:	f8a7 304e 	strh.w	r3, [r7, #78]	; 0x4e
 8003d3a:	9b17      	ldr	r3, [sp, #92]	; 0x5c
 8003d3c:	f8a7 3048 	strh.w	r3, [r7, #72]	; 0x48
 8003d40:	9b0d      	ldr	r3, [sp, #52]	; 0x34
 8003d42:	2b00      	cmp	r3, #0
 8003d44:	f000 81e4 	beq.w	8004110 <acc_translation_a121_translate+0xc04>
 8003d48:	2301      	movs	r3, #1
 8003d4a:	f8a7 304a 	strh.w	r3, [r7, #74]	; 0x4a
 8003d4e:	9b13      	ldr	r3, [sp, #76]	; 0x4c
 8003d50:	9a14      	ldr	r2, [sp, #80]	; 0x50
 8003d52:	f8a7 204c 	strh.w	r2, [r7, #76]	; 0x4c
 8003d56:	2b00      	cmp	r3, #0
 8003d58:	f000 83f5 	beq.w	8004546 <acc_translation_a121_translate+0x103a>
 8003d5c:	9b19      	ldr	r3, [sp, #100]	; 0x64
 8003d5e:	f8a7 3042 	strh.w	r3, [r7, #66]	; 0x42
 8003d62:	9b18      	ldr	r3, [sp, #96]	; 0x60
 8003d64:	f8a7 3044 	strh.w	r3, [r7, #68]	; 0x44
 8003d68:	9b11      	ldr	r3, [sp, #68]	; 0x44
 8003d6a:	2b00      	cmp	r3, #0
 8003d6c:	f000 83df 	beq.w	800452e <acc_translation_a121_translate+0x1022>
 8003d70:	9b12      	ldr	r3, [sp, #72]	; 0x48
 8003d72:	9a0f      	ldr	r2, [sp, #60]	; 0x3c
 8003d74:	eba3 0c02 	sub.w	ip, r3, r2
 8003d78:	9b0b      	ldr	r3, [sp, #44]	; 0x2c
 8003d7a:	fb9c fcf3 	sdiv	ip, ip, r3
 8003d7e:	f8a7 c046 	strh.w	ip, [r7, #70]	; 0x46
 8003d82:	9b0d      	ldr	r3, [sp, #52]	; 0x34
 8003d84:	3b01      	subs	r3, #1
 8003d86:	b29b      	uxth	r3, r3
 8003d88:	930d      	str	r3, [sp, #52]	; 0x34
 8003d8a:	9b0d      	ldr	r3, [sp, #52]	; 0x34
 8003d8c:	f8a7 3040 	strh.w	r3, [r7, #64]	; 0x40
 8003d90:	9b0a      	ldr	r3, [sp, #40]	; 0x28
 8003d92:	2b00      	cmp	r3, #0
 8003d94:	d059      	beq.n	8003e4a <acc_translation_a121_translate+0x93e>
 8003d96:	7ab3      	ldrb	r3, [r6, #10]
 8003d98:	2b17      	cmp	r3, #23
 8003d9a:	f200 8185 	bhi.w	80040a8 <acc_translation_a121_translate+0xb9c>
 8003d9e:	2b09      	cmp	r3, #9
 8003da0:	f200 838a 	bhi.w	80044b8 <acc_translation_a121_translate+0xfac>
 8003da4:	f1c3 0309 	rsb	r3, r3, #9
 8003da8:	2215      	movs	r2, #21
 8003daa:	807b      	strh	r3, [r7, #2]
 8003dac:	803a      	strh	r2, [r7, #0]
 8003dae:	9a03      	ldr	r2, [sp, #12]
 8003db0:	2a00      	cmp	r2, #0
 8003db2:	f000 842a 	beq.w	800460a <acc_translation_a121_translate+0x10fe>
 8003db6:	887b      	ldrh	r3, [r7, #2]
 8003db8:	eb02 0343 	add.w	r3, r2, r3, lsl #1
 8003dbc:	899b      	ldrh	r3, [r3, #12]
 8003dbe:	7bf0      	ldrb	r0, [r6, #15]
 8003dc0:	80bb      	strh	r3, [r7, #4]
 8003dc2:	a91a      	add	r1, sp, #104	; 0x68
 8003dc4:	f7fd f8a6 	bl	8000f14 <acc_translation_a121_profile_to_pulse_params>
 8003dc8:	bb40      	cbnz	r0, 8003e1c <acc_translation_a121_translate+0x910>
 8003dca:	46d9      	mov	r9, fp
 8003dcc:	f8dd a018 	ldr.w	sl, [sp, #24]
 8003dd0:	f8d9 303c 	ldr.w	r3, [r9, #60]	; 0x3c
 8003dd4:	4a10      	ldr	r2, [pc, #64]	; (8003e18 <acc_translation_a121_translate+0x90c>)
 8003dd6:	490b      	ldr	r1, [pc, #44]	; (8003e04 <acc_translation_a121_translate+0x8f8>)
 8003dd8:	f8dd 800c 	ldr.w	r8, [sp, #12]
 8003ddc:	f8dd b004 	ldr.w	fp, [sp, #4]
 8003de0:	4798      	blx	r3
 8003de2:	2356      	movs	r3, #86	; 0x56
 8003de4:	fb03 a305 	mla	r3, r3, r5, sl
 8003de8:	f8bd 1084 	ldrh.w	r1, [sp, #132]	; 0x84
 8003dec:	f8bd 2086 	ldrh.w	r2, [sp, #134]	; 0x86
 8003df0:	f8a3 1070 	strh.w	r1, [r3, #112]	; 0x70
 8003df4:	f8a3 206e 	strh.w	r2, [r3, #110]	; 0x6e
 8003df8:	e5f7      	b.n	80039ea <acc_translation_a121_translate+0x4de>
 8003dfa:	bf00      	nop
 8003dfc:	0800b5e0 	.word	0x0800b5e0
 8003e00:	0800fec0 	.word	0x0800fec0
 8003e04:	0800fd14 	.word	0x0800fd14
 8003e08:	0800ff0c 	.word	0x0800ff0c
 8003e0c:	0800ff20 	.word	0x0800ff20
 8003e10:	0800ff54 	.word	0x0800ff54
 8003e14:	0800ff74 	.word	0x0800ff74
 8003e18:	0800fe9c 	.word	0x0800fe9c
 8003e1c:	f8bd 407c 	ldrh.w	r4, [sp, #124]	; 0x7c
 8003e20:	f8bd 3084 	ldrh.w	r3, [sp, #132]	; 0x84
 8003e24:	857b      	strh	r3, [r7, #42]	; 0x2a
 8003e26:	2c08      	cmp	r4, #8
 8003e28:	f8bd 3086 	ldrh.w	r3, [sp, #134]	; 0x86
 8003e2c:	853b      	strh	r3, [r7, #40]	; 0x28
 8003e2e:	d80c      	bhi.n	8003e4a <acc_translation_a121_translate+0x93e>
 8003e30:	f8bd 307e 	ldrh.w	r3, [sp, #126]	; 0x7e
 8003e34:	2b07      	cmp	r3, #7
 8003e36:	d808      	bhi.n	8003e4a <acc_translation_a121_translate+0x93e>
 8003e38:	f8bd c080 	ldrh.w	ip, [sp, #128]	; 0x80
 8003e3c:	f1bc 0f08 	cmp.w	ip, #8
 8003e40:	d803      	bhi.n	8003e4a <acc_translation_a121_translate+0x93e>
 8003e42:	f8bd 2082 	ldrh.w	r2, [sp, #130]	; 0x82
 8003e46:	2a08      	cmp	r2, #8
 8003e48:	d91a      	bls.n	8003e80 <acc_translation_a121_translate+0x974>
 8003e4a:	46d9      	mov	r9, fp
 8003e4c:	f8dd 800c 	ldr.w	r8, [sp, #12]
 8003e50:	f8dd a018 	ldr.w	sl, [sp, #24]
 8003e54:	f8dd b004 	ldr.w	fp, [sp, #4]
 8003e58:	e5c7      	b.n	80039ea <acc_translation_a121_translate+0x4de>
 8003e5a:	1e58      	subs	r0, r3, #1
 8003e5c:	b2c0      	uxtb	r0, r0
 8003e5e:	2804      	cmp	r0, #4
 8003e60:	f67f ae5a 	bls.w	8003b18 <acc_translation_a121_translate+0x60c>
 8003e64:	46d9      	mov	r9, fp
 8003e66:	4abf      	ldr	r2, [pc, #764]	; (8004164 <acc_translation_a121_translate+0xc58>)
 8003e68:	f8d9 303c 	ldr.w	r3, [r9, #60]	; 0x3c
 8003e6c:	49be      	ldr	r1, [pc, #760]	; (8004168 <acc_translation_a121_translate+0xc5c>)
 8003e6e:	f8dd 800c 	ldr.w	r8, [sp, #12]
 8003e72:	f8dd a018 	ldr.w	sl, [sp, #24]
 8003e76:	f8dd b004 	ldr.w	fp, [sp, #4]
 8003e7a:	2000      	movs	r0, #0
 8003e7c:	4798      	blx	r3
 8003e7e:	e5b4      	b.n	80039ea <acc_translation_a121_translate+0x4de>
 8003e80:	2101      	movs	r1, #1
 8003e82:	fa01 f303 	lsl.w	r3, r1, r3
 8003e86:	1e50      	subs	r0, r2, #1
 8003e88:	3b01      	subs	r3, #1
 8003e8a:	b29b      	uxth	r3, r3
 8003e8c:	fa01 f202 	lsl.w	r2, r1, r2
 8003e90:	fa01 f000 	lsl.w	r0, r1, r0
 8003e94:	813c      	strh	r4, [r7, #8]
 8003e96:	3a01      	subs	r2, #1
 8003e98:	019c      	lsls	r4, r3, #6
 8003e9a:	3801      	subs	r0, #1
 8003e9c:	025b      	lsls	r3, r3, #9
 8003e9e:	0240      	lsls	r0, r0, #9
 8003ea0:	823b      	strh	r3, [r7, #16]
 8003ea2:	0192      	lsls	r2, r2, #6
 8003ea4:	9b01      	ldr	r3, [sp, #4]
 8003ea6:	8278      	strh	r0, [r7, #18]
 8003ea8:	f8a7 c00a 	strh.w	ip, [r7, #10]
 8003eac:	81bc      	strh	r4, [r7, #12]
 8003eae:	81fa      	strh	r2, [r7, #14]
 8003eb0:	f89d 0068 	ldrb.w	r0, [sp, #104]	; 0x68
 8003eb4:	f893 304d 	ldrb.w	r3, [r3, #77]	; 0x4d
 8003eb8:	931e      	str	r3, [sp, #120]	; 0x78
 8003eba:	2800      	cmp	r0, #0
 8003ebc:	d053      	beq.n	8003f66 <acc_translation_a121_translate+0xa5a>
 8003ebe:	9a1b      	ldr	r2, [sp, #108]	; 0x6c
 8003ec0:	2a00      	cmp	r2, #0
 8003ec2:	d050      	beq.n	8003f66 <acc_translation_a121_translate+0xa5a>
 8003ec4:	2b02      	cmp	r3, #2
 8003ec6:	f200 82a4 	bhi.w	8004412 <acc_translation_a121_translate+0xf06>
 8003eca:	4ca8      	ldr	r4, [pc, #672]	; (800416c <acc_translation_a121_translate+0xc60>)
 8003ecc:	4423      	add	r3, r4
 8003ece:	f893 39e4 	ldrb.w	r3, [r3, #2532]	; 0x9e4
 8003ed2:	82bb      	strh	r3, [r7, #20]
 8003ed4:	9b03      	ldr	r3, [sp, #12]
 8003ed6:	2b00      	cmp	r3, #0
 8003ed8:	d064      	beq.n	8003fa4 <acc_translation_a121_translate+0xa98>
 8003eda:	f107 0a14 	add.w	sl, r7, #20
 8003ede:	2300      	movs	r3, #0
 8003ee0:	833b      	strh	r3, [r7, #24]
 8003ee2:	920a      	str	r2, [sp, #40]	; 0x28
 8003ee4:	f8aa 1010 	strh.w	r1, [sl, #16]
 8003ee8:	9b03      	ldr	r3, [sp, #12]
 8003eea:	f8dd c074 	ldr.w	ip, [sp, #116]	; 0x74
 8003eee:	f8d3 e060 	ldr.w	lr, [r3, #96]	; 0x60
 8003ef2:	900b      	str	r0, [sp, #44]	; 0x2c
 8003ef4:	e9d3 8419 	ldrd	r8, r4, [r3, #100]	; 0x64
 8003ef8:	2100      	movs	r1, #0
 8003efa:	460b      	mov	r3, r1
 8003efc:	4620      	mov	r0, r4
 8003efe:	eb08 4211 	add.w	r2, r8, r1, lsr #16
 8003f02:	eba2 020e 	sub.w	r2, r2, lr
 8003f06:	4562      	cmp	r2, ip
 8003f08:	b29c      	uxth	r4, r3
 8003f0a:	4401      	add	r1, r0
 8003f0c:	f103 0301 	add.w	r3, r3, #1
 8003f10:	f280 83e7 	bge.w	80046e2 <acc_translation_a121_translate+0x11d6>
 8003f14:	2b0f      	cmp	r3, #15
 8003f16:	d1f2      	bne.n	8003efe <acc_translation_a121_translate+0x9f2>
 8003f18:	980b      	ldr	r0, [sp, #44]	; 0x2c
 8003f1a:	461c      	mov	r4, r3
 8003f1c:	9b03      	ldr	r3, [sp, #12]
 8003f1e:	f8d3 c078 	ldr.w	ip, [r3, #120]	; 0x78
 8003f22:	f8d3 e074 	ldr.w	lr, [r3, #116]	; 0x74
 8003f26:	f8aa 4006 	strh.w	r4, [sl, #6]
 8003f2a:	9c0a      	ldr	r4, [sp, #40]	; 0x28
 8003f2c:	eb0c 018c 	add.w	r1, ip, ip, lsl #2
 8003f30:	2205      	movs	r2, #5
 8003f32:	eb0e 4311 	add.w	r3, lr, r1, lsr #16
 8003f36:	1b1b      	subs	r3, r3, r4
 8003f38:	f102 0801 	add.w	r8, r2, #1
 8003f3c:	4461      	add	r1, ip
 8003f3e:	f140 83ab 	bpl.w	8004698 <acc_translation_a121_translate+0x118c>
 8003f42:	fa1f f288 	uxth.w	r2, r8
 8003f46:	2a14      	cmp	r2, #20
 8003f48:	d1f3      	bne.n	8003f32 <acc_translation_a121_translate+0xa26>
 8003f4a:	46d9      	mov	r9, fp
 8003f4c:	4a88      	ldr	r2, [pc, #544]	; (8004170 <acc_translation_a121_translate+0xc64>)
 8003f4e:	f8d9 303c 	ldr.w	r3, [r9, #60]	; 0x3c
 8003f52:	4985      	ldr	r1, [pc, #532]	; (8004168 <acc_translation_a121_translate+0xc5c>)
 8003f54:	f8dd 800c 	ldr.w	r8, [sp, #12]
 8003f58:	f8dd a018 	ldr.w	sl, [sp, #24]
 8003f5c:	f8dd b004 	ldr.w	fp, [sp, #4]
 8003f60:	2000      	movs	r0, #0
 8003f62:	4798      	blx	r3
 8003f64:	e541      	b.n	80039ea <acc_translation_a121_translate+0x4de>
 8003f66:	2b07      	cmp	r3, #7
 8003f68:	f200 8253 	bhi.w	8004412 <acc_translation_a121_translate+0xf06>
 8003f6c:	4a7f      	ldr	r2, [pc, #508]	; (800416c <acc_translation_a121_translate+0xc60>)
 8003f6e:	4413      	add	r3, r2
 8003f70:	f893 39e8 	ldrb.w	r3, [r3, #2536]	; 0x9e8
 8003f74:	82bb      	strh	r3, [r7, #20]
 8003f76:	9b03      	ldr	r3, [sp, #12]
 8003f78:	b1a3      	cbz	r3, 8003fa4 <acc_translation_a121_translate+0xa98>
 8003f7a:	2300      	movs	r3, #0
 8003f7c:	833b      	strh	r3, [r7, #24]
 8003f7e:	f107 0a14 	add.w	sl, r7, #20
 8003f82:	2800      	cmp	r0, #0
 8003f84:	f040 8106 	bne.w	8004194 <acc_translation_a121_translate+0xc88>
 8003f88:	84b8      	strh	r0, [r7, #36]	; 0x24
 8003f8a:	8378      	strh	r0, [r7, #26]
 8003f8c:	82f8      	strh	r0, [r7, #22]
 8003f8e:	f8aa 0008 	strh.w	r0, [sl, #8]
 8003f92:	f8aa 000e 	strh.w	r0, [sl, #14]
 8003f96:	2300      	movs	r3, #0
 8003f98:	f8aa 300a 	strh.w	r3, [sl, #10]
 8003f9c:	2300      	movs	r3, #0
 8003f9e:	843b      	strh	r3, [r7, #32]
 8003fa0:	f8aa 3012 	strh.w	r3, [sl, #18]
 8003fa4:	8930      	ldrh	r0, [r6, #8]
 8003fa6:	f896 c00b 	ldrb.w	ip, [r6, #11]
 8003faa:	f8a7 c030 	strh.w	ip, [r7, #48]	; 0x30
 8003fae:	2801      	cmp	r0, #1
 8003fb0:	d069      	beq.n	8004086 <acc_translation_a121_translate+0xb7a>
 8003fb2:	2101      	movs	r1, #1
 8003fb4:	1e83      	subs	r3, r0, #2
 8003fb6:	85f9      	strh	r1, [r7, #46]	; 0x2e
 8003fb8:	85bb      	strh	r3, [r7, #44]	; 0x2c
 8003fba:	7b71      	ldrb	r1, [r6, #13]
 8003fbc:	9c00      	ldr	r4, [sp, #0]
 8003fbe:	89a3      	ldrh	r3, [r4, #12]
 8003fc0:	80f9      	strh	r1, [r7, #6]
 8003fc2:	f081 0101 	eor.w	r1, r1, #1
 8003fc6:	8679      	strh	r1, [r7, #50]	; 0x32
 8003fc8:	990e      	ldr	r1, [sp, #56]	; 0x38
 8003fca:	f8a9 3000 	strh.w	r3, [r9]
 8003fce:	f8a9 1008 	strh.w	r1, [r9, #8]
 8003fd2:	440b      	add	r3, r1
 8003fd4:	7bf1      	ldrb	r1, [r6, #15]
 8003fd6:	81a3      	strh	r3, [r4, #12]
 8003fd8:	2901      	cmp	r1, #1
 8003fda:	8d3b      	ldrh	r3, [r7, #40]	; 0x28
 8003fdc:	d02f      	beq.n	800403e <acc_translation_a121_translate+0xb32>
 8003fde:	2902      	cmp	r1, #2
 8003fe0:	bf0c      	ite	eq
 8003fe2:	eeb0 6a68 	vmoveq.f32	s12, s17
 8003fe6:	eeb0 6a69 	vmovne.f32	s12, s19
 8003fea:	3301      	adds	r3, #1
 8003fec:	b29b      	uxth	r3, r3
 8003fee:	88b2      	ldrh	r2, [r6, #4]
 8003ff0:	ee07 3a10 	vmov	s14, r3
 8003ff4:	ee07 2a90 	vmov	s15, r2
 8003ff8:	eeb8 7a47 	vcvt.f32.u32	s14, s14
 8003ffc:	eef1 6a00 	vmov.f32	s13, #16	; 0x40800000  4.0
 8004000:	ee27 7a26 	vmul.f32	s14, s14, s13
 8004004:	eef8 7a67 	vcvt.f32.u32	s15, s15
 8004008:	ee06 0a90 	vmov	s13, r0
 800400c:	ee67 7a27 	vmul.f32	s15, s14, s15
 8004010:	eef8 6a66 	vcvt.f32.u32	s13, s13
 8004014:	9b05      	ldr	r3, [sp, #20]
 8004016:	ee67 7aa6 	vmul.f32	s15, s15, s13
 800401a:	461a      	mov	r2, r3
 800401c:	ee67 7a86 	vmul.f32	s15, s15, s12
 8004020:	2b00      	cmp	r3, #0
 8004022:	bf08      	it	eq
 8004024:	4662      	moveq	r2, ip
 8004026:	ee67 7a8a 	vmul.f32	s15, s15, s20
 800402a:	9b04      	ldr	r3, [sp, #16]
 800402c:	9205      	str	r2, [sp, #20]
 800402e:	eefc 7ae7 	vcvt.u32.f32	s15, s15
 8004032:	ee17 2a90 	vmov	r2, s15
 8004036:	4413      	add	r3, r2
 8004038:	9304      	str	r3, [sp, #16]
 800403a:	f7ff bb8a 	b.w	8003752 <acc_translation_a121_translate+0x246>
 800403e:	ed9f 6a4d 	vldr	s12, [pc, #308]	; 8004174 <acc_translation_a121_translate+0xc68>
 8004042:	e7d2      	b.n	8003fea <acc_translation_a121_translate+0xade>
 8004044:	d415      	bmi.n	8004072 <acc_translation_a121_translate+0xb66>
 8004046:	f300 8255 	bgt.w	80044f4 <acc_translation_a121_translate+0xfe8>
 800404a:	f89b 304a 	ldrb.w	r3, [fp, #74]	; 0x4a
 800404e:	2b00      	cmp	r3, #0
 8004050:	f43f ad32 	beq.w	8003ab8 <acc_translation_a121_translate+0x5ac>
 8004054:	eef5 7a40 	vcmp.f32	s15, #0.0
 8004058:	eef1 fa10 	vmrs	APSR_nzcv, fpscr
 800405c:	d105      	bne.n	800406a <acc_translation_a121_translate+0xb5e>
 800405e:	eeb5 6a40 	vcmp.f32	s12, #0.0
 8004062:	eef1 fa10 	vmrs	APSR_nzcv, fpscr
 8004066:	f040 82e3 	bne.w	8004630 <acc_translation_a121_translate+0x1124>
 800406a:	ed9f 9a43 	vldr	s18, [pc, #268]	; 8004178 <acc_translation_a121_translate+0xc6c>
 800406e:	f7ff ba91 	b.w	8003594 <acc_translation_a121_translate+0x88>
 8004072:	ed9f 9a41 	vldr	s18, [pc, #260]	; 8004178 <acc_translation_a121_translate+0xc6c>
 8004076:	f8d9 303c 	ldr.w	r3, [r9, #60]	; 0x3c
 800407a:	4a40      	ldr	r2, [pc, #256]	; (800417c <acc_translation_a121_translate+0xc70>)
 800407c:	493a      	ldr	r1, [pc, #232]	; (8004168 <acc_translation_a121_translate+0xc5c>)
 800407e:	2000      	movs	r0, #0
 8004080:	4798      	blx	r3
 8004082:	f7ff bab5 	b.w	80035f0 <acc_translation_a121_translate+0xe4>
 8004086:	2300      	movs	r3, #0
 8004088:	85fb      	strh	r3, [r7, #46]	; 0x2e
 800408a:	85bb      	strh	r3, [r7, #44]	; 0x2c
 800408c:	e795      	b.n	8003fba <acc_translation_a121_translate+0xaae>
 800408e:	f8db 303c 	ldr.w	r3, [fp, #60]	; 0x3c
 8004092:	930d      	str	r3, [sp, #52]	; 0x34
 8004094:	2301      	movs	r3, #1
 8004096:	930b      	str	r3, [sp, #44]	; 0x2c
 8004098:	4a39      	ldr	r2, [pc, #228]	; (8004180 <acc_translation_a121_translate+0xc74>)
 800409a:	9b0d      	ldr	r3, [sp, #52]	; 0x34
 800409c:	4932      	ldr	r1, [pc, #200]	; (8004168 <acc_translation_a121_translate+0xc5c>)
 800409e:	2000      	movs	r0, #0
 80040a0:	4798      	blx	r3
 80040a2:	9b0b      	ldr	r3, [sp, #44]	; 0x2c
 80040a4:	9310      	str	r3, [sp, #64]	; 0x40
 80040a6:	e558      	b.n	8003b5a <acc_translation_a121_translate+0x64e>
 80040a8:	46d9      	mov	r9, fp
 80040aa:	4a36      	ldr	r2, [pc, #216]	; (8004184 <acc_translation_a121_translate+0xc78>)
 80040ac:	f8d9 303c 	ldr.w	r3, [r9, #60]	; 0x3c
 80040b0:	492d      	ldr	r1, [pc, #180]	; (8004168 <acc_translation_a121_translate+0xc5c>)
 80040b2:	f8dd 800c 	ldr.w	r8, [sp, #12]
 80040b6:	f8dd a018 	ldr.w	sl, [sp, #24]
 80040ba:	f8dd b004 	ldr.w	fp, [sp, #4]
 80040be:	2000      	movs	r0, #0
 80040c0:	4798      	blx	r3
 80040c2:	e492      	b.n	80039ea <acc_translation_a121_translate+0x4de>
 80040c4:	f04f 0880 	mov.w	r8, #128	; 0x80
 80040c8:	e5f6      	b.n	8003cb8 <acc_translation_a121_translate+0x7ac>
 80040ca:	f1b8 0f00 	cmp.w	r8, #0
 80040ce:	d0de      	beq.n	800408e <acc_translation_a121_translate+0xb82>
 80040d0:	2318      	movs	r3, #24
 80040d2:	fbb3 f3f8 	udiv	r3, r3, r8
 80040d6:	fb08 f303 	mul.w	r3, r8, r3
 80040da:	f1c3 0318 	rsb	r3, r3, #24
 80040de:	b29b      	uxth	r3, r3
 80040e0:	2b00      	cmp	r3, #0
 80040e2:	d1d4      	bne.n	800408e <acc_translation_a121_translate+0xb82>
 80040e4:	2301      	movs	r3, #1
 80040e6:	f8cd 802c 	str.w	r8, [sp, #44]	; 0x2c
 80040ea:	9310      	str	r3, [sp, #64]	; 0x40
 80040ec:	2c00      	cmp	r4, #0
 80040ee:	f43f ad2e 	beq.w	8003b4e <acc_translation_a121_translate+0x642>
 80040f2:	980a      	ldr	r0, [sp, #40]	; 0x28
 80040f4:	2800      	cmp	r0, #0
 80040f6:	f47f ad36 	bne.w	8003b66 <acc_translation_a121_translate+0x65a>
 80040fa:	7b33      	ldrb	r3, [r6, #12]
 80040fc:	2b00      	cmp	r3, #0
 80040fe:	f000 80f0 	beq.w	80042e2 <acc_translation_a121_translate+0xdd6>
 8004102:	4a21      	ldr	r2, [pc, #132]	; (8004188 <acc_translation_a121_translate+0xc7c>)
 8004104:	f8db 303c 	ldr.w	r3, [fp, #60]	; 0x3c
 8004108:	4917      	ldr	r1, [pc, #92]	; (8004168 <acc_translation_a121_translate+0xc5c>)
 800410a:	4798      	blx	r3
 800410c:	2204      	movs	r2, #4
 800410e:	e52b      	b.n	8003b68 <acc_translation_a121_translate+0x65c>
 8004110:	9b0d      	ldr	r3, [sp, #52]	; 0x34
 8004112:	f8a7 304a 	strh.w	r3, [r7, #74]	; 0x4a
 8004116:	9b14      	ldr	r3, [sp, #80]	; 0x50
 8004118:	f8a7 304c 	strh.w	r3, [r7, #76]	; 0x4c
 800411c:	9b13      	ldr	r3, [sp, #76]	; 0x4c
 800411e:	2b00      	cmp	r3, #0
 8004120:	f000 820d 	beq.w	800453e <acc_translation_a121_translate+0x1032>
 8004124:	9b19      	ldr	r3, [sp, #100]	; 0x64
 8004126:	f8a7 3042 	strh.w	r3, [r7, #66]	; 0x42
 800412a:	2300      	movs	r3, #0
 800412c:	f8a7 3044 	strh.w	r3, [r7, #68]	; 0x44
 8004130:	9b11      	ldr	r3, [sp, #68]	; 0x44
 8004132:	2b00      	cmp	r3, #0
 8004134:	f000 81ff 	beq.w	8004536 <acc_translation_a121_translate+0x102a>
 8004138:	9b12      	ldr	r3, [sp, #72]	; 0x48
 800413a:	9a0f      	ldr	r2, [sp, #60]	; 0x3c
 800413c:	eba3 0c02 	sub.w	ip, r3, r2
 8004140:	9b0b      	ldr	r3, [sp, #44]	; 0x2c
 8004142:	fb9c fcf3 	sdiv	ip, ip, r3
 8004146:	f8a7 c046 	strh.w	ip, [r7, #70]	; 0x46
 800414a:	e61e      	b.n	8003d8a <acc_translation_a121_translate+0x87e>
 800414c:	2b1e      	cmp	r3, #30
 800414e:	f240 81e1 	bls.w	8004514 <acc_translation_a121_translate+0x1008>
 8004152:	220f      	movs	r2, #15
 8004154:	3b1e      	subs	r3, #30
 8004156:	f8a7 3054 	strh.w	r3, [r7, #84]	; 0x54
 800415a:	f8a7 2050 	strh.w	r2, [r7, #80]	; 0x50
 800415e:	f8a7 2052 	strh.w	r2, [r7, #82]	; 0x52
 8004162:	e5e6      	b.n	8003d32 <acc_translation_a121_translate+0x826>
 8004164:	0800fe9c 	.word	0x0800fe9c
 8004168:	0800fd14 	.word	0x0800fd14
 800416c:	0800b5e0 	.word	0x0800b5e0
 8004170:	0800ffc4 	.word	0x0800ffc4
 8004174:	3e4ccccd 	.word	0x3e4ccccd
 8004178:	00000000 	.word	0x00000000
 800417c:	0800fd68 	.word	0x0800fd68
 8004180:	0800feac 	.word	0x0800feac
 8004184:	0800ff8c 	.word	0x0800ff8c
 8004188:	0800fed4 	.word	0x0800fed4
 800418c:	419d999a 	.word	0x419d999a
 8004190:	4f1502f9 	.word	0x4f1502f9
 8004194:	9b1b      	ldr	r3, [sp, #108]	; 0x6c
 8004196:	930a      	str	r3, [sp, #40]	; 0x28
 8004198:	461a      	mov	r2, r3
 800419a:	2301      	movs	r3, #1
 800419c:	f8aa 3010 	strh.w	r3, [sl, #16]
 80041a0:	2a00      	cmp	r2, #0
 80041a2:	f47f aea1 	bne.w	8003ee8 <acc_translation_a121_translate+0x9dc>
 80041a6:	9b1c      	ldr	r3, [sp, #112]	; 0x70
 80041a8:	9a0a      	ldr	r2, [sp, #40]	; 0x28
 80041aa:	930b      	str	r3, [sp, #44]	; 0x2c
 80041ac:	f5b3 7f16 	cmp.w	r3, #600	; 0x258
 80041b0:	f8aa 2006 	strh.w	r2, [sl, #6]
 80041b4:	f8aa 2002 	strh.w	r2, [sl, #2]
 80041b8:	f0c0 82b8 	bcc.w	800472c <acc_translation_a121_translate+0x1220>
 80041bc:	9b03      	ldr	r3, [sp, #12]
 80041be:	f8d3 c06c 	ldr.w	ip, [r3, #108]	; 0x6c
 80041c2:	9b0b      	ldr	r3, [sp, #44]	; 0x2c
 80041c4:	2100      	movs	r1, #0
 80041c6:	eba3 0e0c 	sub.w	lr, r3, ip
 80041ca:	f44f 72c8 	mov.w	r2, #400	; 0x190
 80041ce:	fb01 2402 	mla	r4, r1, r2, r2
 80041d2:	4574      	cmp	r4, lr
 80041d4:	460b      	mov	r3, r1
 80041d6:	f101 0101 	add.w	r1, r1, #1
 80041da:	dbf8      	blt.n	80041ce <acc_translation_a121_translate+0xcc2>
 80041dc:	990a      	ldr	r1, [sp, #40]	; 0x28
 80041de:	2900      	cmp	r1, #0
 80041e0:	bf14      	ite	ne
 80041e2:	2401      	movne	r4, #1
 80041e4:	2400      	moveq	r4, #0
 80041e6:	f04f 0101 	mov.w	r1, #1
 80041ea:	f8aa 4008 	strh.w	r4, [sl, #8]
 80041ee:	f8aa 100e 	strh.w	r1, [sl, #14]
 80041f2:	f000 8243 	beq.w	800467c <acc_translation_a121_translate+0x1170>
 80041f6:	9a03      	ldr	r2, [sp, #12]
 80041f8:	f8d2 8070 	ldr.w	r8, [r2, #112]	; 0x70
 80041fc:	9a0b      	ldr	r2, [sp, #44]	; 0x2c
 80041fe:	f44f 74c8 	mov.w	r4, #400	; 0x190
 8004202:	2000      	movs	r0, #0
 8004204:	fb04 2413 	mls	r4, r4, r3, r2
 8004208:	4602      	mov	r2, r0
 800420a:	e002      	b.n	8004212 <acc_translation_a121_translate+0xd06>
 800420c:	2a16      	cmp	r2, #22
 800420e:	f43f ae9c 	beq.w	8003f4a <acc_translation_a121_translate+0xa3e>
 8004212:	eb0c 4110 	add.w	r1, ip, r0, lsr #16
 8004216:	1b09      	subs	r1, r1, r4
 8004218:	fa1f fe82 	uxth.w	lr, r2
 800421c:	4440      	add	r0, r8
 800421e:	f102 0201 	add.w	r2, r2, #1
 8004222:	d4f3      	bmi.n	800420c <acc_translation_a121_translate+0xd00>
 8004224:	f1be 0f00 	cmp.w	lr, #0
 8004228:	d00a      	beq.n	8004240 <acc_translation_a121_translate+0xd34>
 800422a:	f10e 32ff 	add.w	r2, lr, #4294967295	; 0xffffffff
 800422e:	b290      	uxth	r0, r2
 8004230:	fb08 f200 	mul.w	r2, r8, r0
 8004234:	eb0c 4212 	add.w	r2, ip, r2, lsr #16
 8004238:	1aa2      	subs	r2, r4, r2
 800423a:	4291      	cmp	r1, r2
 800423c:	bfc8      	it	gt
 800423e:	4686      	movgt	lr, r0
 8004240:	f8aa e00a 	strh.w	lr, [sl, #10]
 8004244:	2b00      	cmp	r3, #0
 8004246:	f000 8253 	beq.w	80046f0 <acc_translation_a121_translate+0x11e4>
 800424a:	990b      	ldr	r1, [sp, #44]	; 0x2c
 800424c:	f44f 72c8 	mov.w	r2, #400	; 0x190
 8004250:	fb02 1213 	mls	r2, r2, r3, r1
 8004254:	920b      	str	r2, [sp, #44]	; 0x2c
 8004256:	9a0a      	ldr	r2, [sp, #40]	; 0x28
 8004258:	2a00      	cmp	r2, #0
 800425a:	f040 824f 	bne.w	80046fc <acc_translation_a121_translate+0x11f0>
 800425e:	4614      	mov	r4, r2
 8004260:	9a03      	ldr	r2, [sp, #12]
 8004262:	f8d2 e058 	ldr.w	lr, [r2, #88]	; 0x58
 8004266:	f8d2 805c 	ldr.w	r8, [r2, #92]	; 0x5c
 800426a:	9a0b      	ldr	r2, [sp, #44]	; 0x2c
 800426c:	2000      	movs	r0, #0
 800426e:	4414      	add	r4, r2
 8004270:	4602      	mov	r2, r0
 8004272:	e002      	b.n	800427a <acc_translation_a121_translate+0xd6e>
 8004274:	2a16      	cmp	r2, #22
 8004276:	f43f ae68 	beq.w	8003f4a <acc_translation_a121_translate+0xa3e>
 800427a:	eb0e 4110 	add.w	r1, lr, r0, lsr #16
 800427e:	1b09      	subs	r1, r1, r4
 8004280:	fa1f fc82 	uxth.w	ip, r2
 8004284:	4440      	add	r0, r8
 8004286:	f102 0201 	add.w	r2, r2, #1
 800428a:	d4f3      	bmi.n	8004274 <acc_translation_a121_translate+0xd68>
 800428c:	f1bc 0f00 	cmp.w	ip, #0
 8004290:	d00d      	beq.n	80042ae <acc_translation_a121_translate+0xda2>
 8004292:	9a0a      	ldr	r2, [sp, #40]	; 0x28
 8004294:	b95a      	cbnz	r2, 80042ae <acc_translation_a121_translate+0xda2>
 8004296:	f10c 32ff 	add.w	r2, ip, #4294967295	; 0xffffffff
 800429a:	b292      	uxth	r2, r2
 800429c:	fb08 f802 	mul.w	r8, r8, r2
 80042a0:	eb0e 4818 	add.w	r8, lr, r8, lsr #16
 80042a4:	eba4 0808 	sub.w	r8, r4, r8
 80042a8:	4541      	cmp	r1, r8
 80042aa:	bfc8      	it	gt
 80042ac:	4694      	movgt	ip, r2
 80042ae:	f8a7 c020 	strh.w	ip, [r7, #32]
 80042b2:	2b00      	cmp	r3, #0
 80042b4:	f43f ae74 	beq.w	8003fa0 <acc_translation_a121_translate+0xa94>
 80042b8:	1dda      	adds	r2, r3, #7
 80042ba:	2301      	movs	r3, #1
 80042bc:	4093      	lsls	r3, r2
 80042be:	b29b      	uxth	r3, r3
 80042c0:	e66e      	b.n	8003fa0 <acc_translation_a121_translate+0xa94>
 80042c2:	ea6f 0108 	mvn.w	r1, r8
 80042c6:	2318      	movs	r3, #24
 80042c8:	fbb1 f1f3 	udiv	r1, r1, r3
 80042cc:	43c9      	mvns	r1, r1
 80042ce:	b209      	sxth	r1, r1
 80042d0:	e481      	b.n	8003bd6 <acc_translation_a121_translate+0x6ca>
 80042d2:	ea6f 020a 	mvn.w	r2, sl
 80042d6:	2318      	movs	r3, #24
 80042d8:	fbb2 f3f3 	udiv	r3, r2, r3
 80042dc:	43db      	mvns	r3, r3
 80042de:	b21a      	sxth	r2, r3
 80042e0:	e471      	b.n	8003bc6 <acc_translation_a121_translate+0x6ba>
 80042e2:	9b02      	ldr	r3, [sp, #8]
 80042e4:	930a      	str	r3, [sp, #40]	; 0x28
 80042e6:	2204      	movs	r2, #4
 80042e8:	e43e      	b.n	8003b68 <acc_translation_a121_translate+0x65c>
 80042ea:	f1bc 0f01 	cmp.w	ip, #1
 80042ee:	f000 818f 	beq.w	8004610 <acc_translation_a121_translate+0x1104>
 80042f2:	ee07 1a90 	vmov	s15, r1
 80042f6:	ed5f aa5b 	vldr	s21, [pc, #-364]	; 800418c <acc_translation_a121_translate+0xc80>
 80042fa:	eef8 ca67 	vcvt.f32.u32	s25, s15
 80042fe:	eef7 9a08 	vmov.f32	s19, #120	; 0x3fc00000  1.5
 8004302:	eeb2 da02 	vmov.f32	s26, #34	; 0x41100000  9.0
 8004306:	edd9 7a4f 	vldr	s15, [r9, #316]	; 0x13c
 800430a:	ed1f 0a5f 	vldr	s0, [pc, #-380]	; 8004190 <acc_translation_a121_translate+0xc84>
 800430e:	eeb8 aa67 	vcvt.f32.u32	s20, s15
 8004312:	ee80 0a0a 	vdiv.f32	s0, s0, s20
 8004316:	f004 fb95 	bl	8008a44 <roundf>
 800431a:	f89b 3050 	ldrb.w	r3, [fp, #80]	; 0x50
 800431e:	2b02      	cmp	r3, #2
 8004320:	ee2a aa00 	vmul.f32	s20, s20, s0
 8004324:	f200 8113 	bhi.w	800454e <acc_translation_a121_translate+0x1042>
 8004328:	4ac7      	ldr	r2, [pc, #796]	; (8004648 <acc_translation_a121_translate+0x113c>)
 800432a:	f89b 104e 	ldrb.w	r1, [fp, #78]	; 0x4e
 800432e:	f8dd 8008 	ldr.w	r8, [sp, #8]
 8004332:	eb02 0083 	add.w	r0, r2, r3, lsl #2
 8004336:	edd0 da00 	vldr	s27, [r0]
 800433a:	ed90 ca03 	vldr	s24, [r0, #12]
 800433e:	2900      	cmp	r1, #0
 8004340:	f000 8116 	beq.w	8004570 <acc_translation_a121_translate+0x1064>
 8004344:	2600      	movs	r6, #0
 8004346:	eddf 8ac1 	vldr	s17, [pc, #772]	; 800464c <acc_translation_a121_translate+0x1140>
 800434a:	4fc1      	ldr	r7, [pc, #772]	; (8004650 <acc_translation_a121_translate+0x1144>)
 800434c:	eddf bac1 	vldr	s23, [pc, #772]	; 8004654 <acc_translation_a121_translate+0x1148>
 8004350:	ed9f bac1 	vldr	s22, [pc, #772]	; 8004658 <acc_translation_a121_translate+0x114c>
 8004354:	4635      	mov	r5, r6
 8004356:	e03a      	b.n	80043ce <acc_translation_a121_translate+0xec2>
 8004358:	f832 3013 	ldrh.w	r3, [r2, r3, lsl #1]
 800435c:	ee07 3a90 	vmov	s15, r3
 8004360:	eef8 7a67 	vcvt.f32.u32	s15, s15
 8004364:	ee8a 7a27 	vdiv.f32	s14, s20, s15
 8004368:	445d      	add	r5, fp
 800436a:	1ca3      	adds	r3, r4, #2
 800436c:	f8b5 c008 	ldrh.w	ip, [r5, #8]
 8004370:	88a8      	ldrh	r0, [r5, #4]
 8004372:	f89b 104e 	ldrb.w	r1, [fp, #78]	; 0x4e
 8004376:	005a      	lsls	r2, r3, #1
 8004378:	b293      	uxth	r3, r2
 800437a:	fb0c 3303 	mla	r3, ip, r3, r3
 800437e:	3302      	adds	r3, #2
 8004380:	eb04 0444 	add.w	r4, r4, r4, lsl #1
 8004384:	005b      	lsls	r3, r3, #1
 8004386:	00a4      	lsls	r4, r4, #2
 8004388:	b29b      	uxth	r3, r3
 800438a:	ee87 6a0b 	vdiv.f32	s12, s14, s22
 800438e:	3418      	adds	r4, #24
 8004390:	b2a4      	uxth	r4, r4
 8004392:	3601      	adds	r6, #1
 8004394:	b2f5      	uxtb	r5, r6
 8004396:	42a9      	cmp	r1, r5
 8004398:	ee07 3a90 	vmov	s15, r3
 800439c:	ee07 4a10 	vmov	s14, r4
 80043a0:	eef8 7a67 	vcvt.f32.u32	s15, s15
 80043a4:	eeb8 7a47 	vcvt.f32.u32	s14, s14
 80043a8:	eec7 6a86 	vdiv.f32	s13, s15, s12
 80043ac:	eec7 5a06 	vdiv.f32	s11, s14, s12
 80043b0:	ee07 0a90 	vmov	s15, r0
 80043b4:	eef8 7a67 	vcvt.f32.u32	s15, s15
 80043b8:	ee66 7aa7 	vmul.f32	s15, s13, s15
 80043bc:	ee77 7aa5 	vadd.f32	s15, s15, s11
 80043c0:	ee77 7aaa 	vadd.f32	s15, s15, s21
 80043c4:	ee77 7aa9 	vadd.f32	s15, s15, s19
 80043c8:	ee78 8aa7 	vadd.f32	s17, s17, s15
 80043cc:	d930      	bls.n	8004430 <acc_translation_a121_translate+0xf24>
 80043ce:	eb0b 1305 	add.w	r3, fp, r5, lsl #4
 80043d2:	a91a      	add	r1, sp, #104	; 0x68
 80043d4:	7bd8      	ldrb	r0, [r3, #15]
 80043d6:	f7fc fd9d 	bl	8000f14 <acc_translation_a121_profile_to_pulse_params>
 80043da:	012d      	lsls	r5, r5, #4
 80043dc:	499f      	ldr	r1, [pc, #636]	; (800465c <acc_translation_a121_translate+0x1150>)
 80043de:	463a      	mov	r2, r7
 80043e0:	4604      	mov	r4, r0
 80043e2:	b918      	cbnz	r0, 80043ec <acc_translation_a121_translate+0xee0>
 80043e4:	f8d9 303c 	ldr.w	r3, [r9, #60]	; 0x3c
 80043e8:	4798      	blx	r3
 80043ea:	46a0      	mov	r8, r4
 80043ec:	eb0b 0305 	add.w	r3, fp, r5
 80043f0:	4a9b      	ldr	r2, [pc, #620]	; (8004660 <acc_translation_a121_translate+0x1154>)
 80043f2:	7b9b      	ldrb	r3, [r3, #14]
 80043f4:	f8bd 4086 	ldrh.w	r4, [sp, #134]	; 0x86
 80043f8:	2b05      	cmp	r3, #5
 80043fa:	d9ad      	bls.n	8004358 <acc_translation_a121_translate+0xe4c>
 80043fc:	f8d9 303c 	ldr.w	r3, [r9, #60]	; 0x3c
 8004400:	4a98      	ldr	r2, [pc, #608]	; (8004664 <acc_translation_a121_translate+0x1158>)
 8004402:	4996      	ldr	r1, [pc, #600]	; (800465c <acc_translation_a121_translate+0x1150>)
 8004404:	2000      	movs	r0, #0
 8004406:	4798      	blx	r3
 8004408:	f04f 0800 	mov.w	r8, #0
 800440c:	eef0 7a6b 	vmov.f32	s15, s23
 8004410:	e7a8      	b.n	8004364 <acc_translation_a121_translate+0xe58>
 8004412:	46d9      	mov	r9, fp
 8004414:	4a94      	ldr	r2, [pc, #592]	; (8004668 <acc_translation_a121_translate+0x115c>)
 8004416:	f8d9 303c 	ldr.w	r3, [r9, #60]	; 0x3c
 800441a:	4990      	ldr	r1, [pc, #576]	; (800465c <acc_translation_a121_translate+0x1150>)
 800441c:	f8dd 800c 	ldr.w	r8, [sp, #12]
 8004420:	f8dd a018 	ldr.w	sl, [sp, #24]
 8004424:	f8dd b004 	ldr.w	fp, [sp, #4]
 8004428:	2000      	movs	r0, #0
 800442a:	4798      	blx	r3
 800442c:	f7ff badd 	b.w	80039ea <acc_translation_a121_translate+0x4de>
 8004430:	f1b8 0f00 	cmp.w	r8, #0
 8004434:	f040 809e 	bne.w	8004574 <acc_translation_a121_translate+0x1068>
 8004438:	ed9b 6a10 	vldr	s12, [fp, #64]	; 0x40
 800443c:	f8cd 8008 	str.w	r8, [sp, #8]
 8004440:	f7ff b9ee 	b.w	8003820 <acc_translation_a121_translate+0x314>
 8004444:	42a1      	cmp	r1, r4
 8004446:	4623      	mov	r3, r4
 8004448:	f000 80cf 	beq.w	80045ea <acc_translation_a121_translate+0x10de>
 800444c:	2300      	movs	r3, #0
 800444e:	9314      	str	r3, [sp, #80]	; 0x50
 8004450:	930d      	str	r3, [sp, #52]	; 0x34
 8004452:	9311      	str	r3, [sp, #68]	; 0x44
 8004454:	e413      	b.n	8003c7e <acc_translation_a121_translate+0x772>
 8004456:	2300      	movs	r3, #0
 8004458:	9317      	str	r3, [sp, #92]	; 0x5c
 800445a:	9313      	str	r3, [sp, #76]	; 0x4c
 800445c:	9319      	str	r3, [sp, #100]	; 0x64
 800445e:	e419      	b.n	8003c94 <acc_translation_a121_translate+0x788>
 8004460:	9a38      	ldr	r2, [sp, #224]	; 0xe0
 8004462:	2300      	movs	r3, #0
 8004464:	7113      	strb	r3, [r2, #4]
 8004466:	f8aa 31ac 	strh.w	r3, [sl, #428]	; 0x1ac
 800446a:	f7ff b8dd 	b.w	8003628 <acc_translation_a121_translate+0x11c>
 800446e:	9b38      	ldr	r3, [sp, #224]	; 0xe0
 8004470:	461a      	mov	r2, r3
 8004472:	9b02      	ldr	r3, [sp, #8]
 8004474:	7113      	strb	r3, [r2, #4]
 8004476:	f8aa 31ac 	strh.w	r3, [sl, #428]	; 0x1ac
 800447a:	f7ff b8e8 	b.w	800364e <acc_translation_a121_translate+0x142>
 800447e:	2301      	movs	r3, #1
 8004480:	f8aa 3026 	strh.w	r3, [sl, #38]	; 0x26
 8004484:	f8aa 3028 	strh.w	r3, [sl, #40]	; 0x28
 8004488:	f89b 3050 	ldrb.w	r3, [fp, #80]	; 0x50
 800448c:	2b01      	cmp	r3, #1
 800448e:	d024      	beq.n	80044da <acc_translation_a121_translate+0xfce>
 8004490:	2b02      	cmp	r3, #2
 8004492:	d01b      	beq.n	80044cc <acc_translation_a121_translate+0xfc0>
 8004494:	b333      	cbz	r3, 80044e4 <acc_translation_a121_translate+0xfd8>
 8004496:	f8d9 303c 	ldr.w	r3, [r9, #60]	; 0x3c
 800449a:	4a74      	ldr	r2, [pc, #464]	; (800466c <acc_translation_a121_translate+0x1160>)
 800449c:	f7ff b8d2 	b.w	8003644 <acc_translation_a121_translate+0x138>
 80044a0:	2300      	movs	r3, #0
 80044a2:	f8aa 3026 	strh.w	r3, [sl, #38]	; 0x26
 80044a6:	f8aa 3028 	strh.w	r3, [sl, #40]	; 0x28
 80044aa:	e7ed      	b.n	8004488 <acc_translation_a121_translate+0xf7c>
 80044ac:	2200      	movs	r2, #0
 80044ae:	f8aa 3026 	strh.w	r3, [sl, #38]	; 0x26
 80044b2:	f8aa 2028 	strh.w	r2, [sl, #40]	; 0x28
 80044b6:	e7e7      	b.n	8004488 <acc_translation_a121_translate+0xf7c>
 80044b8:	2b10      	cmp	r3, #16
 80044ba:	bf94      	ite	ls
 80044bc:	f1c3 031e 	rsbls	r3, r3, #30
 80044c0:	f1c3 0317 	rsbhi	r3, r3, #23
 80044c4:	2200      	movs	r2, #0
 80044c6:	803b      	strh	r3, [r7, #0]
 80044c8:	807a      	strh	r2, [r7, #2]
 80044ca:	e470      	b.n	8003dae <acc_translation_a121_translate+0x8a2>
 80044cc:	2300      	movs	r3, #0
 80044ce:	f8ca 3034 	str.w	r3, [sl, #52]	; 0x34
 80044d2:	2301      	movs	r3, #1
 80044d4:	9302      	str	r3, [sp, #8]
 80044d6:	f7ff b8ba 	b.w	800364e <acc_translation_a121_translate+0x142>
 80044da:	f8ca 3034 	str.w	r3, [sl, #52]	; 0x34
 80044de:	9302      	str	r3, [sp, #8]
 80044e0:	f7ff b8b5 	b.w	800364e <acc_translation_a121_translate+0x142>
 80044e4:	f04f 1301 	mov.w	r3, #65537	; 0x10001
 80044e8:	f8ca 3034 	str.w	r3, [sl, #52]	; 0x34
 80044ec:	2301      	movs	r3, #1
 80044ee:	9302      	str	r3, [sp, #8]
 80044f0:	f7ff b8ad 	b.w	800364e <acc_translation_a121_translate+0x142>
 80044f4:	ed9f 9a55 	vldr	s18, [pc, #340]	; 800464c <acc_translation_a121_translate+0x1140>
 80044f8:	f7ff b83e 	b.w	8003578 <acc_translation_a121_translate+0x6c>
 80044fc:	f8db 303c 	ldr.w	r3, [fp, #60]	; 0x3c
 8004500:	4a58      	ldr	r2, [pc, #352]	; (8004664 <acc_translation_a121_translate+0x1158>)
 8004502:	4956      	ldr	r1, [pc, #344]	; (800465c <acc_translation_a121_translate+0x1150>)
 8004504:	2000      	movs	r0, #0
 8004506:	4798      	blx	r3
 8004508:	2300      	movs	r3, #0
 800450a:	f04f 0880 	mov.w	r8, #128	; 0x80
 800450e:	930a      	str	r3, [sp, #40]	; 0x28
 8004510:	f7ff bbd2 	b.w	8003cb8 <acc_translation_a121_translate+0x7ac>
 8004514:	2b0f      	cmp	r3, #15
 8004516:	f240 8082 	bls.w	800461e <acc_translation_a121_translate+0x1112>
 800451a:	3b0f      	subs	r3, #15
 800451c:	220f      	movs	r2, #15
 800451e:	f8a7 3052 	strh.w	r3, [r7, #82]	; 0x52
 8004522:	2300      	movs	r3, #0
 8004524:	f8a7 2050 	strh.w	r2, [r7, #80]	; 0x50
 8004528:	f8a7 3054 	strh.w	r3, [r7, #84]	; 0x54
 800452c:	e401      	b.n	8003d32 <acc_translation_a121_translate+0x826>
 800452e:	9b11      	ldr	r3, [sp, #68]	; 0x44
 8004530:	f8a7 3046 	strh.w	r3, [r7, #70]	; 0x46
 8004534:	e425      	b.n	8003d82 <acc_translation_a121_translate+0x876>
 8004536:	9b11      	ldr	r3, [sp, #68]	; 0x44
 8004538:	f8a7 3046 	strh.w	r3, [r7, #70]	; 0x46
 800453c:	e425      	b.n	8003d8a <acc_translation_a121_translate+0x87e>
 800453e:	9b0d      	ldr	r3, [sp, #52]	; 0x34
 8004540:	f8a7 3042 	strh.w	r3, [r7, #66]	; 0x42
 8004544:	e5f1      	b.n	800412a <acc_translation_a121_translate+0xc1e>
 8004546:	9b13      	ldr	r3, [sp, #76]	; 0x4c
 8004548:	f8a7 3042 	strh.w	r3, [r7, #66]	; 0x42
 800454c:	e409      	b.n	8003d62 <acc_translation_a121_translate+0x856>
 800454e:	f8d9 303c 	ldr.w	r3, [r9, #60]	; 0x3c
 8004552:	4a46      	ldr	r2, [pc, #280]	; (800466c <acc_translation_a121_translate+0x1160>)
 8004554:	4941      	ldr	r1, [pc, #260]	; (800465c <acc_translation_a121_translate+0x1150>)
 8004556:	2000      	movs	r0, #0
 8004558:	4798      	blx	r3
 800455a:	f89b 304e 	ldrb.w	r3, [fp, #78]	; 0x4e
 800455e:	2b00      	cmp	r3, #0
 8004560:	d040      	beq.n	80045e4 <acc_translation_a121_translate+0x10d8>
 8004562:	ed9f ca3a 	vldr	s24, [pc, #232]	; 800464c <acc_translation_a121_translate+0x1140>
 8004566:	f04f 0800 	mov.w	r8, #0
 800456a:	eef0 da4c 	vmov.f32	s27, s24
 800456e:	e6e9      	b.n	8004344 <acc_translation_a121_translate+0xe38>
 8004570:	eddf 8a36 	vldr	s17, [pc, #216]	; 800464c <acc_translation_a121_translate+0x1140>
 8004574:	eddf 7a3e 	vldr	s15, [pc, #248]	; 8004670 <acc_translation_a121_translate+0x1164>
 8004578:	eddf 6a37 	vldr	s13, [pc, #220]	; 8004658 <acc_translation_a121_translate+0x114c>
 800457c:	eddf 5a3d 	vldr	s11, [pc, #244]	; 8004674 <acc_translation_a121_translate+0x1168>
 8004580:	ed9b 6a10 	vldr	s12, [fp, #64]	; 0x40
 8004584:	9b38      	ldr	r3, [sp, #224]	; 0xe0
 8004586:	ee8a 5a27 	vdiv.f32	s10, s20, s15
 800458a:	eef1 7a0c 	vmov.f32	s15, #28	; 0x40e00000  7.0
 800458e:	ee85 7a26 	vdiv.f32	s14, s10, s13
 8004592:	ee6c caa7 	vmul.f32	s25, s25, s15
 8004596:	ee3c ca2d 	vadd.f32	s24, s24, s27
 800459a:	eecc 7a87 	vdiv.f32	s15, s25, s14
 800459e:	eeb0 7a00 	vmov.f32	s14, #0	; 0x40000000  2.0
 80045a2:	ee37 da8d 	vadd.f32	s26, s15, s26
 80045a6:	eef0 7a47 	vmov.f32	s15, s14
 80045aa:	ee7d 8a28 	vadd.f32	s17, s26, s17
 80045ae:	ee78 8a8c 	vadd.f32	s17, s17, s24
 80045b2:	ee48 7aa5 	vmla.f32	s15, s17, s11
 80045b6:	ee77 8aa8 	vadd.f32	s17, s15, s17
 80045ba:	eec6 7aa8 	vdiv.f32	s15, s13, s17
 80045be:	eeb4 6ae7 	vcmpe.f32	s12, s15
 80045c2:	eef1 fa10 	vmrs	APSR_nzcv, fpscr
 80045c6:	edc3 7a00 	vstr	s15, [r3]
 80045ca:	f77f a929 	ble.w	8003820 <acc_translation_a121_translate+0x314>
 80045ce:	eefd 7ae7 	vcvt.s32.f32	s15, s15
 80045d2:	f8d9 403c 	ldr.w	r4, [r9, #60]	; 0x3c
 80045d6:	4a28      	ldr	r2, [pc, #160]	; (8004678 <acc_translation_a121_translate+0x116c>)
 80045d8:	4920      	ldr	r1, [pc, #128]	; (800465c <acc_translation_a121_translate+0x1150>)
 80045da:	ee17 3a90 	vmov	r3, s15
 80045de:	2000      	movs	r0, #0
 80045e0:	47a0      	blx	r4
 80045e2:	2300      	movs	r3, #0
 80045e4:	9302      	str	r3, [sp, #8]
 80045e6:	f7ff ba34 	b.w	8003a52 <acc_translation_a121_translate+0x546>
 80045ea:	4290      	cmp	r0, r2
 80045ec:	bf0c      	ite	eq
 80045ee:	2301      	moveq	r3, #1
 80045f0:	2300      	movne	r3, #0
 80045f2:	930d      	str	r3, [sp, #52]	; 0x34
 80045f4:	f04f 0300 	mov.w	r3, #0
 80045f8:	f040 80a8 	bne.w	800474c <acc_translation_a121_translate+0x1240>
 80045fc:	9317      	str	r3, [sp, #92]	; 0x5c
 80045fe:	9314      	str	r3, [sp, #80]	; 0x50
 8004600:	9311      	str	r3, [sp, #68]	; 0x44
 8004602:	9313      	str	r3, [sp, #76]	; 0x4c
 8004604:	9319      	str	r3, [sp, #100]	; 0x64
 8004606:	f7ff bb45 	b.w	8003c94 <acc_translation_a121_translate+0x788>
 800460a:	9b03      	ldr	r3, [sp, #12]
 800460c:	f7ff bbd7 	b.w	8003dbe <acc_translation_a121_translate+0x8b2>
 8004610:	eef0 aa69 	vmov.f32	s21, s19
 8004614:	eeb0 da69 	vmov.f32	s26, s19
 8004618:	eef0 ca69 	vmov.f32	s25, s19
 800461c:	e673      	b.n	8004306 <acc_translation_a121_translate+0xdfa>
 800461e:	2200      	movs	r2, #0
 8004620:	f8a7 3050 	strh.w	r3, [r7, #80]	; 0x50
 8004624:	f8a7 2052 	strh.w	r2, [r7, #82]	; 0x52
 8004628:	f8a7 2054 	strh.w	r2, [r7, #84]	; 0x54
 800462c:	f7ff bb81 	b.w	8003d32 <acc_translation_a121_translate+0x826>
 8004630:	f89b 104f 	ldrb.w	r1, [fp, #79]	; 0x4f
 8004634:	f89b 2050 	ldrb.w	r2, [fp, #80]	; 0x50
 8004638:	ed9f 9a04 	vldr	s18, [pc, #16]	; 800464c <acc_translation_a121_translate+0x1140>
 800463c:	4291      	cmp	r1, r2
 800463e:	f47e afa9 	bne.w	8003594 <acc_translation_a121_translate+0x88>
 8004642:	f7ff ba3f 	b.w	8003ac4 <acc_translation_a121_translate+0x5b8>
 8004646:	bf00      	nop
 8004648:	0800bfd0 	.word	0x0800bfd0
 800464c:	00000000 	.word	0x00000000
 8004650:	0800fe9c 	.word	0x0800fe9c
 8004654:	43000000 	.word	0x43000000
 8004658:	49742400 	.word	0x49742400
 800465c:	0800fd14 	.word	0x0800fd14
 8004660:	0800bfb8 	.word	0x0800bfb8
 8004664:	0800ff48 	.word	0x0800ff48
 8004668:	0800ffa4 	.word	0x0800ffa4
 800466c:	0800fe18 	.word	0x0800fe18
 8004670:	43200000 	.word	0x43200000
 8004674:	3c23d70a 	.word	0x3c23d70a
 8004678:	0800fff0 	.word	0x0800fff0
 800467c:	990a      	ldr	r1, [sp, #40]	; 0x28
 800467e:	f8aa 100a 	strh.w	r1, [sl, #10]
 8004682:	2800      	cmp	r0, #0
 8004684:	f43f ac8a 	beq.w	8003f9c <acc_translation_a121_translate+0xa90>
 8004688:	2b00      	cmp	r3, #0
 800468a:	d058      	beq.n	800473e <acc_translation_a121_translate+0x1232>
 800468c:	990b      	ldr	r1, [sp, #44]	; 0x2c
 800468e:	9c0a      	ldr	r4, [sp, #40]	; 0x28
 8004690:	fb02 1213 	mls	r2, r2, r3, r1
 8004694:	920b      	str	r2, [sp, #44]	; 0x2c
 8004696:	e5e3      	b.n	8004260 <acc_translation_a121_translate+0xd54>
 8004698:	2a05      	cmp	r2, #5
 800469a:	d00b      	beq.n	80046b4 <acc_translation_a121_translate+0x11a8>
 800469c:	1e51      	subs	r1, r2, #1
 800469e:	b289      	uxth	r1, r1
 80046a0:	9c0a      	ldr	r4, [sp, #40]	; 0x28
 80046a2:	fb0c fc01 	mul.w	ip, ip, r1
 80046a6:	eb0e 4c1c 	add.w	ip, lr, ip, lsr #16
 80046aa:	eba4 040c 	sub.w	r4, r4, ip
 80046ae:	42a3      	cmp	r3, r4
 80046b0:	bfc8      	it	gt
 80046b2:	460a      	movgt	r2, r1
 80046b4:	9b1c      	ldr	r3, [sp, #112]	; 0x70
 80046b6:	930b      	str	r3, [sp, #44]	; 0x2c
 80046b8:	f5b3 7f16 	cmp.w	r3, #600	; 0x258
 80046bc:	f8aa 2002 	strh.w	r2, [sl, #2]
 80046c0:	f4bf ad7c 	bcs.w	80041bc <acc_translation_a121_translate+0xcb0>
 80046c4:	2300      	movs	r3, #0
 80046c6:	f8aa 3008 	strh.w	r3, [sl, #8]
 80046ca:	f8aa 300e 	strh.w	r3, [sl, #14]
 80046ce:	2800      	cmp	r0, #0
 80046d0:	f43f ac61 	beq.w	8003f96 <acc_translation_a121_translate+0xa8a>
 80046d4:	9a0a      	ldr	r2, [sp, #40]	; 0x28
 80046d6:	2a00      	cmp	r2, #0
 80046d8:	d02d      	beq.n	8004736 <acc_translation_a121_translate+0x122a>
 80046da:	9a03      	ldr	r2, [sp, #12]
 80046dc:	f8d2 c06c 	ldr.w	ip, [r2, #108]	; 0x6c
 80046e0:	e589      	b.n	80041f6 <acc_translation_a121_translate+0xcea>
 80046e2:	980b      	ldr	r0, [sp, #44]	; 0x2c
 80046e4:	e41a      	b.n	8003f1c <acc_translation_a121_translate+0xa10>
 80046e6:	9b02      	ldr	r3, [sp, #8]
 80046e8:	e9cd 3304 	strd	r3, r3, [sp, #16]
 80046ec:	f7ff b841 	b.w	8003772 <acc_translation_a121_translate+0x266>
 80046f0:	8bfa      	ldrh	r2, [r7, #30]
 80046f2:	fb08 f202 	mul.w	r2, r8, r2
 80046f6:	eb0c 4212 	add.w	r2, ip, r2, lsr #16
 80046fa:	920b      	str	r2, [sp, #44]	; 0x2c
 80046fc:	9803      	ldr	r0, [sp, #12]
 80046fe:	8b7c      	ldrh	r4, [r7, #26]
 8004700:	6e82      	ldr	r2, [r0, #104]	; 0x68
 8004702:	6e41      	ldr	r1, [r0, #100]	; 0x64
 8004704:	fb02 f404 	mul.w	r4, r2, r4
 8004708:	6e02      	ldr	r2, [r0, #96]	; 0x60
 800470a:	eb01 4414 	add.w	r4, r1, r4, lsr #16
 800470e:	1aa4      	subs	r4, r4, r2
 8004710:	f53f ac1b 	bmi.w	8003f4a <acc_translation_a121_translate+0xa3e>
 8004714:	9a03      	ldr	r2, [sp, #12]
 8004716:	8af8      	ldrh	r0, [r7, #22]
 8004718:	6f91      	ldr	r1, [r2, #120]	; 0x78
 800471a:	6f52      	ldr	r2, [r2, #116]	; 0x74
 800471c:	fb01 f100 	mul.w	r1, r1, r0
 8004720:	eb02 4111 	add.w	r1, r2, r1, lsr #16
 8004724:	9a0b      	ldr	r2, [sp, #44]	; 0x2c
 8004726:	440a      	add	r2, r1
 8004728:	920b      	str	r2, [sp, #44]	; 0x2c
 800472a:	e599      	b.n	8004260 <acc_translation_a121_translate+0xd54>
 800472c:	9b0a      	ldr	r3, [sp, #40]	; 0x28
 800472e:	f8aa 3008 	strh.w	r3, [sl, #8]
 8004732:	f8aa 300e 	strh.w	r3, [sl, #14]
 8004736:	2300      	movs	r3, #0
 8004738:	f8aa 300a 	strh.w	r3, [sl, #10]
 800473c:	930a      	str	r3, [sp, #40]	; 0x28
 800473e:	2300      	movs	r3, #0
 8004740:	461c      	mov	r4, r3
 8004742:	e58d      	b.n	8004260 <acc_translation_a121_translate+0xd54>
 8004744:	2301      	movs	r3, #1
 8004746:	9302      	str	r3, [sp, #8]
 8004748:	f7fe bf64 	b.w	8003614 <acc_translation_a121_translate+0x108>
 800474c:	9314      	str	r3, [sp, #80]	; 0x50
 800474e:	9311      	str	r3, [sp, #68]	; 0x44
 8004750:	f7ff ba95 	b.w	8003c7e <acc_translation_a121_translate+0x772>

08004754 <acc_radar_engine_a121_get_metadata>:
 8004754:	b570      	push	{r4, r5, r6, lr}
 8004756:	b0fe      	sub	sp, #504	; 0x1f8
 8004758:	4604      	mov	r4, r0
 800475a:	f44f 72e2 	mov.w	r2, #452	; 0x1c4
 800475e:	460d      	mov	r5, r1
 8004760:	a80d      	add	r0, sp, #52	; 0x34
 8004762:	2100      	movs	r1, #0
 8004764:	ae03      	add	r6, sp, #12
 8004766:	f005 fb0c 	bl	8009d82 <memset>
 800476a:	aa0d      	add	r2, sp, #52	; 0x34
 800476c:	4620      	mov	r0, r4
 800476e:	ab05      	add	r3, sp, #20
 8004770:	9600      	str	r6, [sp, #0]
 8004772:	2100      	movs	r1, #0
 8004774:	f7fe feca 	bl	800350c <acc_translation_a121_translate>
 8004778:	b908      	cbnz	r0, 800477e <acc_radar_engine_a121_get_metadata+0x2a>
 800477a:	b07e      	add	sp, #504	; 0x1f8
 800477c:	bd70      	pop	{r4, r5, r6, pc}
 800477e:	f894 204b 	ldrb.w	r2, [r4, #75]	; 0x4b
 8004782:	462b      	mov	r3, r5
 8004784:	4631      	mov	r1, r6
 8004786:	a805      	add	r0, sp, #20
 8004788:	f7fc fd2a 	bl	80011e0 <acc_radar_engine_121_populate_metadata>
 800478c:	e7f5      	b.n	800477a <acc_radar_engine_a121_get_metadata+0x26>
 800478e:	bf00      	nop

08004790 <acc_radar_engine_a121_reconfigure>:
 8004790:	e92d 4ff0 	stmdb	sp!, {r4, r5, r6, r7, r8, r9, sl, fp, lr}
 8004794:	f5ad 7d0f 	sub.w	sp, sp, #572	; 0x23c
 8004798:	4607      	mov	r7, r0
 800479a:	9c99      	ldr	r4, [sp, #612]	; 0x264
 800479c:	460d      	mov	r5, r1
 800479e:	4616      	mov	r6, r2
 80047a0:	2100      	movs	r1, #0
 80047a2:	f44f 72e2 	mov.w	r2, #452	; 0x1c4
 80047a6:	a81d      	add	r0, sp, #116	; 0x74
 80047a8:	469a      	mov	sl, r3
 80047aa:	f005 faea 	bl	8009d82 <memset>
 80047ae:	a80f      	add	r0, sp, #60	; 0x3c
 80047b0:	2238      	movs	r2, #56	; 0x38
 80047b2:	2100      	movs	r1, #0
 80047b4:	f005 fae5 	bl	8009d82 <memset>
 80047b8:	f894 81c5 	ldrb.w	r8, [r4, #453]	; 0x1c5
 80047bc:	f1b8 0f00 	cmp.w	r8, #0
 80047c0:	d012      	beq.n	80047e8 <acc_radar_engine_a121_reconfigure+0x58>
 80047c2:	4b6d      	ldr	r3, [pc, #436]	; (8004978 <acc_radar_engine_a121_reconfigure+0x1e8>)
 80047c4:	4a6d      	ldr	r2, [pc, #436]	; (800497c <acc_radar_engine_a121_reconfigure+0x1ec>)
 80047c6:	6bdb      	ldr	r3, [r3, #60]	; 0x3c
 80047c8:	496d      	ldr	r1, [pc, #436]	; (8004980 <acc_radar_engine_a121_reconfigure+0x1f0>)
 80047ca:	2000      	movs	r0, #0
 80047cc:	4798      	blx	r3
 80047ce:	a91d      	add	r1, sp, #116	; 0x74
 80047d0:	4620      	mov	r0, r4
 80047d2:	ab04      	add	r3, sp, #16
 80047d4:	aa03      	add	r2, sp, #12
 80047d6:	f7fb ff29 	bl	800062c <get_parameter_patch_range.constprop.0>
 80047da:	f04f 0900 	mov.w	r9, #0
 80047de:	4648      	mov	r0, r9
 80047e0:	f50d 7d0f 	add.w	sp, sp, #572	; 0x23c
 80047e4:	e8bd 8ff0 	ldmia.w	sp!, {r4, r5, r6, r7, r8, r9, sl, fp, pc}
 80047e8:	f10d 0914 	add.w	r9, sp, #20
 80047ec:	ab07      	add	r3, sp, #28
 80047ee:	f8cd 9000 	str.w	r9, [sp]
 80047f2:	aa1d      	add	r2, sp, #116	; 0x74
 80047f4:	4631      	mov	r1, r6
 80047f6:	4628      	mov	r0, r5
 80047f8:	f7fe fe88 	bl	800350c <acc_translation_a121_translate>
 80047fc:	2800      	cmp	r0, #0
 80047fe:	d0e6      	beq.n	80047ce <acc_radar_engine_a121_reconfigure+0x3e>
 8004800:	4649      	mov	r1, r9
 8004802:	f895 204b 	ldrb.w	r2, [r5, #75]	; 0x4b
 8004806:	a807      	add	r0, sp, #28
 8004808:	ab0f      	add	r3, sp, #60	; 0x3c
 800480a:	f7fc fce9 	bl	80011e0 <acc_radar_engine_121_populate_metadata>
 800480e:	4681      	mov	r9, r0
 8004810:	2800      	cmp	r0, #0
 8004812:	d0dc      	beq.n	80047ce <acc_radar_engine_a121_reconfigure+0x3e>
 8004814:	999a      	ldr	r1, [sp, #616]	; 0x268
 8004816:	f8bd 2048 	ldrh.w	r2, [sp, #72]	; 0x48
 800481a:	800a      	strh	r2, [r1, #0]
 800481c:	9a9b      	ldr	r2, [sp, #620]	; 0x26c
 800481e:	f8bd 304c 	ldrh.w	r3, [sp, #76]	; 0x4c
 8004822:	8013      	strh	r3, [r2, #0]
 8004824:	a91d      	add	r1, sp, #116	; 0x74
 8004826:	ab04      	add	r3, sp, #16
 8004828:	aa03      	add	r2, sp, #12
 800482a:	4620      	mov	r0, r4
 800482c:	f7fb fefe 	bl	800062c <get_parameter_patch_range.constprop.0>
 8004830:	f8bd 2010 	ldrh.w	r2, [sp, #16]
 8004834:	f8bd 300c 	ldrh.w	r3, [sp, #12]
 8004838:	429a      	cmp	r2, r3
 800483a:	d3d0      	bcc.n	80047de <acc_radar_engine_a121_reconfigure+0x4e>
 800483c:	aa04      	add	r2, sp, #16
 800483e:	2137      	movs	r1, #55	; 0x37
 8004840:	4638      	mov	r0, r7
 8004842:	f8ad 8010 	strh.w	r8, [sp, #16]
 8004846:	f7fc fe17 	bl	8001478 <acc_sensor_reg_read>
 800484a:	f8bd 3010 	ldrh.w	r3, [sp, #16]
 800484e:	f013 08c0 	ands.w	r8, r3, #192	; 0xc0
 8004852:	d040      	beq.n	80048d6 <acc_radar_engine_a121_reconfigure+0x146>
 8004854:	ab04      	add	r3, sp, #16
 8004856:	aa03      	add	r2, sp, #12
 8004858:	a91d      	add	r1, sp, #116	; 0x74
 800485a:	4620      	mov	r0, r4
 800485c:	f7fb fee6 	bl	800062c <get_parameter_patch_range.constprop.0>
 8004860:	f8bd 800c 	ldrh.w	r8, [sp, #12]
 8004864:	f8bd b010 	ldrh.w	fp, [sp, #16]
 8004868:	45d8      	cmp	r8, fp
 800486a:	d94e      	bls.n	800490a <acc_radar_engine_a121_reconfigure+0x17a>
 800486c:	4638      	mov	r0, r7
 800486e:	2201      	movs	r2, #1
 8004870:	2180      	movs	r1, #128	; 0x80
 8004872:	f7fc fdf1 	bl	8001458 <acc_sensor_reg_write>
 8004876:	a91d      	add	r1, sp, #116	; 0x74
 8004878:	f44f 72e2 	mov.w	r2, #452	; 0x1c4
 800487c:	4620      	mov	r0, r4
 800487e:	f005 ffd5 	bl	800a82c <memcpy>
 8004882:	f8b5 3048 	ldrh.w	r3, [r5, #72]	; 0x48
 8004886:	b123      	cbz	r3, 8004892 <acc_radar_engine_a121_reconfigure+0x102>
 8004888:	f895 304e 	ldrb.w	r3, [r5, #78]	; 0x4e
 800488c:	3b00      	subs	r3, #0
 800488e:	bf18      	it	ne
 8004890:	2301      	movne	r3, #1
 8004892:	2201      	movs	r2, #1
 8004894:	46b4      	mov	ip, r6
 8004896:	f895 104b 	ldrb.w	r1, [r5, #75]	; 0x4b
 800489a:	f884 21c6 	strb.w	r2, [r4, #454]	; 0x1c6
 800489e:	f83c 2b24 	ldrh.w	r2, [ip], #36
 80048a2:	f8a4 21c8 	strh.w	r2, [r4, #456]	; 0x1c8
 80048a6:	f884 11c5 	strb.w	r1, [r4, #453]	; 0x1c5
 80048aa:	f884 31c4 	strb.w	r3, [r4, #452]	; 0x1c4
 80048ae:	f504 77e5 	add.w	r7, r4, #458	; 0x1ca
 80048b2:	f106 0e54 	add.w	lr, r6, #84	; 0x54
 80048b6:	4665      	mov	r5, ip
 80048b8:	cd0f      	ldmia	r5!, {r0, r1, r2, r3}
 80048ba:	4575      	cmp	r5, lr
 80048bc:	6038      	str	r0, [r7, #0]
 80048be:	6079      	str	r1, [r7, #4]
 80048c0:	60ba      	str	r2, [r7, #8]
 80048c2:	60fb      	str	r3, [r7, #12]
 80048c4:	46ac      	mov	ip, r5
 80048c6:	f107 0710 	add.w	r7, r7, #16
 80048ca:	d1f4      	bne.n	80048b6 <acc_radar_engine_a121_reconfigure+0x126>
 80048cc:	f8b6 3054 	ldrh.w	r3, [r6, #84]	; 0x54
 80048d0:	f8a4 31fa 	strh.w	r3, [r4, #506]	; 0x1fa
 80048d4:	e783      	b.n	80047de <acc_radar_engine_a121_reconfigure+0x4e>
 80048d6:	aa04      	add	r2, sp, #16
 80048d8:	2131      	movs	r1, #49	; 0x31
 80048da:	4638      	mov	r0, r7
 80048dc:	f8ad 8010 	strh.w	r8, [sp, #16]
 80048e0:	f7fc fdca 	bl	8001478 <acc_sensor_reg_read>
 80048e4:	f8bd 2010 	ldrh.w	r2, [sp, #16]
 80048e8:	f64a 43c0 	movw	r3, #44224	; 0xacc0
 80048ec:	429a      	cmp	r2, r3
 80048ee:	d0b1      	beq.n	8004854 <acc_radar_engine_a121_reconfigure+0xc4>
 80048f0:	4b21      	ldr	r3, [pc, #132]	; (8004978 <acc_radar_engine_a121_reconfigure+0x1e8>)
 80048f2:	f893 2028 	ldrb.w	r2, [r3, #40]	; 0x28
 80048f6:	2a00      	cmp	r2, #0
 80048f8:	d03a      	beq.n	8004970 <acc_radar_engine_a121_reconfigure+0x1e0>
 80048fa:	6bdc      	ldr	r4, [r3, #60]	; 0x3c
 80048fc:	4a21      	ldr	r2, [pc, #132]	; (8004984 <acc_radar_engine_a121_reconfigure+0x1f4>)
 80048fe:	4922      	ldr	r1, [pc, #136]	; (8004988 <acc_radar_engine_a121_reconfigure+0x1f8>)
 8004900:	463b      	mov	r3, r7
 8004902:	2001      	movs	r0, #1
 8004904:	46c1      	mov	r9, r8
 8004906:	47a0      	blx	r4
 8004908:	e769      	b.n	80047de <acc_radar_engine_a121_reconfigure+0x4e>
 800490a:	f10b 0302 	add.w	r3, fp, #2
 800490e:	4651      	mov	r1, sl
 8004910:	9898      	ldr	r0, [sp, #608]	; 0x260
 8004912:	eba3 0a08 	sub.w	sl, r3, r8
 8004916:	aa02      	add	r2, sp, #8
 8004918:	ab03      	add	r3, sp, #12
 800491a:	f7fc fc4d 	bl	80011b8 <acc_sensor_a121_prepare_load_confmem>
 800491e:	9b03      	ldr	r3, [sp, #12]
 8004920:	fa1f fa8a 	uxth.w	sl, sl
 8004924:	4553      	cmp	r3, sl
 8004926:	bf28      	it	cs
 8004928:	4653      	movcs	r3, sl
 800492a:	9303      	str	r3, [sp, #12]
 800492c:	e005      	b.n	800493a <acc_radar_engine_a121_reconfigure+0x1aa>
 800492e:	9b03      	ldr	r3, [sp, #12]
 8004930:	4498      	add	r8, r3
 8004932:	fa1f f888 	uxth.w	r8, r8
 8004936:	45c3      	cmp	fp, r8
 8004938:	d312      	bcc.n	8004960 <acc_radar_engine_a121_reconfigure+0x1d0>
 800493a:	e9dd 1302 	ldrd	r1, r3, [sp, #8]
 800493e:	4642      	mov	r2, r8
 8004940:	9304      	str	r3, [sp, #16]
 8004942:	a81d      	add	r0, sp, #116	; 0x74
 8004944:	ab04      	add	r3, sp, #16
 8004946:	f7fc faad 	bl	8000ea4 <patch_program_parameters>
 800494a:	4682      	mov	sl, r0
 800494c:	2800      	cmp	r0, #0
 800494e:	d0ee      	beq.n	800492e <acc_radar_engine_a121_reconfigure+0x19e>
 8004950:	9b04      	ldr	r3, [sp, #16]
 8004952:	9a98      	ldr	r2, [sp, #608]	; 0x260
 8004954:	ea4f 0158 	mov.w	r1, r8, lsr #1
 8004958:	4638      	mov	r0, r7
 800495a:	f7fc ff39 	bl	80017d0 <acc_sensor_a121_load_confmem>
 800495e:	e7e6      	b.n	800492e <acc_radar_engine_a121_reconfigure+0x19e>
 8004960:	4638      	mov	r0, r7
 8004962:	2201      	movs	r2, #1
 8004964:	2180      	movs	r1, #128	; 0x80
 8004966:	f7fc fd77 	bl	8001458 <acc_sensor_reg_write>
 800496a:	f1ba 0f00 	cmp.w	sl, #0
 800496e:	d182      	bne.n	8004876 <acc_radar_engine_a121_reconfigure+0xe6>
 8004970:	f04f 0900 	mov.w	r9, #0
 8004974:	e733      	b.n	80047de <acc_radar_engine_a121_reconfigure+0x4e>
 8004976:	bf00      	nop
 8004978:	200000ac 	.word	0x200000ac
 800497c:	08010010 	.word	0x08010010
 8004980:	0800f860 	.word	0x0800f860
 8004984:	08010050 	.word	0x08010050
 8004988:	08010074 	.word	0x08010074

0800498c <acc_radar_engine_a121_prepare>:
 800498c:	e92d 4ff0 	stmdb	sp!, {r4, r5, r6, r7, r8, r9, sl, fp, lr}
 8004990:	f5ad 7d0f 	sub.w	sp, sp, #572	; 0x23c
 8004994:	460c      	mov	r4, r1
 8004996:	4615      	mov	r5, r2
 8004998:	2100      	movs	r1, #0
 800499a:	f44f 72e2 	mov.w	r2, #452	; 0x1c4
 800499e:	4606      	mov	r6, r0
 80049a0:	a81d      	add	r0, sp, #116	; 0x74
 80049a2:	461f      	mov	r7, r3
 80049a4:	f8dd 8264 	ldr.w	r8, [sp, #612]	; 0x264
 80049a8:	f10d 0914 	add.w	r9, sp, #20
 80049ac:	f005 f9e9 	bl	8009d82 <memset>
 80049b0:	2238      	movs	r2, #56	; 0x38
 80049b2:	2100      	movs	r1, #0
 80049b4:	a80f      	add	r0, sp, #60	; 0x3c
 80049b6:	f005 f9e4 	bl	8009d82 <memset>
 80049ba:	4629      	mov	r1, r5
 80049bc:	4620      	mov	r0, r4
 80049be:	aa1d      	add	r2, sp, #116	; 0x74
 80049c0:	ab07      	add	r3, sp, #28
 80049c2:	f8cd 9000 	str.w	r9, [sp]
 80049c6:	f7fe fda1 	bl	800350c <acc_translation_a121_translate>
 80049ca:	b930      	cbnz	r0, 80049da <acc_radar_engine_a121_prepare+0x4e>
 80049cc:	f04f 0900 	mov.w	r9, #0
 80049d0:	4648      	mov	r0, r9
 80049d2:	f50d 7d0f 	add.w	sp, sp, #572	; 0x23c
 80049d6:	e8bd 8ff0 	ldmia.w	sp!, {r4, r5, r6, r7, r8, r9, sl, fp, pc}
 80049da:	f894 204b 	ldrb.w	r2, [r4, #75]	; 0x4b
 80049de:	4649      	mov	r1, r9
 80049e0:	a807      	add	r0, sp, #28
 80049e2:	ab0f      	add	r3, sp, #60	; 0x3c
 80049e4:	f7fc fbfc 	bl	80011e0 <acc_radar_engine_121_populate_metadata>
 80049e8:	2800      	cmp	r0, #0
 80049ea:	d0ef      	beq.n	80049cc <acc_radar_engine_a121_prepare+0x40>
 80049ec:	999a      	ldr	r1, [sp, #616]	; 0x268
 80049ee:	f8bd 2048 	ldrh.w	r2, [sp, #72]	; 0x48
 80049f2:	800a      	strh	r2, [r1, #0]
 80049f4:	9a9b      	ldr	r2, [sp, #620]	; 0x26c
 80049f6:	f8bd 304c 	ldrh.w	r3, [sp, #76]	; 0x4c
 80049fa:	8013      	strh	r3, [r2, #0]
 80049fc:	f04f 0c00 	mov.w	ip, #0
 8004a00:	9898      	ldr	r0, [sp, #608]	; 0x260
 8004a02:	f8df b130 	ldr.w	fp, [pc, #304]	; 8004b34 <acc_radar_engine_a121_prepare+0x1a8>
 8004a06:	aa02      	add	r2, sp, #8
 8004a08:	ab03      	add	r3, sp, #12
 8004a0a:	4639      	mov	r1, r7
 8004a0c:	e9cd cc02 	strd	ip, ip, [sp, #8]
 8004a10:	f7fc fbd2 	bl	80011b8 <acc_sensor_a121_prepare_load_confmem>
 8004a14:	4630      	mov	r0, r6
 8004a16:	f7fc fe99 	bl	800174c <acc_sensor_protocol_a121_prepare_load>
 8004a1a:	b930      	cbnz	r0, 8004a2a <acc_radar_engine_a121_prepare+0x9e>
 8004a1c:	f8db 303c 	ldr.w	r3, [fp, #60]	; 0x3c
 8004a20:	4a3e      	ldr	r2, [pc, #248]	; (8004b1c <acc_radar_engine_a121_prepare+0x190>)
 8004a22:	493f      	ldr	r1, [pc, #252]	; (8004b20 <acc_radar_engine_a121_prepare+0x194>)
 8004a24:	2000      	movs	r0, #0
 8004a26:	4798      	blx	r3
 8004a28:	e7d0      	b.n	80049cc <acc_radar_engine_a121_prepare+0x40>
 8004a2a:	f89b 3028 	ldrb.w	r3, [fp, #40]	; 0x28
 8004a2e:	2b03      	cmp	r3, #3
 8004a30:	d905      	bls.n	8004a3e <acc_radar_engine_a121_prepare+0xb2>
 8004a32:	f8db 303c 	ldr.w	r3, [fp, #60]	; 0x3c
 8004a36:	4a3b      	ldr	r2, [pc, #236]	; (8004b24 <acc_radar_engine_a121_prepare+0x198>)
 8004a38:	493b      	ldr	r1, [pc, #236]	; (8004b28 <acc_radar_engine_a121_prepare+0x19c>)
 8004a3a:	2004      	movs	r0, #4
 8004a3c:	4798      	blx	r3
 8004a3e:	f04f 0a00 	mov.w	sl, #0
 8004a42:	46a1      	mov	r9, r4
 8004a44:	e001      	b.n	8004a4a <acc_radar_engine_a121_prepare+0xbe>
 8004a46:	2c00      	cmp	r4, #0
 8004a48:	d059      	beq.n	8004afe <acc_radar_engine_a121_prepare+0x172>
 8004a4a:	e9dd 1302 	ldrd	r1, r3, [sp, #8]
 8004a4e:	4652      	mov	r2, sl
 8004a50:	9304      	str	r3, [sp, #16]
 8004a52:	a81d      	add	r0, sp, #116	; 0x74
 8004a54:	ab04      	add	r3, sp, #16
 8004a56:	f7fc fa25 	bl	8000ea4 <patch_program_parameters>
 8004a5a:	9b04      	ldr	r3, [sp, #16]
 8004a5c:	9a98      	ldr	r2, [sp, #608]	; 0x260
 8004a5e:	ea4f 015a 	mov.w	r1, sl, lsr #1
 8004a62:	4604      	mov	r4, r0
 8004a64:	4630      	mov	r0, r6
 8004a66:	f7fc feb3 	bl	80017d0 <acc_sensor_a121_load_confmem>
 8004a6a:	9b03      	ldr	r3, [sp, #12]
 8004a6c:	449a      	add	sl, r3
 8004a6e:	fa1f fa8a 	uxth.w	sl, sl
 8004a72:	f640 13dd 	movw	r3, #2525	; 0x9dd
 8004a76:	459a      	cmp	sl, r3
 8004a78:	d9e5      	bls.n	8004a46 <acc_radar_engine_a121_prepare+0xba>
 8004a7a:	464b      	mov	r3, r9
 8004a7c:	46a1      	mov	r9, r4
 8004a7e:	461c      	mov	r4, r3
 8004a80:	f89b 3028 	ldrb.w	r3, [fp, #40]	; 0x28
 8004a84:	2b03      	cmp	r3, #3
 8004a86:	d841      	bhi.n	8004b0c <acc_radar_engine_a121_prepare+0x180>
 8004a88:	f1b9 0f00 	cmp.w	r9, #0
 8004a8c:	d0c6      	beq.n	8004a1c <acc_radar_engine_a121_prepare+0x90>
 8004a8e:	2360      	movs	r3, #96	; 0x60
 8004a90:	9998      	ldr	r1, [sp, #608]	; 0x260
 8004a92:	9300      	str	r3, [sp, #0]
 8004a94:	463a      	mov	r2, r7
 8004a96:	4b25      	ldr	r3, [pc, #148]	; (8004b2c <acc_radar_engine_a121_prepare+0x1a0>)
 8004a98:	4630      	mov	r0, r6
 8004a9a:	f7fe fa81 	bl	8002fa0 <acc_sensor_a121_lut_buffer_write.constprop.0>
 8004a9e:	a91d      	add	r1, sp, #116	; 0x74
 8004aa0:	f44f 72e2 	mov.w	r2, #452	; 0x1c4
 8004aa4:	4640      	mov	r0, r8
 8004aa6:	f005 fec1 	bl	800a82c <memcpy>
 8004aaa:	f8b4 3048 	ldrh.w	r3, [r4, #72]	; 0x48
 8004aae:	b123      	cbz	r3, 8004aba <acc_radar_engine_a121_prepare+0x12e>
 8004ab0:	f894 304e 	ldrb.w	r3, [r4, #78]	; 0x4e
 8004ab4:	3b00      	subs	r3, #0
 8004ab6:	bf18      	it	ne
 8004ab8:	2301      	movne	r3, #1
 8004aba:	2201      	movs	r2, #1
 8004abc:	462f      	mov	r7, r5
 8004abe:	f894 104b 	ldrb.w	r1, [r4, #75]	; 0x4b
 8004ac2:	f888 21c6 	strb.w	r2, [r8, #454]	; 0x1c6
 8004ac6:	f837 2b24 	ldrh.w	r2, [r7], #36
 8004aca:	f8a8 21c8 	strh.w	r2, [r8, #456]	; 0x1c8
 8004ace:	f888 11c5 	strb.w	r1, [r8, #453]	; 0x1c5
 8004ad2:	f888 31c4 	strb.w	r3, [r8, #452]	; 0x1c4
 8004ad6:	f508 76e5 	add.w	r6, r8, #458	; 0x1ca
 8004ada:	f105 0c54 	add.w	ip, r5, #84	; 0x54
 8004ade:	463c      	mov	r4, r7
 8004ae0:	cc0f      	ldmia	r4!, {r0, r1, r2, r3}
 8004ae2:	4564      	cmp	r4, ip
 8004ae4:	6030      	str	r0, [r6, #0]
 8004ae6:	6071      	str	r1, [r6, #4]
 8004ae8:	60b2      	str	r2, [r6, #8]
 8004aea:	60f3      	str	r3, [r6, #12]
 8004aec:	4627      	mov	r7, r4
 8004aee:	f106 0610 	add.w	r6, r6, #16
 8004af2:	d1f4      	bne.n	8004ade <acc_radar_engine_a121_prepare+0x152>
 8004af4:	f8b5 3054 	ldrh.w	r3, [r5, #84]	; 0x54
 8004af8:	f8a8 31fa 	strh.w	r3, [r8, #506]	; 0x1fa
 8004afc:	e768      	b.n	80049d0 <acc_radar_engine_a121_prepare+0x44>
 8004afe:	464b      	mov	r3, r9
 8004b00:	46a1      	mov	r9, r4
 8004b02:	461c      	mov	r4, r3
 8004b04:	f89b 3028 	ldrb.w	r3, [fp, #40]	; 0x28
 8004b08:	2b03      	cmp	r3, #3
 8004b0a:	d987      	bls.n	8004a1c <acc_radar_engine_a121_prepare+0x90>
 8004b0c:	f8db 303c 	ldr.w	r3, [fp, #60]	; 0x3c
 8004b10:	4a07      	ldr	r2, [pc, #28]	; (8004b30 <acc_radar_engine_a121_prepare+0x1a4>)
 8004b12:	4905      	ldr	r1, [pc, #20]	; (8004b28 <acc_radar_engine_a121_prepare+0x19c>)
 8004b14:	2004      	movs	r0, #4
 8004b16:	4798      	blx	r3
 8004b18:	e7b6      	b.n	8004a88 <acc_radar_engine_a121_prepare+0xfc>
 8004b1a:	bf00      	nop
 8004b1c:	080100e8 	.word	0x080100e8
 8004b20:	0800f860 	.word	0x0800f860
 8004b24:	0801008c 	.word	0x0801008c
 8004b28:	08010074 	.word	0x08010074
 8004b2c:	0800bfe8 	.word	0x0800bfe8
 8004b30:	080100bc 	.word	0x080100bc
 8004b34:	200000ac 	.word	0x200000ac

08004b38 <acc_translation_a121_points_to_meter>:
 8004b38:	b508      	push	{r3, lr}
 8004b3a:	4b14      	ldr	r3, [pc, #80]	; (8004b8c <acc_translation_a121_points_to_meter+0x54>)
 8004b3c:	ed9f 0a14 	vldr	s0, [pc, #80]	; 8004b90 <acc_translation_a121_points_to_meter+0x58>
 8004b40:	ed2d 8b02 	vpush	{d8}
 8004b44:	ed93 8a4f 	vldr	s16, [r3, #316]	; 0x13c
 8004b48:	eeb8 8a48 	vcvt.f32.u32	s16, s16
 8004b4c:	ee08 0a90 	vmov	s17, r0
 8004b50:	ee80 0a08 	vdiv.f32	s0, s0, s16
 8004b54:	f003 ff76 	bl	8008a44 <roundf>
 8004b58:	ee28 0a00 	vmul.f32	s0, s16, s0
 8004b5c:	eeb3 8a08 	vmov.f32	s16, #56	; 0x41c00000  24.0
 8004b60:	ee20 0a08 	vmul.f32	s0, s0, s16
 8004b64:	eeb7 7a00 	vmov.f32	s14, #112	; 0x3f800000  1.0
 8004b68:	eec7 7a00 	vdiv.f32	s15, s14, s0
 8004b6c:	eef8 8ae8 	vcvt.f32.s32	s17, s17
 8004b70:	ed9f 7a08 	vldr	s14, [pc, #32]	; 8004b94 <acc_translation_a121_points_to_meter+0x5c>
 8004b74:	ee67 7aa8 	vmul.f32	s15, s15, s17
 8004b78:	ecbd 8b02 	vpop	{d8}
 8004b7c:	ee67 7a87 	vmul.f32	s15, s15, s14
 8004b80:	eeb6 0a00 	vmov.f32	s0, #96	; 0x3f000000  0.5
 8004b84:	ee27 0a80 	vmul.f32	s0, s15, s0
 8004b88:	bd08      	pop	{r3, pc}
 8004b8a:	bf00      	nop
 8004b8c:	200000ac 	.word	0x200000ac
 8004b90:	4f1502f9 	.word	0x4f1502f9
 8004b94:	4d8ef3c2 	.word	0x4d8ef3c2

08004b98 <acc_calibration_a121_calibrate>:
 8004b98:	e92d 4ff0 	stmdb	sp!, {r4, r5, r6, r7, r8, r9, sl, fp, lr}
 8004b9c:	ed2d 8b02 	vpush	{d8}
 8004ba0:	f2ad 7d14 	subw	sp, sp, #1812	; 0x714
 8004ba4:	4604      	mov	r4, r0
 8004ba6:	9302      	str	r3, [sp, #8]
 8004ba8:	781b      	ldrb	r3, [r3, #0]
 8004baa:	468b      	mov	fp, r1
 8004bac:	4691      	mov	r9, r2
 8004bae:	2b0d      	cmp	r3, #13
 8004bb0:	d816      	bhi.n	8004be0 <acc_calibration_a121_calibrate+0x48>
 8004bb2:	e8df f013 	tbh	[pc, r3, lsl #1]
 8004bb6:	0025      	.short	0x0025
 8004bb8:	00dd0076 	.word	0x00dd0076
 8004bbc:	013d0092 	.word	0x013d0092
 8004bc0:	0189000e 	.word	0x0189000e
 8004bc4:	037f026a 	.word	0x037f026a
 8004bc8:	05760511 	.word	0x05760511
 8004bcc:	05ed05a1 	.word	0x05ed05a1
 8004bd0:	0025      	.short	0x0025
 8004bd2:	f7fc fe37 	bl	8001844 <acc_a121_cal_session_ack_program>
 8004bd6:	2800      	cmp	r0, #0
 8004bd8:	f040 8629 	bne.w	800582e <acc_calibration_a121_calibrate+0xc96>
 8004bdc:	9b02      	ldr	r3, [sp, #8]
 8004bde:	781b      	ldrb	r3, [r3, #0]
 8004be0:	4dcf      	ldr	r5, [pc, #828]	; (8004f20 <acc_calibration_a121_calibrate+0x388>)
 8004be2:	6bec      	ldr	r4, [r5, #60]	; 0x3c
 8004be4:	4acf      	ldr	r2, [pc, #828]	; (8004f24 <acc_calibration_a121_calibrate+0x38c>)
 8004be6:	49d0      	ldr	r1, [pc, #832]	; (8004f28 <acc_calibration_a121_calibrate+0x390>)
 8004be8:	2000      	movs	r0, #0
 8004bea:	47a0      	blx	r4
 8004bec:	2000      	movs	r0, #0
 8004bee:	4604      	mov	r4, r0
 8004bf0:	9b02      	ldr	r3, [sp, #8]
 8004bf2:	701c      	strb	r4, [r3, #0]
 8004bf4:	f20d 7d14 	addw	sp, sp, #1812	; 0x714
 8004bf8:	ecbd 8b02 	vpop	{d8}
 8004bfc:	e8bd 8ff0 	ldmia.w	sp!, {r4, r5, r6, r7, r8, r9, sl, fp, pc}
 8004c00:	4dc7      	ldr	r5, [pc, #796]	; (8004f20 <acc_calibration_a121_calibrate+0x388>)
 8004c02:	f8dd 0740 	ldr.w	r0, [sp, #1856]	; 0x740
 8004c06:	2288      	movs	r2, #136	; 0x88
 8004c08:	2100      	movs	r1, #0
 8004c0a:	f005 f8ba 	bl	8009d82 <memset>
 8004c0e:	edd5 7a4f 	vldr	s15, [r5, #316]	; 0x13c
 8004c12:	eddf 5ac6 	vldr	s11, [pc, #792]	; 8004f2c <acc_calibration_a121_calibrate+0x394>
 8004c16:	eddf 6ac6 	vldr	s13, [pc, #792]	; 8004f30 <acc_calibration_a121_calibrate+0x398>
 8004c1a:	eef8 7a67 	vcvt.f32.u32	s15, s15
 8004c1e:	eeb6 6a00 	vmov.f32	s12, #96	; 0x3f000000  0.5
 8004c22:	ee85 7aa7 	vdiv.f32	s14, s11, s15
 8004c26:	eef4 7ae6 	vcmpe.f32	s15, s13
 8004c2a:	ee37 7a06 	vadd.f32	s14, s14, s12
 8004c2e:	eef1 fa10 	vmrs	APSR_nzcv, fpscr
 8004c32:	eebc 7ac7 	vcvt.u32.f32	s14, s14
 8004c36:	ee17 3a10 	vmov	r3, s14
 8004c3a:	b29f      	uxth	r7, r3
 8004c3c:	f300 85ca 	bgt.w	80057d4 <acc_calibration_a121_calibrate+0xc3c>
 8004c40:	ed9f 7abc 	vldr	s14, [pc, #752]	; 8004f34 <acc_calibration_a121_calibrate+0x39c>
 8004c44:	eef4 7ac7 	vcmpe.f32	s15, s14
 8004c48:	eef1 fa10 	vmrs	APSR_nzcv, fpscr
 8004c4c:	f100 85c2 	bmi.w	80057d4 <acc_calibration_a121_calibrate+0xc3c>
 8004c50:	f1a7 0310 	sub.w	r3, r7, #16
 8004c54:	b29b      	uxth	r3, r3
 8004c56:	2bef      	cmp	r3, #239	; 0xef
 8004c58:	f240 8681 	bls.w	800595e <acc_calibration_a121_calibrate+0xdc6>
 8004c5c:	ed9f 7ab6 	vldr	s14, [pc, #728]	; 8004f38 <acc_calibration_a121_calibrate+0x3a0>
 8004c60:	eddf 6ab6 	vldr	s13, [pc, #728]	; 8004f3c <acc_calibration_a121_calibrate+0x3a4>
 8004c64:	ee77 7a87 	vadd.f32	s15, s15, s14
 8004c68:	ee37 7a87 	vadd.f32	s14, s15, s14
 8004c6c:	eebc 6ae7 	vcvt.u32.f32	s12, s15
 8004c70:	eebc 7ac7 	vcvt.u32.f32	s14, s14
 8004c74:	ee16 8a10 	vmov	r8, s12
 8004c78:	eeb8 7a47 	vcvt.f32.u32	s14, s14
 8004c7c:	ee77 7ac7 	vsub.f32	s15, s15, s14
 8004c80:	ee67 7aa6 	vmul.f32	s15, s15, s13
 8004c84:	eefc 7ae7 	vcvt.u32.f32	s15, s15
 8004c88:	ee17 6a90 	vmov	r6, s15
 8004c8c:	e9cd 8600 	strd	r8, r6, [sp]
 8004c90:	4bab      	ldr	r3, [pc, #684]	; (8004f40 <acc_calibration_a121_calibrate+0x3a8>)
 8004c92:	6bec      	ldr	r4, [r5, #60]	; 0x3c
 8004c94:	4aab      	ldr	r2, [pc, #684]	; (8004f44 <acc_calibration_a121_calibrate+0x3ac>)
 8004c96:	49ac      	ldr	r1, [pc, #688]	; (8004f48 <acc_calibration_a121_calibrate+0x3b0>)
 8004c98:	2000      	movs	r0, #0
 8004c9a:	47a0      	blx	r4
 8004c9c:	9b02      	ldr	r3, [sp, #8]
 8004c9e:	781b      	ldrb	r3, [r3, #0]
 8004ca0:	e79f      	b.n	8004be2 <acc_calibration_a121_calibrate+0x4a>
 8004ca2:	f7fc fdcf 	bl	8001844 <acc_a121_cal_session_ack_program>
 8004ca6:	2800      	cmp	r0, #0
 8004ca8:	d098      	beq.n	8004bdc <acc_calibration_a121_calibrate+0x44>
 8004caa:	4620      	mov	r0, r4
 8004cac:	f44f 71a8 	mov.w	r1, #336	; 0x150
 8004cb0:	f7fc fd10 	bl	80016d4 <acc_sensor_protocol_a121_run_program>
 8004cb4:	4d9a      	ldr	r5, [pc, #616]	; (8004f20 <acc_calibration_a121_calibrate+0x388>)
 8004cb6:	2402      	movs	r4, #2
 8004cb8:	2800      	cmp	r0, #0
 8004cba:	f000 8587 	beq.w	80057cc <acc_calibration_a121_calibrate+0xc34>
 8004cbe:	f895 3028 	ldrb.w	r3, [r5, #40]	; 0x28
 8004cc2:	2b03      	cmp	r3, #3
 8004cc4:	f240 8485 	bls.w	80055d2 <acc_calibration_a121_calibrate+0xa3a>
 8004cc8:	9b02      	ldr	r3, [sp, #8]
 8004cca:	6bed      	ldr	r5, [r5, #60]	; 0x3c
 8004ccc:	781b      	ldrb	r3, [r3, #0]
 8004cce:	4a9f      	ldr	r2, [pc, #636]	; (8004f4c <acc_calibration_a121_calibrate+0x3b4>)
 8004cd0:	4995      	ldr	r1, [pc, #596]	; (8004f28 <acc_calibration_a121_calibrate+0x390>)
 8004cd2:	2004      	movs	r0, #4
 8004cd4:	47a8      	blx	r5
 8004cd6:	2001      	movs	r0, #1
 8004cd8:	e78a      	b.n	8004bf0 <acc_calibration_a121_calibrate+0x58>
 8004cda:	f7fc fdb3 	bl	8001844 <acc_a121_cal_session_ack_program>
 8004cde:	4680      	mov	r8, r0
 8004ce0:	2800      	cmp	r0, #0
 8004ce2:	f43f af7b 	beq.w	8004bdc <acc_calibration_a121_calibrate+0x44>
 8004ce6:	4659      	mov	r1, fp
 8004ce8:	2310      	movs	r3, #16
 8004cea:	2200      	movs	r2, #0
 8004cec:	4620      	mov	r0, r4
 8004cee:	f7fe f989 	bl	8003004 <internal_buffer_processed_read.part.0.constprop.0>
 8004cf2:	2100      	movs	r1, #0
 8004cf4:	ee07 4a90 	vmov	s15, r4
 8004cf8:	f1a0 0b02 	sub.w	fp, r0, #2
 8004cfc:	460f      	mov	r7, r1
 8004cfe:	460d      	mov	r5, r1
 8004d00:	f64f 7eff 	movw	lr, #65535	; 0xffff
 8004d04:	f241 7a70 	movw	sl, #6000	; 0x1770
 8004d08:	e01c      	b.n	8004d44 <acc_calibration_a121_calibrate+0x1ac>
 8004d0a:	f930 c011 	ldrsh.w	ip, [r0, r1, lsl #1]
 8004d0e:	f93b 4011 	ldrsh.w	r4, [fp, r1, lsl #1]
 8004d12:	eb0c 020a 	add.w	r2, ip, sl
 8004d16:	ebac 0c04 	sub.w	ip, ip, r4
 8004d1a:	459c      	cmp	ip, r3
 8004d1c:	f6ff af5e 	blt.w	8004bdc <acc_calibration_a121_calibrate+0x44>
 8004d20:	45cc      	cmp	ip, r9
 8004d22:	f73f af5b 	bgt.w	8004bdc <acc_calibration_a121_calibrate+0x44>
 8004d26:	ea82 73e2 	eor.w	r3, r2, r2, asr #31
 8004d2a:	eba3 73e2 	sub.w	r3, r3, r2, asr #31
 8004d2e:	b29b      	uxth	r3, r3
 8004d30:	4573      	cmp	r3, lr
 8004d32:	d203      	bcs.n	8004d3c <acc_calibration_a121_calibrate+0x1a4>
 8004d34:	00b7      	lsls	r7, r6, #2
 8004d36:	469e      	mov	lr, r3
 8004d38:	b2bf      	uxth	r7, r7
 8004d3a:	4645      	mov	r5, r8
 8004d3c:	2e0f      	cmp	r6, #15
 8004d3e:	f000 86d7 	beq.w	8005af0 <acc_calibration_a121_calibrate+0xf58>
 8004d42:	3101      	adds	r1, #1
 8004d44:	1e4b      	subs	r3, r1, #1
 8004d46:	fb03 f303 	mul.w	r3, r3, r3
 8004d4a:	ebc3 03c3 	rsb	r3, r3, r3, lsl #3
 8004d4e:	005a      	lsls	r2, r3, #1
 8004d50:	f502 7916 	add.w	r9, r2, #600	; 0x258
 8004d54:	3bc8      	subs	r3, #200	; 0xc8
 8004d56:	b28e      	uxth	r6, r1
 8004d58:	2900      	cmp	r1, #0
 8004d5a:	d1d6      	bne.n	8004d0a <acc_calibration_a121_calibrate+0x172>
 8004d5c:	f9b0 3000 	ldrsh.w	r3, [r0]
 8004d60:	4453      	add	r3, sl
 8004d62:	2b00      	cmp	r3, #0
 8004d64:	bfb8      	it	lt
 8004d66:	425b      	neglt	r3, r3
 8004d68:	b29b      	uxth	r3, r3
 8004d6a:	4573      	cmp	r3, lr
 8004d6c:	d2e9      	bcs.n	8004d42 <acc_calibration_a121_calibrate+0x1aa>
 8004d6e:	e7e1      	b.n	8004d34 <acc_calibration_a121_calibrate+0x19c>
 8004d70:	f7fc fd68 	bl	8001844 <acc_a121_cal_session_ack_program>
 8004d74:	2800      	cmp	r0, #0
 8004d76:	f43f af31 	beq.w	8004bdc <acc_calibration_a121_calibrate+0x44>
 8004d7a:	aa44      	add	r2, sp, #272	; 0x110
 8004d7c:	2132      	movs	r1, #50	; 0x32
 8004d7e:	4620      	mov	r0, r4
 8004d80:	f7fc fb7a 	bl	8001478 <acc_sensor_reg_read>
 8004d84:	2312      	movs	r3, #18
 8004d86:	4659      	mov	r1, fp
 8004d88:	2200      	movs	r2, #0
 8004d8a:	4620      	mov	r0, r4
 8004d8c:	f7fe f93a 	bl	8003004 <internal_buffer_processed_read.part.0.constprop.0>
 8004d90:	4605      	mov	r5, r0
 8004d92:	2300      	movs	r3, #0
 8004d94:	886f      	ldrh	r7, [r5, #2]
 8004d96:	f8bd 0110 	ldrh.w	r0, [sp, #272]	; 0x110
 8004d9a:	f835 eb04 	ldrh.w	lr, [r5], #4
 8004d9e:	469c      	mov	ip, r3
 8004da0:	f64f 76ff 	movw	r6, #65535	; 0xffff
 8004da4:	fa40 f203 	asr.w	r2, r0, r3
 8004da8:	07d2      	lsls	r2, r2, #31
 8004daa:	b299      	uxth	r1, r3
 8004dac:	d50a      	bpl.n	8004dc4 <acc_calibration_a121_calibrate+0x22c>
 8004dae:	f835 2013 	ldrh.w	r2, [r5, r3, lsl #1]
 8004db2:	1bd2      	subs	r2, r2, r7
 8004db4:	2a00      	cmp	r2, #0
 8004db6:	bfb8      	it	lt
 8004db8:	4252      	neglt	r2, r2
 8004dba:	b292      	uxth	r2, r2
 8004dbc:	42b2      	cmp	r2, r6
 8004dbe:	bf3c      	itt	cc
 8004dc0:	4616      	movcc	r6, r2
 8004dc2:	468c      	movcc	ip, r1
 8004dc4:	3301      	adds	r3, #1
 8004dc6:	2b10      	cmp	r3, #16
 8004dc8:	d1ec      	bne.n	8004da4 <acc_calibration_a121_calibrate+0x20c>
 8004dca:	f10c 33ff 	add.w	r3, ip, #4294967295	; 0xffffffff
 8004dce:	2b0d      	cmp	r3, #13
 8004dd0:	f63f af04 	bhi.w	8004bdc <acc_calibration_a121_calibrate+0x44>
 8004dd4:	f10c 4300 	add.w	r3, ip, #2147483648	; 0x80000000
 8004dd8:	3b01      	subs	r3, #1
 8004dda:	eb05 0643 	add.w	r6, r5, r3, lsl #1
 8004dde:	f835 3013 	ldrh.w	r3, [r5, r3, lsl #1]
 8004de2:	8872      	ldrh	r2, [r6, #2]
 8004de4:	f241 3187 	movw	r1, #4999	; 0x1387
 8004de8:	1a9b      	subs	r3, r3, r2
 8004dea:	428b      	cmp	r3, r1
 8004dec:	f77f aef6 	ble.w	8004bdc <acc_calibration_a121_calibrate+0x44>
 8004df0:	88b3      	ldrh	r3, [r6, #4]
 8004df2:	1ad2      	subs	r2, r2, r3
 8004df4:	428a      	cmp	r2, r1
 8004df6:	f77f aef1 	ble.w	8004bdc <acc_calibration_a121_calibrate+0x44>
 8004dfa:	f64f 73ff 	movw	r3, #65535	; 0xffff
 8004dfe:	4298      	cmp	r0, r3
 8004e00:	f43f aeec 	beq.w	8004bdc <acc_calibration_a121_calibrate+0x44>
 8004e04:	f8dd 3740 	ldr.w	r3, [sp, #1856]	; 0x740
 8004e08:	4a51      	ldr	r2, [pc, #324]	; (8004f50 <acc_calibration_a121_calibrate+0x3b8>)
 8004e0a:	f8a3 e000 	strh.w	lr, [r3]
 8004e0e:	f8a3 c002 	strh.w	ip, [r3, #2]
 8004e12:	4950      	ldr	r1, [pc, #320]	; (8004f54 <acc_calibration_a121_calibrate+0x3bc>)
 8004e14:	f8cd c000 	str.w	ip, [sp]
 8004e18:	2325      	movs	r3, #37	; 0x25
 8004e1a:	4620      	mov	r0, r4
 8004e1c:	f7fe f942 	bl	80030a4 <acc_confprogram_live_patch.constprop.0>
 8004e20:	4620      	mov	r0, r4
 8004e22:	f240 211d 	movw	r1, #541	; 0x21d
 8004e26:	f7fc fc55 	bl	80016d4 <acc_sensor_protocol_a121_run_program>
 8004e2a:	4d3d      	ldr	r5, [pc, #244]	; (8004f20 <acc_calibration_a121_calibrate+0x388>)
 8004e2c:	2403      	movs	r4, #3
 8004e2e:	e743      	b.n	8004cb8 <acc_calibration_a121_calibrate+0x120>
 8004e30:	f7fc fd08 	bl	8001844 <acc_a121_cal_session_ack_program>
 8004e34:	4680      	mov	r8, r0
 8004e36:	2800      	cmp	r0, #0
 8004e38:	f43f aed0 	beq.w	8004bdc <acc_calibration_a121_calibrate+0x44>
 8004e3c:	2331      	movs	r3, #49	; 0x31
 8004e3e:	4659      	mov	r1, fp
 8004e40:	2200      	movs	r2, #0
 8004e42:	4620      	mov	r0, r4
 8004e44:	f7fe f8de 	bl	8003004 <internal_buffer_processed_read.part.0.constprop.0>
 8004e48:	8841      	ldrh	r1, [r0, #2]
 8004e4a:	f8b0 3060 	ldrh.w	r3, [r0, #96]	; 0x60
 8004e4e:	1a5b      	subs	r3, r3, r1
 8004e50:	f5b3 6ffa 	cmp.w	r3, #2000	; 0x7d0
 8004e54:	f6ff aec2 	blt.w	8004bdc <acc_calibration_a121_calibrate+0x44>
 8004e58:	4a3f      	ldr	r2, [pc, #252]	; (8004f58 <acc_calibration_a121_calibrate+0x3c0>)
 8004e5a:	f8cd b00c 	str.w	fp, [sp, #12]
 8004e5e:	4607      	mov	r7, r0
 8004e60:	041b      	lsls	r3, r3, #16
 8004e62:	fba2 2303 	umull	r2, r3, r2, r3
 8004e66:	f837 0b02 	ldrh.w	r0, [r7], #2
 8004e6a:	f8cd 9010 	str.w	r9, [sp, #16]
 8004e6e:	2500      	movs	r5, #0
 8004e70:	095b      	lsrs	r3, r3, #5
 8004e72:	ee07 4a90 	vmov	s15, r4
 8004e76:	468a      	mov	sl, r1
 8004e78:	2210      	movs	r2, #16
 8004e7a:	f64f 7cff 	movw	ip, #65535	; 0xffff
 8004e7e:	462c      	mov	r4, r5
 8004e80:	469b      	mov	fp, r3
 8004e82:	4681      	mov	r9, r0
 8004e84:	e00b      	b.n	8004e9e <acc_calibration_a121_calibrate+0x306>
 8004e86:	4570      	cmp	r0, lr
 8004e88:	bf88      	it	hi
 8004e8a:	f04f 0800 	movhi.w	r8, #0
 8004e8e:	3201      	adds	r2, #1
 8004e90:	b292      	uxth	r2, r2
 8004e92:	2a40      	cmp	r2, #64	; 0x40
 8004e94:	445d      	add	r5, fp
 8004e96:	f000 8650 	beq.w	8005b3a <acc_calibration_a121_calibrate+0xfa2>
 8004e9a:	f837 1f02 	ldrh.w	r1, [r7, #2]!
 8004e9e:	eba1 0309 	sub.w	r3, r1, r9
 8004ea2:	2b00      	cmp	r3, #0
 8004ea4:	bfb8      	it	lt
 8004ea6:	425b      	neglt	r3, r3
 8004ea8:	b29b      	uxth	r3, r3
 8004eaa:	eb0a 4015 	add.w	r0, sl, r5, lsr #16
 8004eae:	4563      	cmp	r3, ip
 8004eb0:	f500 7648 	add.w	r6, r0, #800	; 0x320
 8004eb4:	bf3c      	itt	cc
 8004eb6:	469c      	movcc	ip, r3
 8004eb8:	4614      	movcc	r4, r2
 8004eba:	42b1      	cmp	r1, r6
 8004ebc:	f501 7e48 	add.w	lr, r1, #800	; 0x320
 8004ec0:	d9e1      	bls.n	8004e86 <acc_calibration_a121_calibrate+0x2ee>
 8004ec2:	f04f 0800 	mov.w	r8, #0
 8004ec6:	e7e2      	b.n	8004e8e <acc_calibration_a121_calibrate+0x2f6>
 8004ec8:	f7fc fcbc 	bl	8001844 <acc_a121_cal_session_ack_program>
 8004ecc:	2800      	cmp	r0, #0
 8004ece:	f43f ae85 	beq.w	8004bdc <acc_calibration_a121_calibrate+0x44>
 8004ed2:	2350      	movs	r3, #80	; 0x50
 8004ed4:	2200      	movs	r2, #0
 8004ed6:	4659      	mov	r1, fp
 8004ed8:	4620      	mov	r0, r4
 8004eda:	f7fe f893 	bl	8003004 <internal_buffer_processed_read.part.0.constprop.0>
 8004ede:	f100 03a0 	add.w	r3, r0, #160	; 0xa0
 8004ee2:	9303      	str	r3, [sp, #12]
 8004ee4:	f8dd 3740 	ldr.w	r3, [sp, #1856]	; 0x740
 8004ee8:	f8cd b010 	str.w	fp, [sp, #16]
 8004eec:	330a      	adds	r3, #10
 8004eee:	2230      	movs	r2, #48	; 0x30
 8004ef0:	ee07 4a90 	vmov	s15, r4
 8004ef4:	4682      	mov	sl, r0
 8004ef6:	461c      	mov	r4, r3
 8004ef8:	4693      	mov	fp, r2
 8004efa:	f8cd 9014 	str.w	r9, [sp, #20]
 8004efe:	f8df 805c 	ldr.w	r8, [pc, #92]	; 8004f5c <acc_calibration_a121_calibrate+0x3c4>
 8004f02:	f9ba 2000 	ldrsh.w	r2, [sl]
 8004f06:	f04f 0e00 	mov.w	lr, #0
 8004f0a:	f647 7cff 	movw	ip, #32767	; 0x7fff
 8004f0e:	46f1      	mov	r9, lr
 8004f10:	4666      	mov	r6, ip
 8004f12:	4655      	mov	r5, sl
 8004f14:	f64f 71ec 	movw	r1, #65516	; 0xffec
 8004f18:	f06f 031b 	mvn.w	r3, #27
 8004f1c:	4640      	mov	r0, r8
 8004f1e:	e035      	b.n	8004f8c <acc_calibration_a121_calibrate+0x3f4>
 8004f20:	200000ac 	.word	0x200000ac
 8004f24:	08010138 	.word	0x08010138
 8004f28:	08010124 	.word	0x08010124
 8004f2c:	4f1502f9 	.word	0x4f1502f9
 8004f30:	4c989680 	.word	0x4c989680
 8004f34:	4b989680 	.word	0x4b989680
 8004f38:	350637bd 	.word	0x350637bd
 8004f3c:	49742400 	.word	0x49742400
 8004f40:	08010288 	.word	0x08010288
 8004f44:	0801015c 	.word	0x0801015c
 8004f48:	08010188 	.word	0x08010188
 8004f4c:	080100fc 	.word	0x080100fc
 8004f50:	0800c0a8 	.word	0x0800c0a8
 8004f54:	0800ca6c 	.word	0x0800ca6c
 8004f58:	aaaaaaab 	.word	0xaaaaaaab
 8004f5c:	ffff8000 	.word	0xffff8000
 8004f60:	4562      	cmp	r2, ip
 8004f62:	bfbc      	itt	lt
 8004f64:	469e      	movlt	lr, r3
 8004f66:	4694      	movlt	ip, r2
 8004f68:	2924      	cmp	r1, #36	; 0x24
 8004f6a:	d017      	beq.n	8004f9c <acc_calibration_a121_calibrate+0x404>
 8004f6c:	f935 2f02 	ldrsh.w	r2, [r5, #2]!
 8004f70:	f835 3c02 	ldrh.w	r3, [r5, #-2]
 8004f74:	1ad3      	subs	r3, r2, r3
 8004f76:	b21b      	sxth	r3, r3
 8004f78:	429e      	cmp	r6, r3
 8004f7a:	bfa8      	it	ge
 8004f7c:	461e      	movge	r6, r3
 8004f7e:	f101 0708 	add.w	r7, r1, #8
 8004f82:	4298      	cmp	r0, r3
 8004f84:	bfb8      	it	lt
 8004f86:	4618      	movlt	r0, r3
 8004f88:	b20b      	sxth	r3, r1
 8004f8a:	b2b9      	uxth	r1, r7
 8004f8c:	2a00      	cmp	r2, #0
 8004f8e:	dae7      	bge.n	8004f60 <acc_calibration_a121_calibrate+0x3c8>
 8004f90:	4542      	cmp	r2, r8
 8004f92:	dde9      	ble.n	8004f68 <acc_calibration_a121_calibrate+0x3d0>
 8004f94:	2924      	cmp	r1, #36	; 0x24
 8004f96:	4699      	mov	r9, r3
 8004f98:	4690      	mov	r8, r2
 8004f9a:	d1e7      	bne.n	8004f6c <acc_calibration_a121_calibrate+0x3d4>
 8004f9c:	f5a0 501c 	sub.w	r0, r0, #9984	; 0x2700
 8004fa0:	3810      	subs	r0, #16
 8004fa2:	b280      	uxth	r0, r0
 8004fa4:	f644 6320 	movw	r3, #20000	; 0x4e20
 8004fa8:	4298      	cmp	r0, r3
 8004faa:	f63f ae17 	bhi.w	8004bdc <acc_calibration_a121_calibrate+0x44>
 8004fae:	2e00      	cmp	r6, #0
 8004fb0:	f47f ae14 	bne.w	8004bdc <acc_calibration_a121_calibrate+0x44>
 8004fb4:	f518 4f00 	cmn.w	r8, #32768	; 0x8000
 8004fb8:	f647 73ff 	movw	r3, #32767	; 0x7fff
 8004fbc:	f000 85b3 	beq.w	8005b26 <acc_calibration_a121_calibrate+0xf8e>
 8004fc0:	459c      	cmp	ip, r3
 8004fc2:	f000 8676 	beq.w	8005cb2 <acc_calibration_a121_calibrate+0x111a>
 8004fc6:	ebae 0e09 	sub.w	lr, lr, r9
 8004fca:	f1be 0f08 	cmp.w	lr, #8
 8004fce:	f47f ae05 	bne.w	8004bdc <acc_calibration_a121_calibrate+0x44>
 8004fd2:	ea4f 0ec8 	mov.w	lr, r8, lsl #3
 8004fd6:	ebac 0c08 	sub.w	ip, ip, r8
 8004fda:	fb9e fcfc 	sdiv	ip, lr, ip
 8004fde:	eba9 0e0c 	sub.w	lr, r9, ip
 8004fe2:	fa0f fe8e 	sxth.w	lr, lr
 8004fe6:	f1be 0f00 	cmp.w	lr, #0
 8004fea:	f2c0 847f 	blt.w	80058ec <acc_calibration_a121_calibrate+0xd54>
 8004fee:	f1be 0f1f 	cmp.w	lr, #31
 8004ff2:	f73f adf3 	bgt.w	8004bdc <acc_calibration_a121_calibrate+0x44>
 8004ff6:	fa1f fe8e 	uxth.w	lr, lr
 8004ffa:	4aa6      	ldr	r2, [pc, #664]	; (8005294 <acc_calibration_a121_calibrate+0x6fc>)
 8004ffc:	f10b 0301 	add.w	r3, fp, #1
 8005000:	f882 b015 	strb.w	fp, [r2, #21]
 8005004:	fa5f fb83 	uxtb.w	fp, r3
 8005008:	9b03      	ldr	r3, [sp, #12]
 800500a:	f824 ef02 	strh.w	lr, [r4, #2]!
 800500e:	f10a 0a10 	add.w	sl, sl, #16
 8005012:	4553      	cmp	r3, sl
 8005014:	f47f af73 	bne.w	8004efe <acc_calibration_a121_calibrate+0x366>
 8005018:	e9dd b904 	ldrd	fp, r9, [sp, #16]
 800501c:	2360      	movs	r3, #96	; 0x60
 800501e:	ee17 0a90 	vmov	r0, s15
 8005022:	464a      	mov	r2, r9
 8005024:	4659      	mov	r1, fp
 8005026:	9300      	str	r3, [sp, #0]
 8005028:	4b9b      	ldr	r3, [pc, #620]	; (8005298 <acc_calibration_a121_calibrate+0x700>)
 800502a:	4d9c      	ldr	r5, [pc, #624]	; (800529c <acc_calibration_a121_calibrate+0x704>)
 800502c:	ee17 4a90 	vmov	r4, s15
 8005030:	f7fd ffb6 	bl	8002fa0 <acc_sensor_a121_lut_buffer_write.constprop.0>
 8005034:	f8dd 3740 	ldr.w	r3, [sp, #1856]	; 0x740
 8005038:	4a99      	ldr	r2, [pc, #612]	; (80052a0 <acc_calibration_a121_calibrate+0x708>)
 800503a:	899b      	ldrh	r3, [r3, #12]
 800503c:	9300      	str	r3, [sp, #0]
 800503e:	f8dd 3740 	ldr.w	r3, [sp, #1856]	; 0x740
 8005042:	4998      	ldr	r1, [pc, #608]	; (80052a4 <acc_calibration_a121_calibrate+0x70c>)
 8005044:	88de      	ldrh	r6, [r3, #6]
 8005046:	4620      	mov	r0, r4
 8005048:	2307      	movs	r3, #7
 800504a:	f7fe f82b 	bl	80030a4 <acc_confprogram_live_patch.constprop.0>
 800504e:	4a94      	ldr	r2, [pc, #592]	; (80052a0 <acc_calibration_a121_calibrate+0x708>)
 8005050:	4994      	ldr	r1, [pc, #592]	; (80052a4 <acc_calibration_a121_calibrate+0x70c>)
 8005052:	9600      	str	r6, [sp, #0]
 8005054:	2308      	movs	r3, #8
 8005056:	4620      	mov	r0, r4
 8005058:	f7fe f824 	bl	80030a4 <acc_confprogram_live_patch.constprop.0>
 800505c:	2303      	movs	r3, #3
 800505e:	4a90      	ldr	r2, [pc, #576]	; (80052a0 <acc_calibration_a121_calibrate+0x708>)
 8005060:	4990      	ldr	r1, [pc, #576]	; (80052a4 <acc_calibration_a121_calibrate+0x70c>)
 8005062:	9300      	str	r3, [sp, #0]
 8005064:	4620      	mov	r0, r4
 8005066:	2309      	movs	r3, #9
 8005068:	f7fe f81c 	bl	80030a4 <acc_confprogram_live_patch.constprop.0>
 800506c:	2306      	movs	r3, #6
 800506e:	4a8c      	ldr	r2, [pc, #560]	; (80052a0 <acc_calibration_a121_calibrate+0x708>)
 8005070:	498c      	ldr	r1, [pc, #560]	; (80052a4 <acc_calibration_a121_calibrate+0x70c>)
 8005072:	9300      	str	r3, [sp, #0]
 8005074:	4620      	mov	r0, r4
 8005076:	230a      	movs	r3, #10
 8005078:	f7fe f814 	bl	80030a4 <acc_confprogram_live_patch.constprop.0>
 800507c:	4620      	mov	r0, r4
 800507e:	f44f 7170 	mov.w	r1, #960	; 0x3c0
 8005082:	f7fc fb27 	bl	80016d4 <acc_sensor_protocol_a121_run_program>
 8005086:	2407      	movs	r4, #7
 8005088:	e616      	b.n	8004cb8 <acc_calibration_a121_calibrate+0x120>
 800508a:	f7fc fbdb 	bl	8001844 <acc_a121_cal_session_ack_program>
 800508e:	2800      	cmp	r0, #0
 8005090:	f43f ada4 	beq.w	8004bdc <acc_calibration_a121_calibrate+0x44>
 8005094:	ad0b      	add	r5, sp, #44	; 0x2c
 8005096:	4659      	mov	r1, fp
 8005098:	462a      	mov	r2, r5
 800509a:	4620      	mov	r0, r4
 800509c:	9507      	str	r5, [sp, #28]
 800509e:	f7fe f8e9 	bl	8003274 <acc_a121_cal_session_get_10_ps_wavelet_program_data>
 80050a2:	682a      	ldr	r2, [r5, #0]
 80050a4:	f8df 9204 	ldr.w	r9, [pc, #516]	; 80052ac <acc_calibration_a121_calibrate+0x714>
 80050a8:	f8df 8204 	ldr.w	r8, [pc, #516]	; 80052b0 <acc_calibration_a121_calibrate+0x718>
 80050ac:	9505      	str	r5, [sp, #20]
 80050ae:	2300      	movs	r3, #0
 80050b0:	f502 61c0 	add.w	r1, r2, #1536	; 0x600
 80050b4:	9304      	str	r3, [sp, #16]
 80050b6:	ee07 4a90 	vmov	s15, r4
 80050ba:	ab44      	add	r3, sp, #272	; 0x110
 80050bc:	9106      	str	r1, [sp, #24]
 80050be:	ae2c      	add	r6, sp, #176	; 0xb0
 80050c0:	9303      	str	r3, [sp, #12]
 80050c2:	af43      	add	r7, sp, #268	; 0x10c
 80050c4:	4692      	mov	sl, r2
 80050c6:	ac14      	add	r4, sp, #80	; 0x50
 80050c8:	4655      	mov	r5, sl
 80050ca:	f9b5 1002 	ldrsh.w	r1, [r5, #2]
 80050ce:	f935 0b04 	ldrsh.w	r0, [r5], #4
 80050d2:	f7fc fc9b 	bl	8001a0c <acc_cal_algorithms_atan2_q16>
 80050d6:	f844 0b04 	str.w	r0, [r4], #4
 80050da:	42a6      	cmp	r6, r4
 80050dc:	d1f5      	bne.n	80050ca <acc_calibration_a121_calibrate+0x532>
 80050de:	ac2b      	add	r4, sp, #172	; 0xac
 80050e0:	46a3      	mov	fp, r4
 80050e2:	4655      	mov	r5, sl
 80050e4:	f9b5 1062 	ldrsh.w	r1, [r5, #98]	; 0x62
 80050e8:	f9b5 0060 	ldrsh.w	r0, [r5, #96]	; 0x60
 80050ec:	f7fc fc8e 	bl	8001a0c <acc_cal_algorithms_atan2_q16>
 80050f0:	f84b 0f04 	str.w	r0, [fp, #4]!
 80050f4:	455f      	cmp	r7, fp
 80050f6:	f105 0504 	add.w	r5, r5, #4
 80050fa:	d1f3      	bne.n	80050e4 <acc_calibration_a121_calibrate+0x54c>
 80050fc:	e9dd 3203 	ldrd	r3, r2, [sp, #12]
 8005100:	ad13      	add	r5, sp, #76	; 0x4c
 8005102:	1898      	adds	r0, r3, r2
 8005104:	2100      	movs	r1, #0
 8005106:	f854 3f04 	ldr.w	r3, [r4, #4]!
 800510a:	f855 2f04 	ldr.w	r2, [r5, #4]!
 800510e:	1a9b      	subs	r3, r3, r2
 8005110:	454b      	cmp	r3, r9
 8005112:	f340 8389 	ble.w	8005828 <acc_calibration_a121_calibrate+0xc90>
 8005116:	f5a3 23c9 	sub.w	r3, r3, #411648	; 0x64800
 800511a:	3b7e      	subs	r3, #126	; 0x7e
 800511c:	454b      	cmp	r3, r9
 800511e:	dcfa      	bgt.n	8005116 <acc_calibration_a121_calibrate+0x57e>
 8005120:	2b00      	cmp	r3, #0
 8005122:	bfb8      	it	lt
 8005124:	425b      	neglt	r3, r3
 8005126:	4299      	cmp	r1, r3
 8005128:	bfb8      	it	lt
 800512a:	4619      	movlt	r1, r3
 800512c:	42a7      	cmp	r7, r4
 800512e:	f840 3b04 	str.w	r3, [r0], #4
 8005132:	d1e8      	bne.n	8005106 <acc_calibration_a121_calibrate+0x56e>
 8005134:	9b05      	ldr	r3, [sp, #20]
 8005136:	1049      	asrs	r1, r1, #1
 8005138:	f843 1f04 	str.w	r1, [r3, #4]!
 800513c:	9305      	str	r3, [sp, #20]
 800513e:	9b04      	ldr	r3, [sp, #16]
 8005140:	3360      	adds	r3, #96	; 0x60
 8005142:	9304      	str	r3, [sp, #16]
 8005144:	9b06      	ldr	r3, [sp, #24]
 8005146:	f10a 0ac0 	add.w	sl, sl, #192	; 0xc0
 800514a:	4553      	cmp	r3, sl
 800514c:	d1bb      	bne.n	80050c6 <acc_calibration_a121_calibrate+0x52e>
 800514e:	2000      	movs	r0, #0
 8005150:	ee17 4a90 	vmov	r4, s15
 8005154:	9d07      	ldr	r5, [sp, #28]
 8005156:	4601      	mov	r1, r0
 8005158:	4603      	mov	r3, r0
 800515a:	f855 2f04 	ldr.w	r2, [r5, #4]!
 800515e:	428a      	cmp	r2, r1
 8005160:	bfc8      	it	gt
 8005162:	4618      	movgt	r0, r3
 8005164:	f103 0301 	add.w	r3, r3, #1
 8005168:	bfc8      	it	gt
 800516a:	4611      	movgt	r1, r2
 800516c:	2b08      	cmp	r3, #8
 800516e:	d1f4      	bne.n	800515a <acc_calibration_a121_calibrate+0x5c2>
 8005170:	ab0c      	add	r3, sp, #48	; 0x30
 8005172:	eb00 0140 	add.w	r1, r0, r0, lsl #1
 8005176:	f853 5020 	ldr.w	r5, [r3, r0, lsl #2]
 800517a:	9b03      	ldr	r3, [sp, #12]
 800517c:	f10d 02af 	add.w	r2, sp, #175	; 0xaf
 8005180:	eb03 1141 	add.w	r1, r3, r1, lsl #5
 8005184:	f10d 00c7 	add.w	r0, sp, #199	; 0xc7
 8005188:	f851 3b04 	ldr.w	r3, [r1], #4
 800518c:	42ab      	cmp	r3, r5
 800518e:	bfac      	ite	ge
 8005190:	2300      	movge	r3, #0
 8005192:	2301      	movlt	r3, #1
 8005194:	f802 3f01 	strb.w	r3, [r2, #1]!
 8005198:	4290      	cmp	r0, r2
 800519a:	7613      	strb	r3, [r2, #24]
 800519c:	d1f4      	bne.n	8005188 <acc_calibration_a121_calibrate+0x5f0>
 800519e:	2000      	movs	r0, #0
 80051a0:	4601      	mov	r1, r0
 80051a2:	2301      	movs	r3, #1
 80051a4:	2900      	cmp	r1, #0
 80051a6:	f000 836d 	beq.w	8005884 <acc_calibration_a121_calibrate+0xcec>
 80051aa:	5cf2      	ldrb	r2, [r6, r3]
 80051ac:	2a00      	cmp	r2, #0
 80051ae:	f000 8361 	beq.w	8005874 <acc_calibration_a121_calibrate+0xcdc>
 80051b2:	3001      	adds	r0, #1
 80051b4:	3301      	adds	r3, #1
 80051b6:	2b30      	cmp	r3, #48	; 0x30
 80051b8:	d1f4      	bne.n	80051a4 <acc_calibration_a121_calibrate+0x60c>
 80051ba:	f1a0 030c 	sub.w	r3, r0, #12
 80051be:	2b08      	cmp	r3, #8
 80051c0:	f63f ad0c 	bhi.w	8004bdc <acc_calibration_a121_calibrate+0x44>
 80051c4:	eb01 0050 	add.w	r0, r1, r0, lsr #1
 80051c8:	2817      	cmp	r0, #23
 80051ca:	d902      	bls.n	80051d2 <acc_calibration_a121_calibrate+0x63a>
 80051cc:	3818      	subs	r0, #24
 80051ce:	2817      	cmp	r0, #23
 80051d0:	d8fc      	bhi.n	80051cc <acc_calibration_a121_calibrate+0x634>
 80051d2:	b280      	uxth	r0, r0
 80051d4:	0082      	lsls	r2, r0, #2
 80051d6:	b292      	uxth	r2, r2
 80051d8:	f102 0630 	add.w	r6, r2, #48	; 0x30
 80051dc:	f8dd 3740 	ldr.w	r3, [sp, #1856]	; 0x740
 80051e0:	b2b6      	uxth	r6, r6
 80051e2:	2e5f      	cmp	r6, #95	; 0x5f
 80051e4:	8118      	strh	r0, [r3, #8]
 80051e6:	f240 8547 	bls.w	8005c78 <acc_calibration_a121_calibrate+0x10e0>
 80051ea:	4b2f      	ldr	r3, [pc, #188]	; (80052a8 <acc_calibration_a121_calibrate+0x710>)
 80051ec:	fba3 1306 	umull	r1, r3, r3, r6
 80051f0:	099b      	lsrs	r3, r3, #6
 80051f2:	eb03 0343 	add.w	r3, r3, r3, lsl #1
 80051f6:	eba6 1343 	sub.w	r3, r6, r3, lsl #5
 80051fa:	b29b      	uxth	r3, r3
 80051fc:	2700      	movs	r7, #0
 80051fe:	4616      	mov	r6, r2
 8005200:	46b8      	mov	r8, r7
 8005202:	461a      	mov	r2, r3
 8005204:	f04f 0901 	mov.w	r9, #1
 8005208:	4926      	ldr	r1, [pc, #152]	; (80052a4 <acc_calibration_a121_calibrate+0x70c>)
 800520a:	9200      	str	r2, [sp, #0]
 800520c:	2321      	movs	r3, #33	; 0x21
 800520e:	4a24      	ldr	r2, [pc, #144]	; (80052a0 <acc_calibration_a121_calibrate+0x708>)
 8005210:	4d22      	ldr	r5, [pc, #136]	; (800529c <acc_calibration_a121_calibrate+0x704>)
 8005212:	4620      	mov	r0, r4
 8005214:	f7fd ff46 	bl	80030a4 <acc_confprogram_live_patch.constprop.0>
 8005218:	4a21      	ldr	r2, [pc, #132]	; (80052a0 <acc_calibration_a121_calibrate+0x708>)
 800521a:	4922      	ldr	r1, [pc, #136]	; (80052a4 <acc_calibration_a121_calibrate+0x70c>)
 800521c:	9600      	str	r6, [sp, #0]
 800521e:	2322      	movs	r3, #34	; 0x22
 8005220:	4620      	mov	r0, r4
 8005222:	f7fd ff3f 	bl	80030a4 <acc_confprogram_live_patch.constprop.0>
 8005226:	2603      	movs	r6, #3
 8005228:	4a1d      	ldr	r2, [pc, #116]	; (80052a0 <acc_calibration_a121_calibrate+0x708>)
 800522a:	491e      	ldr	r1, [pc, #120]	; (80052a4 <acc_calibration_a121_calibrate+0x70c>)
 800522c:	f8cd 9000 	str.w	r9, [sp]
 8005230:	2301      	movs	r3, #1
 8005232:	4620      	mov	r0, r4
 8005234:	f7fd ff36 	bl	80030a4 <acc_confprogram_live_patch.constprop.0>
 8005238:	4a19      	ldr	r2, [pc, #100]	; (80052a0 <acc_calibration_a121_calibrate+0x708>)
 800523a:	491a      	ldr	r1, [pc, #104]	; (80052a4 <acc_calibration_a121_calibrate+0x70c>)
 800523c:	9600      	str	r6, [sp, #0]
 800523e:	2302      	movs	r3, #2
 8005240:	4620      	mov	r0, r4
 8005242:	f7fd ff2f 	bl	80030a4 <acc_confprogram_live_patch.constprop.0>
 8005246:	4a16      	ldr	r2, [pc, #88]	; (80052a0 <acc_calibration_a121_calibrate+0x708>)
 8005248:	4916      	ldr	r1, [pc, #88]	; (80052a4 <acc_calibration_a121_calibrate+0x70c>)
 800524a:	f8cd 8000 	str.w	r8, [sp]
 800524e:	4633      	mov	r3, r6
 8005250:	4620      	mov	r0, r4
 8005252:	f7fd ff27 	bl	80030a4 <acc_confprogram_live_patch.constprop.0>
 8005256:	4a12      	ldr	r2, [pc, #72]	; (80052a0 <acc_calibration_a121_calibrate+0x708>)
 8005258:	4912      	ldr	r1, [pc, #72]	; (80052a4 <acc_calibration_a121_calibrate+0x70c>)
 800525a:	9700      	str	r7, [sp, #0]
 800525c:	2304      	movs	r3, #4
 800525e:	4620      	mov	r0, r4
 8005260:	f7fd ff20 	bl	80030a4 <acc_confprogram_live_patch.constprop.0>
 8005264:	4a0e      	ldr	r2, [pc, #56]	; (80052a0 <acc_calibration_a121_calibrate+0x708>)
 8005266:	490f      	ldr	r1, [pc, #60]	; (80052a4 <acc_calibration_a121_calibrate+0x70c>)
 8005268:	f8cd 9000 	str.w	r9, [sp]
 800526c:	2305      	movs	r3, #5
 800526e:	4620      	mov	r0, r4
 8005270:	f7fd ff18 	bl	80030a4 <acc_confprogram_live_patch.constprop.0>
 8005274:	2300      	movs	r3, #0
 8005276:	4a0a      	ldr	r2, [pc, #40]	; (80052a0 <acc_calibration_a121_calibrate+0x708>)
 8005278:	490a      	ldr	r1, [pc, #40]	; (80052a4 <acc_calibration_a121_calibrate+0x70c>)
 800527a:	9300      	str	r3, [sp, #0]
 800527c:	4620      	mov	r0, r4
 800527e:	2306      	movs	r3, #6
 8005280:	f7fd ff10 	bl	80030a4 <acc_confprogram_live_patch.constprop.0>
 8005284:	4620      	mov	r0, r4
 8005286:	f240 31d5 	movw	r1, #981	; 0x3d5
 800528a:	f7fc fa23 	bl	80016d4 <acc_sensor_protocol_a121_run_program>
 800528e:	2408      	movs	r4, #8
 8005290:	e512      	b.n	8004cb8 <acc_calibration_a121_calibrate+0x120>
 8005292:	bf00      	nop
 8005294:	20000000 	.word	0x20000000
 8005298:	0800bfe8 	.word	0x0800bfe8
 800529c:	200000ac 	.word	0x200000ac
 80052a0:	0800c0a8 	.word	0x0800c0a8
 80052a4:	0800ca6c 	.word	0x0800ca6c
 80052a8:	aaaaaaab 	.word	0xaaaaaaab
 80052ac:	0003243f 	.word	0x0003243f
 80052b0:	fffcdbc1 	.word	0xfffcdbc1
 80052b4:	f7fc fac6 	bl	8001844 <acc_a121_cal_session_ack_program>
 80052b8:	9006      	str	r0, [sp, #24]
 80052ba:	2800      	cmp	r0, #0
 80052bc:	f43f ac8e 	beq.w	8004bdc <acc_calibration_a121_calibrate+0x44>
 80052c0:	4dd6      	ldr	r5, [pc, #856]	; (800561c <acc_calibration_a121_calibrate+0xa84>)
 80052c2:	f8dd 1740 	ldr.w	r1, [sp, #1856]	; 0x740
 80052c6:	4ad6      	ldr	r2, [pc, #856]	; (8005620 <acc_calibration_a121_calibrate+0xa88>)
 80052c8:	f8d5 313c 	ldr.w	r3, [r5, #316]	; 0x13c
 80052cc:	f8b1 707c 	ldrh.w	r7, [r1, #124]	; 0x7c
 80052d0:	fba2 2303 	umull	r2, r3, r2, r3
 80052d4:	099b      	lsrs	r3, r3, #6
 80052d6:	aa0c      	add	r2, sp, #48	; 0x30
 80052d8:	4659      	mov	r1, fp
 80052da:	4620      	mov	r0, r4
 80052dc:	fb07 f703 	mul.w	r7, r7, r3
 80052e0:	f7fd ffc8 	bl	8003274 <acc_a121_cal_session_get_10_ps_wavelet_program_data>
 80052e4:	9b0c      	ldr	r3, [sp, #48]	; 0x30
 80052e6:	aa44      	add	r2, sp, #272	; 0x110
 80052e8:	9203      	str	r2, [sp, #12]
 80052ea:	f103 0802 	add.w	r8, r3, #2
 80052ee:	f50d 7986 	add.w	r9, sp, #268	; 0x10c
 80052f2:	f20d 760c 	addw	r6, sp, #1804	; 0x70c
 80052f6:	f9b8 1000 	ldrsh.w	r1, [r8]
 80052fa:	f938 0c02 	ldrsh.w	r0, [r8, #-2]
 80052fe:	f7fc fb85 	bl	8001a0c <acc_cal_algorithms_atan2_q16>
 8005302:	f849 0f04 	str.w	r0, [r9, #4]!
 8005306:	454e      	cmp	r6, r9
 8005308:	f108 0804 	add.w	r8, r8, #4
 800530c:	d1f3      	bne.n	80052f6 <acc_calibration_a121_calibrate+0x75e>
 800530e:	2300      	movs	r3, #0
 8005310:	eb07 0247 	add.w	r2, r7, r7, lsl #1
 8005314:	469a      	mov	sl, r3
 8005316:	e9cd 332c 	strd	r3, r3, [sp, #176]	; 0xb0
 800531a:	e9cd 332e 	strd	r3, r3, [sp, #184]	; 0xb8
 800531e:	e9cd 3330 	strd	r3, r3, [sp, #192]	; 0xc0
 8005322:	e9cd 3332 	strd	r3, r3, [sp, #200]	; 0xc8
 8005326:	9305      	str	r3, [sp, #20]
 8005328:	00d3      	lsls	r3, r2, #3
 800532a:	9a03      	ldr	r2, [sp, #12]
 800532c:	f8df 8310 	ldr.w	r8, [pc, #784]	; 8005640 <acc_calibration_a121_calibrate+0xaa8>
 8005330:	ae2c      	add	r6, sp, #176	; 0xb0
 8005332:	f102 095c 	add.w	r9, r2, #92	; 0x5c
 8005336:	46b3      	mov	fp, r6
 8005338:	f64f 72ff 	movw	r2, #65535	; 0xffff
 800533c:	9607      	str	r6, [sp, #28]
 800533e:	4656      	mov	r6, sl
 8005340:	f8dd a018 	ldr.w	sl, [sp, #24]
 8005344:	9204      	str	r2, [sp, #16]
 8005346:	ee07 4a90 	vmov	s15, r4
 800534a:	464c      	mov	r4, r9
 800534c:	4699      	mov	r9, r3
 800534e:	f1a4 005c 	sub.w	r0, r4, #92	; 0x5c
 8005352:	f7fb fabd 	bl	80008d0 <acc_cal_algorithms_phase_unwrap.constprop.0>
 8005356:	f1a4 0c60 	sub.w	ip, r4, #96	; 0x60
 800535a:	2000      	movs	r0, #0
 800535c:	f85c 3f04 	ldr.w	r3, [ip, #4]!
 8005360:	f8dc 2060 	ldr.w	r2, [ip, #96]	; 0x60
 8005364:	4564      	cmp	r4, ip
 8005366:	eba3 0302 	sub.w	r3, r3, r2
 800536a:	4418      	add	r0, r3
 800536c:	d1f6      	bne.n	800535c <acc_calibration_a121_calibrate+0x7c4>
 800536e:	2800      	cmp	r0, #0
 8005370:	f2c0 82ae 	blt.w	80058d0 <acc_calibration_a121_calibrate+0xd38>
 8005374:	0980      	lsrs	r0, r0, #6
 8005376:	f640 5394 	movw	r3, #3476	; 0xd94
 800537a:	fb03 f000 	mul.w	r0, r3, r0
 800537e:	0d40      	lsrs	r0, r0, #21
 8005380:	fb07 f000 	mul.w	r0, r7, r0
 8005384:	eb09 2010 	add.w	r0, r9, r0, lsr #8
 8005388:	f8cb 0000 	str.w	r0, [fp]
 800538c:	b126      	cbz	r6, 8005398 <acc_calibration_a121_calibrate+0x800>
 800538e:	f85b 3c04 	ldr.w	r3, [fp, #-4]
 8005392:	4298      	cmp	r0, r3
 8005394:	f080 83cc 	bcs.w	8005b30 <acc_calibration_a121_calibrate+0xf98>
 8005398:	f8db 3000 	ldr.w	r3, [fp]
 800539c:	f1a3 7366 	sub.w	r3, r3, #60293120	; 0x3980000
 80053a0:	f5a3 334a 	sub.w	r3, r3, #206848	; 0x32800
 80053a4:	3b20      	subs	r3, #32
 80053a6:	2b00      	cmp	r3, #0
 80053a8:	bfb8      	it	lt
 80053aa:	425b      	neglt	r3, r3
 80053ac:	4543      	cmp	r3, r8
 80053ae:	f106 0201 	add.w	r2, r6, #1
 80053b2:	bf38      	it	cc
 80053b4:	e9cd 6a04 	strdcc	r6, sl, [sp, #16]
 80053b8:	b296      	uxth	r6, r2
 80053ba:	bf38      	it	cc
 80053bc:	4698      	movcc	r8, r3
 80053be:	2e08      	cmp	r6, #8
 80053c0:	f10b 0b04 	add.w	fp, fp, #4
 80053c4:	f104 04c0 	add.w	r4, r4, #192	; 0xc0
 80053c8:	d1c1      	bne.n	800534e <acc_calibration_a121_calibrate+0x7b6>
 80053ca:	9b05      	ldr	r3, [sp, #20]
 80053cc:	9e07      	ldr	r6, [sp, #28]
 80053ce:	ee17 4a90 	vmov	r4, s15
 80053d2:	2b00      	cmp	r3, #0
 80053d4:	f000 83ac 	beq.w	8005b30 <acc_calibration_a121_calibrate+0xf98>
 80053d8:	f8dd 3740 	ldr.w	r3, [sp, #1856]	; 0x740
 80053dc:	4891      	ldr	r0, [pc, #580]	; (8005624 <acc_calibration_a121_calibrate+0xa8c>)
 80053de:	4a92      	ldr	r2, [pc, #584]	; (8005628 <acc_calibration_a121_calibrate+0xa90>)
 80053e0:	4619      	mov	r1, r3
 80053e2:	2737      	movs	r7, #55	; 0x37
 80053e4:	9b04      	ldr	r3, [sp, #16]
 80053e6:	844b      	strh	r3, [r1, #34]	; 0x22
 80053e8:	9300      	str	r3, [sp, #0]
 80053ea:	4990      	ldr	r1, [pc, #576]	; (800562c <acc_calibration_a121_calibrate+0xa94>)
 80053ec:	f880 7024 	strb.w	r7, [r0, #36]	; 0x24
 80053f0:	230c      	movs	r3, #12
 80053f2:	ee17 0a90 	vmov	r0, s15
 80053f6:	f7fd fe55 	bl	80030a4 <acc_confprogram_live_patch.constprop.0>
 80053fa:	4620      	mov	r0, r4
 80053fc:	f240 31fd 	movw	r1, #1021	; 0x3fd
 8005400:	f7fc f968 	bl	80016d4 <acc_sensor_protocol_a121_run_program>
 8005404:	2800      	cmp	r0, #0
 8005406:	f000 81e1 	beq.w	80057cc <acc_calibration_a121_calibrate+0xc34>
 800540a:	9a0c      	ldr	r2, [sp, #48]	; 0x30
 800540c:	ed9f 6a88 	vldr	s12, [pc, #544]	; 8005630 <acc_calibration_a121_calibrate+0xa98>
 8005410:	f102 00c0 	add.w	r0, r2, #192	; 0xc0
 8005414:	4607      	mov	r7, r0
 8005416:	f502 6ed8 	add.w	lr, r2, #1728	; 0x6c0
 800541a:	46b4      	mov	ip, r6
 800541c:	eef7 6a00 	vmov.f32	s13, #112	; 0x3f800000  1.0
 8005420:	f1a7 03c0 	sub.w	r3, r7, #192	; 0xc0
 8005424:	f04f 0800 	mov.w	r8, #0
 8005428:	f9b3 4002 	ldrsh.w	r4, [r3, #2]
 800542c:	f9b3 1000 	ldrsh.w	r1, [r3]
 8005430:	fb04 f404 	mul.w	r4, r4, r4
 8005434:	3304      	adds	r3, #4
 8005436:	fb01 4101 	mla	r1, r1, r1, r4
 800543a:	429f      	cmp	r7, r3
 800543c:	4488      	add	r8, r1
 800543e:	d1f3      	bne.n	8005428 <acc_calibration_a121_calibrate+0x890>
 8005440:	ee07 8a90 	vmov	s15, r8
 8005444:	eeb8 7a67 	vcvt.f32.u32	s14, s15
 8005448:	37c0      	adds	r7, #192	; 0xc0
 800544a:	eec7 7a06 	vdiv.f32	s15, s14, s12
 800544e:	45be      	cmp	lr, r7
 8005450:	eeb1 7ae7 	vsqrt.f32	s14, s15
 8005454:	eec6 7a87 	vdiv.f32	s15, s13, s14
 8005458:	ecec 7a01 	vstmia	ip!, {s15}
 800545c:	d1e0      	bne.n	8005420 <acc_calibration_a121_calibrate+0x888>
 800545e:	9b03      	ldr	r3, [sp, #12]
 8005460:	f502 61c0 	add.w	r1, r2, #1536	; 0x600
 8005464:	e000      	b.n	8005468 <acc_calibration_a121_calibrate+0x8d0>
 8005466:	30c0      	adds	r0, #192	; 0xc0
 8005468:	f9b2 4000 	ldrsh.w	r4, [r2]
 800546c:	ecf6 5a01 	vldmia	r6!, {s11}
 8005470:	ee06 4a10 	vmov	s12, r4
 8005474:	f9b2 4002 	ldrsh.w	r4, [r2, #2]
 8005478:	ee06 4a90 	vmov	s13, r4
 800547c:	f9b2 4060 	ldrsh.w	r4, [r2, #96]	; 0x60
 8005480:	f9b2 2062 	ldrsh.w	r2, [r2, #98]	; 0x62
 8005484:	ee07 4a10 	vmov	s14, r4
 8005488:	ee07 2a90 	vmov	s15, r2
 800548c:	eeb8 6ac6 	vcvt.f32.s32	s12, s12
 8005490:	eef8 6ae6 	vcvt.f32.s32	s13, s13
 8005494:	eeb8 7ac7 	vcvt.f32.s32	s14, s14
 8005498:	eef8 7ae7 	vcvt.f32.s32	s15, s15
 800549c:	ee26 6a25 	vmul.f32	s12, s12, s11
 80054a0:	ee66 6aa5 	vmul.f32	s13, s13, s11
 80054a4:	ee67 7aa5 	vmul.f32	s15, s15, s11
 80054a8:	ee27 7a25 	vmul.f32	s14, s14, s11
 80054ac:	ee26 5a06 	vmul.f32	s10, s12, s12
 80054b0:	ee67 5a07 	vmul.f32	s11, s14, s14
 80054b4:	ee26 6a26 	vmul.f32	s12, s12, s13
 80054b8:	ee27 7a27 	vmul.f32	s14, s14, s15
 80054bc:	ee66 6aa6 	vmul.f32	s13, s13, s13
 80054c0:	ee67 7aa7 	vmul.f32	s15, s15, s15
 80054c4:	4281      	cmp	r1, r0
 80054c6:	ed83 5a00 	vstr	s10, [r3]
 80054ca:	ed83 6a01 	vstr	s12, [r3, #4]
 80054ce:	edc3 6a02 	vstr	s13, [r3, #8]
 80054d2:	edc3 5a18 	vstr	s11, [r3, #96]	; 0x60
 80054d6:	ed83 7a19 	vstr	s14, [r3, #100]	; 0x64
 80054da:	edc3 7a1a 	vstr	s15, [r3, #104]	; 0x68
 80054de:	4602      	mov	r2, r0
 80054e0:	f103 030c 	add.w	r3, r3, #12
 80054e4:	d1bf      	bne.n	8005466 <acc_calibration_a121_calibrate+0x8ce>
 80054e6:	9803      	ldr	r0, [sp, #12]
 80054e8:	a914      	add	r1, sp, #80	; 0x50
 80054ea:	2210      	movs	r2, #16
 80054ec:	f7fc f9cc 	bl	8001888 <least_sqr_fit>
 80054f0:	2800      	cmp	r0, #0
 80054f2:	f000 816b 	beq.w	80057cc <acc_calibration_a121_calibrate+0xc34>
 80054f6:	ed9d 6a14 	vldr	s12, [sp, #80]	; 0x50
 80054fa:	ed9d 5a15 	vldr	s10, [sp, #84]	; 0x54
 80054fe:	eddd 6a16 	vldr	s13, [sp, #88]	; 0x58
 8005502:	eddf 4a4c 	vldr	s9, [pc, #304]	; 8005634 <acc_calibration_a121_calibrate+0xa9c>
 8005506:	ed9f 4a4c 	vldr	s8, [pc, #304]	; 8005638 <acc_calibration_a121_calibrate+0xaa0>
 800550a:	eeb1 7ac6 	vsqrt.f32	s14, s12
 800550e:	eef1 7a00 	vmov.f32	s15, #16	; 0x40800000  4.0
 8005512:	ee26 6a27 	vmul.f32	s12, s12, s15
 8005516:	ee65 7a05 	vmul.f32	s15, s10, s10
 800551a:	ee26 6a26 	vmul.f32	s12, s12, s13
 800551e:	eef6 5a00 	vmov.f32	s11, #96	; 0x3f000000  0.5
 8005522:	ee36 6a67 	vsub.f32	s12, s12, s15
 8005526:	eec5 6a87 	vdiv.f32	s13, s11, s14
 800552a:	eef1 7ac6 	vsqrt.f32	s15, s12
 800552e:	eeb6 6a08 	vmov.f32	s12, #104	; 0x3f400000  0.750
 8005532:	ee37 7a46 	vsub.f32	s14, s14, s12
 8005536:	ee66 7aa7 	vmul.f32	s15, s13, s15
 800553a:	ee27 7a24 	vmul.f32	s14, s14, s9
 800553e:	ee66 6a85 	vmul.f32	s13, s13, s10
 8005542:	eeb7 5a00 	vmov.f32	s10, #112	; 0x3f800000  1.0
 8005546:	ee77 7ac6 	vsub.f32	s15, s15, s12
 800554a:	ee76 6a85 	vadd.f32	s13, s13, s10
 800554e:	ee37 7a25 	vadd.f32	s14, s14, s11
 8005552:	eeb3 6a0f 	vmov.f32	s12, #63	; 0x41f80000  31.0
 8005556:	ee66 6a84 	vmul.f32	s13, s13, s8
 800555a:	ee67 7aa4 	vmul.f32	s15, s15, s9
 800555e:	eeb4 7ac6 	vcmpe.f32	s14, s12
 8005562:	eef1 fa10 	vmrs	APSR_nzcv, fpscr
 8005566:	ee76 6aa5 	vadd.f32	s13, s13, s11
 800556a:	ee77 7aa5 	vadd.f32	s15, s15, s11
 800556e:	f300 819e 	bgt.w	80058ae <acc_calibration_a121_calibrate+0xd16>
 8005572:	eeb5 7ac0 	vcmpe.f32	s14, #0.0
 8005576:	eef1 fa10 	vmrs	APSR_nzcv, fpscr
 800557a:	bf48      	it	mi
 800557c:	2100      	movmi	r1, #0
 800557e:	f140 844f 	bpl.w	8005e20 <acc_calibration_a121_calibrate+0x1288>
 8005582:	ed9f 7a2e 	vldr	s14, [pc, #184]	; 800563c <acc_calibration_a121_calibrate+0xaa4>
 8005586:	eef4 6ac7 	vcmpe.f32	s13, s14
 800558a:	eef1 fa10 	vmrs	APSR_nzcv, fpscr
 800558e:	f340 8190 	ble.w	80058b2 <acc_calibration_a121_calibrate+0xd1a>
 8005592:	ea6f 5181 	mvn.w	r1, r1, lsl #22
 8005596:	ea6f 5191 	mvn.w	r1, r1, lsr #22
 800559a:	eeb3 7a0f 	vmov.f32	s14, #63	; 0x41f80000  31.0
 800559e:	eef4 7ac7 	vcmpe.f32	s15, s14
 80055a2:	eef1 fa10 	vmrs	APSR_nzcv, fpscr
 80055a6:	f300 817f 	bgt.w	80058a8 <acc_calibration_a121_calibrate+0xd10>
 80055aa:	eef5 7ac0 	vcmpe.f32	s15, #0.0
 80055ae:	eef1 fa10 	vmrs	APSR_nzcv, fpscr
 80055b2:	bf48      	it	mi
 80055b4:	2300      	movmi	r3, #0
 80055b6:	f140 843a 	bpl.w	8005e2e <acc_calibration_a121_calibrate+0x1296>
 80055ba:	f8dd 2740 	ldr.w	r2, [sp, #1856]	; 0x740
 80055be:	430b      	orrs	r3, r1
 80055c0:	f8a2 3056 	strh.w	r3, [r2, #86]	; 0x56
 80055c4:	f895 3028 	ldrb.w	r3, [r5, #40]	; 0x28
 80055c8:	2b03      	cmp	r3, #3
 80055ca:	f04f 0409 	mov.w	r4, #9
 80055ce:	f63f ab7b 	bhi.w	8004cc8 <acc_calibration_a121_calibrate+0x130>
 80055d2:	2001      	movs	r0, #1
 80055d4:	f7ff bb0c 	b.w	8004bf0 <acc_calibration_a121_calibrate+0x58>
 80055d8:	f7fc f934 	bl	8001844 <acc_a121_cal_session_ack_program>
 80055dc:	2800      	cmp	r0, #0
 80055de:	f43f aafd 	beq.w	8004bdc <acc_calibration_a121_calibrate+0x44>
 80055e2:	4659      	mov	r1, fp
 80055e4:	2310      	movs	r3, #16
 80055e6:	2200      	movs	r2, #0
 80055e8:	4620      	mov	r0, r4
 80055ea:	f7fd fd0b 	bl	8003004 <internal_buffer_processed_read.part.0.constprop.0>
 80055ee:	f8dd 3740 	ldr.w	r3, [sp, #1856]	; 0x740
 80055f2:	f8b3 6056 	ldrh.w	r6, [r3, #86]	; 0x56
 80055f6:	2100      	movs	r1, #0
 80055f8:	f006 0e1f 	and.w	lr, r6, #31
 80055fc:	f3c6 1c44 	ubfx	ip, r6, #5, #5
 8005600:	0ab6      	lsrs	r6, r6, #10
 8005602:	f100 0802 	add.w	r8, r0, #2
 8005606:	f10e 0e30 	add.w	lr, lr, #48	; 0x30
 800560a:	f10c 0c30 	add.w	ip, ip, #48	; 0x30
 800560e:	3e20      	subs	r6, #32
 8005610:	9103      	str	r1, [sp, #12]
 8005612:	468b      	mov	fp, r1
 8005614:	468a      	mov	sl, r1
 8005616:	460f      	mov	r7, r1
 8005618:	e01d      	b.n	8005656 <acc_calibration_a121_calibrate+0xabe>
 800561a:	bf00      	nop
 800561c:	200000ac 	.word	0x200000ac
 8005620:	10624dd3 	.word	0x10624dd3
 8005624:	20000000 	.word	0x20000000
 8005628:	0800c0a8 	.word	0x0800c0a8
 800562c:	0800ca6c 	.word	0x0800ca6c
 8005630:	42400000 	.word	0x42400000
 8005634:	42800000 	.word	0x42800000
 8005638:	42000000 	.word	0x42000000
 800563c:	427c0000 	.word	0x427c0000
 8005640:	000f4240 	.word	0x000f4240
 8005644:	455b      	cmp	r3, fp
 8005646:	4657      	mov	r7, sl
 8005648:	f200 815c 	bhi.w	8005904 <acc_calibration_a121_calibrate+0xd6c>
 800564c:	469a      	mov	sl, r3
 800564e:	3101      	adds	r1, #1
 8005650:	2908      	cmp	r1, #8
 8005652:	f000 815b 	beq.w	800590c <acc_calibration_a121_calibrate+0xd74>
 8005656:	f930 2021 	ldrsh.w	r2, [r0, r1, lsl #2]
 800565a:	f938 3021 	ldrsh.w	r3, [r8, r1, lsl #2]
 800565e:	fb0e f202 	mul.w	r2, lr, r2
 8005662:	fb03 f906 	mul.w	r9, r3, r6
 8005666:	2a00      	cmp	r2, #0
 8005668:	fb03 f30c 	mul.w	r3, r3, ip
 800566c:	bfb8      	it	lt
 800566e:	323f      	addlt	r2, #63	; 0x3f
 8005670:	f1b9 0f00 	cmp.w	r9, #0
 8005674:	bfb8      	it	lt
 8005676:	f109 091f 	addlt.w	r9, r9, #31
 800567a:	2b00      	cmp	r3, #0
 800567c:	bfb8      	it	lt
 800567e:	333f      	addlt	r3, #63	; 0x3f
 8005680:	1192      	asrs	r2, r2, #6
 8005682:	eb02 1269 	add.w	r2, r2, r9, asr #5
 8005686:	f343 138f 	sbfx	r3, r3, #6, #16
 800568a:	b212      	sxth	r2, r2
 800568c:	fb03 f303 	mul.w	r3, r3, r3
 8005690:	fb02 3302 	mla	r3, r2, r2, r3
 8005694:	42bb      	cmp	r3, r7
 8005696:	b28d      	uxth	r5, r1
 8005698:	d9d9      	bls.n	800564e <acc_calibration_a121_calibrate+0xab6>
 800569a:	4553      	cmp	r3, sl
 800569c:	d8d2      	bhi.n	8005644 <acc_calibration_a121_calibrate+0xaac>
 800569e:	461f      	mov	r7, r3
 80056a0:	e7d5      	b.n	800564e <acc_calibration_a121_calibrate+0xab6>
 80056a2:	f7fc f8cf 	bl	8001844 <acc_a121_cal_session_ack_program>
 80056a6:	2800      	cmp	r0, #0
 80056a8:	f43f aa98 	beq.w	8004bdc <acc_calibration_a121_calibrate+0x44>
 80056ac:	2360      	movs	r3, #96	; 0x60
 80056ae:	4659      	mov	r1, fp
 80056b0:	2200      	movs	r2, #0
 80056b2:	4620      	mov	r0, r4
 80056b4:	f7fd fca6 	bl	8003004 <internal_buffer_processed_read.part.0.constprop.0>
 80056b8:	ab44      	add	r3, sp, #272	; 0x110
 80056ba:	4605      	mov	r5, r0
 80056bc:	9303      	str	r3, [sp, #12]
 80056be:	1c87      	adds	r7, r0, #2
 80056c0:	4699      	mov	r9, r3
 80056c2:	f04f 0800 	mov.w	r8, #0
 80056c6:	f640 36b7 	movw	r6, #2999	; 0xbb7
 80056ca:	e007      	b.n	80056dc <acc_calibration_a121_calibrate+0xb44>
 80056cc:	f7fc f99e 	bl	8001a0c <acc_cal_algorithms_atan2_q16>
 80056d0:	f1b8 0f30 	cmp.w	r8, #48	; 0x30
 80056d4:	f849 0b04 	str.w	r0, [r9], #4
 80056d8:	f000 834b 	beq.w	8005d72 <acc_calibration_a121_calibrate+0x11da>
 80056dc:	f937 1028 	ldrsh.w	r1, [r7, r8, lsl #2]
 80056e0:	f935 0028 	ldrsh.w	r0, [r5, r8, lsl #2]
 80056e4:	fb01 f301 	mul.w	r3, r1, r1
 80056e8:	fb00 3300 	mla	r3, r0, r0, r3
 80056ec:	42b3      	cmp	r3, r6
 80056ee:	f108 0801 	add.w	r8, r8, #1
 80056f2:	dceb      	bgt.n	80056cc <acc_calibration_a121_calibrate+0xb34>
 80056f4:	f7ff ba72 	b.w	8004bdc <acc_calibration_a121_calibrate+0x44>
 80056f8:	f7fc f8a4 	bl	8001844 <acc_a121_cal_session_ack_program>
 80056fc:	2800      	cmp	r0, #0
 80056fe:	f43f aa6d 	beq.w	8004bdc <acc_calibration_a121_calibrate+0x44>
 8005702:	4659      	mov	r1, fp
 8005704:	aa0a      	add	r2, sp, #40	; 0x28
 8005706:	4620      	mov	r0, r4
 8005708:	f7fd fdb4 	bl	8003274 <acc_a121_cal_session_get_10_ps_wavelet_program_data>
 800570c:	ae0c      	add	r6, sp, #48	; 0x30
 800570e:	9f0a      	ldr	r7, [sp, #40]	; 0x28
 8005710:	2500      	movs	r5, #0
 8005712:	e9cd 6500 	strd	r6, r5, [sp]
 8005716:	4638      	mov	r0, r7
 8005718:	ab0b      	add	r3, sp, #44	; 0x2c
 800571a:	aa44      	add	r2, sp, #272	; 0x110
 800571c:	f44f 7190 	mov.w	r1, #288	; 0x120
 8005720:	6035      	str	r5, [r6, #0]
 8005722:	950b      	str	r5, [sp, #44]	; 0x2c
 8005724:	9514      	str	r5, [sp, #80]	; 0x50
 8005726:	952c      	str	r5, [sp, #176]	; 0xb0
 8005728:	f7fa ffe0 	bl	80006ec <acc_cal_algorithms_calc_pulse_params.constprop.0>
 800572c:	2800      	cmp	r0, #0
 800572e:	f43f aa55 	beq.w	8004bdc <acc_calibration_a121_calibrate+0x44>
 8005732:	ab2c      	add	r3, sp, #176	; 0xb0
 8005734:	9300      	str	r3, [sp, #0]
 8005736:	9501      	str	r5, [sp, #4]
 8005738:	ab14      	add	r3, sp, #80	; 0x50
 800573a:	aa44      	add	r2, sp, #272	; 0x110
 800573c:	f507 7010 	add.w	r0, r7, #576	; 0x240
 8005740:	f44f 71f0 	mov.w	r1, #480	; 0x1e0
 8005744:	f7fa ffd2 	bl	80006ec <acc_cal_algorithms_calc_pulse_params.constprop.0>
 8005748:	2800      	cmp	r0, #0
 800574a:	f43f aa47 	beq.w	8004bdc <acc_calibration_a121_calibrate+0x44>
 800574e:	6836      	ldr	r6, [r6, #0]
 8005750:	982c      	ldr	r0, [sp, #176]	; 0xb0
 8005752:	4bdc      	ldr	r3, [pc, #880]	; (8005ac4 <acc_calibration_a121_calibrate+0xf2c>)
 8005754:	9a0b      	ldr	r2, [sp, #44]	; 0x2c
 8005756:	4ddc      	ldr	r5, [pc, #880]	; (8005ac8 <acc_calibration_a121_calibrate+0xf30>)
 8005758:	1b80      	subs	r0, r0, r6
 800575a:	f248 5155 	movw	r1, #34133	; 0x8555
 800575e:	fb03 f300 	mul.w	r3, r3, r0
 8005762:	fb01 f606 	mul.w	r6, r1, r6
 8005766:	fb01 f202 	mul.w	r2, r1, r2
 800576a:	0c1b      	lsrs	r3, r3, #16
 800576c:	fb01 f100 	mul.w	r1, r1, r0
 8005770:	4620      	mov	r0, r4
 8005772:	f8dd 4740 	ldr.w	r4, [sp, #1856]	; 0x740
 8005776:	ebc3 3356 	rsb	r3, r3, r6, lsr #13
 800577a:	0b52      	lsrs	r2, r2, #13
 800577c:	e9c4 1217 	strd	r1, r2, [r4, #92]	; 0x5c
 8005780:	65a3      	str	r3, [r4, #88]	; 0x58
 8005782:	f44f 6192 	mov.w	r1, #1168	; 0x490
 8005786:	f7fb ffa5 	bl	80016d4 <acc_sensor_protocol_a121_run_program>
 800578a:	240c      	movs	r4, #12
 800578c:	f7ff ba94 	b.w	8004cb8 <acc_calibration_a121_calibrate+0x120>
 8005790:	f7fc f858 	bl	8001844 <acc_a121_cal_session_ack_program>
 8005794:	2800      	cmp	r0, #0
 8005796:	f43f aa21 	beq.w	8004bdc <acc_calibration_a121_calibrate+0x44>
 800579a:	4659      	mov	r1, fp
 800579c:	4620      	mov	r0, r4
 800579e:	f44f 63d8 	mov.w	r3, #1728	; 0x6c0
 80057a2:	2200      	movs	r2, #0
 80057a4:	f7fd fc2e 	bl	8003004 <internal_buffer_processed_read.part.0.constprop.0>
 80057a8:	f04f 0900 	mov.w	r9, #0
 80057ac:	f10d 082c 	add.w	r8, sp, #44	; 0x2c
 80057b0:	4604      	mov	r4, r0
 80057b2:	e9cd 8900 	strd	r8, r9, [sp]
 80057b6:	3002      	adds	r0, #2
 80057b8:	ab0a      	add	r3, sp, #40	; 0x28
 80057ba:	aa44      	add	r2, sp, #272	; 0x110
 80057bc:	f240 213f 	movw	r1, #575	; 0x23f
 80057c0:	f7fa ff94 	bl	80006ec <acc_cal_algorithms_calc_pulse_params.constprop.0>
 80057c4:	2800      	cmp	r0, #0
 80057c6:	f040 8277 	bne.w	8005cb8 <acc_calibration_a121_calibrate+0x1120>
 80057ca:	4dbf      	ldr	r5, [pc, #764]	; (8005ac8 <acc_calibration_a121_calibrate+0xf30>)
 80057cc:	9b02      	ldr	r3, [sp, #8]
 80057ce:	781b      	ldrb	r3, [r3, #0]
 80057d0:	f7ff ba07 	b.w	8004be2 <acc_calibration_a121_calibrate+0x4a>
 80057d4:	ed9f 7abd 	vldr	s14, [pc, #756]	; 8005acc <acc_calibration_a121_calibrate+0xf34>
 80057d8:	eddf 6abd 	vldr	s13, [pc, #756]	; 8005ad0 <acc_calibration_a121_calibrate+0xf38>
 80057dc:	4bbd      	ldr	r3, [pc, #756]	; (8005ad4 <acc_calibration_a121_calibrate+0xf3c>)
 80057de:	4abe      	ldr	r2, [pc, #760]	; (8005ad8 <acc_calibration_a121_calibrate+0xf40>)
 80057e0:	49be      	ldr	r1, [pc, #760]	; (8005adc <acc_calibration_a121_calibrate+0xf44>)
 80057e2:	ee77 7a87 	vadd.f32	s15, s15, s14
 80057e6:	2000      	movs	r0, #0
 80057e8:	ee37 7a87 	vadd.f32	s14, s15, s14
 80057ec:	eebc 6ae7 	vcvt.u32.f32	s12, s15
 80057f0:	eebc 7ac7 	vcvt.u32.f32	s14, s14
 80057f4:	ed8d 6a00 	vstr	s12, [sp]
 80057f8:	eeb8 7a47 	vcvt.f32.u32	s14, s14
 80057fc:	3f10      	subs	r7, #16
 80057fe:	ee77 7ac7 	vsub.f32	s15, s15, s14
 8005802:	ee16 8a10 	vmov	r8, s12
 8005806:	ee67 7aa6 	vmul.f32	s15, s15, s13
 800580a:	eefc 7ae7 	vcvt.u32.f32	s15, s15
 800580e:	edcd 7a01 	vstr	s15, [sp, #4]
 8005812:	6bec      	ldr	r4, [r5, #60]	; 0x3c
 8005814:	ee17 6a90 	vmov	r6, s15
 8005818:	47a0      	blx	r4
 800581a:	2fef      	cmp	r7, #239	; 0xef
 800581c:	f63f aa36 	bhi.w	8004c8c <acc_calibration_a121_calibrate+0xf4>
 8005820:	e7d4      	b.n	80057cc <acc_calibration_a121_calibrate+0xc34>
 8005822:	f503 23c9 	add.w	r3, r3, #411648	; 0x64800
 8005826:	337e      	adds	r3, #126	; 0x7e
 8005828:	4543      	cmp	r3, r8
 800582a:	dbfa      	blt.n	8005822 <acc_calibration_a121_calibrate+0xc8a>
 800582c:	e478      	b.n	8005120 <acc_calibration_a121_calibrate+0x588>
 800582e:	4659      	mov	r1, fp
 8005830:	2200      	movs	r2, #0
 8005832:	2320      	movs	r3, #32
 8005834:	4620      	mov	r0, r4
 8005836:	f7fd fbe5 	bl	8003004 <internal_buffer_processed_read.part.0.constprop.0>
 800583a:	f9b0 2000 	ldrsh.w	r2, [r0]
 800583e:	4605      	mov	r5, r0
 8005840:	2101      	movs	r1, #1
 8005842:	4616      	mov	r6, r2
 8005844:	2700      	movs	r7, #0
 8005846:	e009      	b.n	800585c <acc_calibration_a121_calibrate+0xcc4>
 8005848:	42b2      	cmp	r2, r6
 800584a:	bfa8      	it	ge
 800584c:	460f      	movge	r7, r1
 800584e:	f101 0101 	add.w	r1, r1, #1
 8005852:	bfa8      	it	ge
 8005854:	4616      	movge	r6, r2
 8005856:	2920      	cmp	r1, #32
 8005858:	f000 8198 	beq.w	8005b8c <acc_calibration_a121_calibrate+0xff4>
 800585c:	4613      	mov	r3, r2
 800585e:	f935 2f02 	ldrsh.w	r2, [r5, #2]!
 8005862:	f5c3 7316 	rsb	r3, r3, #600	; 0x258
 8005866:	4413      	add	r3, r2
 8005868:	b29b      	uxth	r3, r3
 800586a:	f5b3 6f96 	cmp.w	r3, #1200	; 0x4b0
 800586e:	d9eb      	bls.n	8005848 <acc_calibration_a121_calibrate+0xcb0>
 8005870:	f7ff b9b4 	b.w	8004bdc <acc_calibration_a121_calibrate+0x44>
 8005874:	280b      	cmp	r0, #11
 8005876:	f63f aca0 	bhi.w	80051ba <acc_calibration_a121_calibrate+0x622>
 800587a:	3301      	adds	r3, #1
 800587c:	2b30      	cmp	r3, #48	; 0x30
 800587e:	f43f a9ad 	beq.w	8004bdc <acc_calibration_a121_calibrate+0x44>
 8005882:	4610      	mov	r0, r2
 8005884:	1e5a      	subs	r2, r3, #1
 8005886:	4432      	add	r2, r6
 8005888:	1c59      	adds	r1, r3, #1
 800588a:	f812 5f01 	ldrb.w	r5, [r2, #1]!
 800588e:	1e4b      	subs	r3, r1, #1
 8005890:	b12d      	cbz	r5, 800589e <acc_calibration_a121_calibrate+0xd06>
 8005892:	f812 5c01 	ldrb.w	r5, [r2, #-1]
 8005896:	b915      	cbnz	r5, 800589e <acc_calibration_a121_calibrate+0xd06>
 8005898:	4619      	mov	r1, r3
 800589a:	2001      	movs	r0, #1
 800589c:	e48a      	b.n	80051b4 <acc_calibration_a121_calibrate+0x61c>
 800589e:	2930      	cmp	r1, #48	; 0x30
 80058a0:	f000 82b3 	beq.w	8005e0a <acc_calibration_a121_calibrate+0x1272>
 80058a4:	3101      	adds	r1, #1
 80058a6:	e7f0      	b.n	800588a <acc_calibration_a121_calibrate+0xcf2>
 80058a8:	f44f 7378 	mov.w	r3, #992	; 0x3e0
 80058ac:	e685      	b.n	80055ba <acc_calibration_a121_calibrate+0xa22>
 80058ae:	211f      	movs	r1, #31
 80058b0:	e667      	b.n	8005582 <acc_calibration_a121_calibrate+0x9ea>
 80058b2:	eef5 6ac0 	vcmpe.f32	s13, #0.0
 80058b6:	eef1 fa10 	vmrs	APSR_nzcv, fpscr
 80058ba:	f53f ae6e 	bmi.w	800559a <acc_calibration_a121_calibrate+0xa02>
 80058be:	eefc 6ae6 	vcvt.u32.f32	s13, s13
 80058c2:	ee16 3a90 	vmov	r3, s13
 80058c6:	b29b      	uxth	r3, r3
 80058c8:	ea41 2383 	orr.w	r3, r1, r3, lsl #10
 80058cc:	b219      	sxth	r1, r3
 80058ce:	e664      	b.n	800559a <acc_calibration_a121_calibrate+0xa02>
 80058d0:	4240      	negs	r0, r0
 80058d2:	0980      	lsrs	r0, r0, #6
 80058d4:	f640 5394 	movw	r3, #3476	; 0xd94
 80058d8:	fb03 f000 	mul.w	r0, r3, r0
 80058dc:	0d40      	lsrs	r0, r0, #21
 80058de:	fb07 f000 	mul.w	r0, r7, r0
 80058e2:	eba9 2010 	sub.w	r0, r9, r0, lsr #8
 80058e6:	f8cb 0000 	str.w	r0, [fp]
 80058ea:	e54f      	b.n	800538c <acc_calibration_a121_calibrate+0x7f4>
 80058ec:	f1ce 0e00 	rsb	lr, lr, #0
 80058f0:	fa1f fe8e 	uxth.w	lr, lr
 80058f4:	f1be 0f1f 	cmp.w	lr, #31
 80058f8:	f63f a970 	bhi.w	8004bdc <acc_calibration_a121_calibrate+0x44>
 80058fc:	f04e 0e20 	orr.w	lr, lr, #32
 8005900:	f7ff bb7b 	b.w	8004ffa <acc_calibration_a121_calibrate+0x462>
 8005904:	46da      	mov	sl, fp
 8005906:	9503      	str	r5, [sp, #12]
 8005908:	469b      	mov	fp, r3
 800590a:	e6a0      	b.n	800564e <acc_calibration_a121_calibrate+0xab6>
 800590c:	ebb7 0f9b 	cmp.w	r7, fp, lsr #2
 8005910:	f4bf a964 	bcs.w	8004bdc <acc_calibration_a121_calibrate+0x44>
 8005914:	f8dd 3740 	ldr.w	r3, [sp, #1856]	; 0x740
 8005918:	4a71      	ldr	r2, [pc, #452]	; (8005ae0 <acc_calibration_a121_calibrate+0xf48>)
 800591a:	4d6b      	ldr	r5, [pc, #428]	; (8005ac8 <acc_calibration_a121_calibrate+0xf30>)
 800591c:	4619      	mov	r1, r3
 800591e:	9b03      	ldr	r3, [sp, #12]
 8005920:	840b      	strh	r3, [r1, #32]
 8005922:	4620      	mov	r0, r4
 8005924:	496f      	ldr	r1, [pc, #444]	; (8005ae4 <acc_calibration_a121_calibrate+0xf4c>)
 8005926:	9300      	str	r3, [sp, #0]
 8005928:	230b      	movs	r3, #11
 800592a:	f7fd fbbb 	bl	80030a4 <acc_confprogram_live_patch.constprop.0>
 800592e:	2300      	movs	r3, #0
 8005930:	4a6b      	ldr	r2, [pc, #428]	; (8005ae0 <acc_calibration_a121_calibrate+0xf48>)
 8005932:	496c      	ldr	r1, [pc, #432]	; (8005ae4 <acc_calibration_a121_calibrate+0xf4c>)
 8005934:	9300      	str	r3, [sp, #0]
 8005936:	4620      	mov	r0, r4
 8005938:	2309      	movs	r3, #9
 800593a:	f7fd fbb3 	bl	80030a4 <acc_confprogram_live_patch.constprop.0>
 800593e:	237e      	movs	r3, #126	; 0x7e
 8005940:	4a67      	ldr	r2, [pc, #412]	; (8005ae0 <acc_calibration_a121_calibrate+0xf48>)
 8005942:	4968      	ldr	r1, [pc, #416]	; (8005ae4 <acc_calibration_a121_calibrate+0xf4c>)
 8005944:	9300      	str	r3, [sp, #0]
 8005946:	4620      	mov	r0, r4
 8005948:	230a      	movs	r3, #10
 800594a:	f7fd fbab 	bl	80030a4 <acc_confprogram_live_patch.constprop.0>
 800594e:	4620      	mov	r0, r4
 8005950:	f240 4137 	movw	r1, #1079	; 0x437
 8005954:	f7fb febe 	bl	80016d4 <acc_sensor_protocol_a121_run_program>
 8005958:	240a      	movs	r4, #10
 800595a:	f7ff b9ad 	b.w	8004cb8 <acc_calibration_a121_calibrate+0x120>
 800595e:	ee77 7ac7 	vsub.f32	s15, s15, s14
 8005962:	eddf 6a61 	vldr	s13, [pc, #388]	; 8005ae8 <acc_calibration_a121_calibrate+0xf50>
 8005966:	ed9f 7a61 	vldr	s14, [pc, #388]	; 8005aec <acc_calibration_a121_calibrate+0xf54>
 800596a:	f8dd 2740 	ldr.w	r2, [sp, #1856]	; 0x740
 800596e:	ee67 7aa6 	vmul.f32	s15, s15, s13
 8005972:	2f3f      	cmp	r7, #63	; 0x3f
 8005974:	ee77 7a87 	vadd.f32	s15, s15, s14
 8005978:	eefc 7ae7 	vcvt.u32.f32	s15, s15
 800597c:	ee17 1a90 	vmov	r1, s15
 8005980:	f8a2 1084 	strh.w	r1, [r2, #132]	; 0x84
 8005984:	f200 817f 	bhi.w	8005c86 <acc_calibration_a121_calibrate+0x10ee>
 8005988:	f8dd 1740 	ldr.w	r1, [sp, #1856]	; 0x740
 800598c:	2200      	movs	r2, #0
 800598e:	2f2f      	cmp	r7, #47	; 0x2f
 8005990:	bf88      	it	hi
 8005992:	463b      	movhi	r3, r7
 8005994:	f8a1 3080 	strh.w	r3, [r1, #128]	; 0x80
 8005998:	f8a1 207e 	strh.w	r2, [r1, #126]	; 0x7e
 800599c:	f8a1 2082 	strh.w	r2, [r1, #130]	; 0x82
 80059a0:	f8dd 2740 	ldr.w	r2, [sp, #1856]	; 0x740
 80059a4:	ab44      	add	r3, sp, #272	; 0x110
 80059a6:	ae2c      	add	r6, sp, #176	; 0xb0
 80059a8:	f8a2 707c 	strh.w	r7, [r2, #124]	; 0x7c
 80059ac:	f04f 0800 	mov.w	r8, #0
 80059b0:	4658      	mov	r0, fp
 80059b2:	4649      	mov	r1, r9
 80059b4:	4632      	mov	r2, r6
 80059b6:	9303      	str	r3, [sp, #12]
 80059b8:	f8c6 8000 	str.w	r8, [r6]
 80059bc:	f8c3 8000 	str.w	r8, [r3]
 80059c0:	f7fb fbfa 	bl	80011b8 <acc_sensor_a121_prepare_load_confmem>
 80059c4:	4620      	mov	r0, r4
 80059c6:	f7fb fec1 	bl	800174c <acc_sensor_protocol_a121_prepare_load>
 80059ca:	2800      	cmp	r0, #0
 80059cc:	f43f aefe 	beq.w	80057cc <acc_calibration_a121_calibrate+0xc34>
 80059d0:	9b03      	ldr	r3, [sp, #12]
 80059d2:	f8cd b010 	str.w	fp, [sp, #16]
 80059d6:	681b      	ldr	r3, [r3, #0]
 80059d8:	f8df a104 	ldr.w	sl, [pc, #260]	; 8005ae0 <acc_calibration_a121_calibrate+0xf48>
 80059dc:	46b3      	mov	fp, r6
 80059de:	ee08 4a10 	vmov	s16, r4
 80059e2:	f8dd 6740 	ldr.w	r6, [sp, #1856]	; 0x740
 80059e6:	f8db 7000 	ldr.w	r7, [fp]
 80059ea:	f5c8 642f 	rsb	r4, r8, #2800	; 0xaf0
 80059ee:	340c      	adds	r4, #12
 80059f0:	42a3      	cmp	r3, r4
 80059f2:	bf98      	it	ls
 80059f4:	b29c      	uxthls	r4, r3
 80059f6:	4b3b      	ldr	r3, [pc, #236]	; (8005ae4 <acc_calibration_a121_calibrate+0xf4c>)
 80059f8:	bf88      	it	hi
 80059fa:	b2a4      	uxthhi	r4, r4
 80059fc:	ea4f 0958 	mov.w	r9, r8, lsr #1
 8005a00:	eb03 0089 	add.w	r0, r3, r9, lsl #2
 8005a04:	0862      	lsrs	r2, r4, #1
 8005a06:	4639      	mov	r1, r7
 8005a08:	f7fb f962 	bl	8000cd0 <acc_confprogram_copy>
 8005a0c:	f8b6 307e 	ldrh.w	r3, [r6, #126]	; 0x7e
 8005a10:	221c      	movs	r2, #28
 8005a12:	e9cd 2300 	strd	r2, r3, [sp]
 8005a16:	4641      	mov	r1, r8
 8005a18:	4653      	mov	r3, sl
 8005a1a:	4622      	mov	r2, r4
 8005a1c:	4638      	mov	r0, r7
 8005a1e:	f7fb f9a1 	bl	8000d64 <acc_confprogram_patch_offset>
 8005a22:	2800      	cmp	r0, #0
 8005a24:	f43f aed2 	beq.w	80057cc <acc_calibration_a121_calibrate+0xc34>
 8005a28:	f8b6 2080 	ldrh.w	r2, [r6, #128]	; 0x80
 8005a2c:	231a      	movs	r3, #26
 8005a2e:	e9cd 3200 	strd	r3, r2, [sp]
 8005a32:	4641      	mov	r1, r8
 8005a34:	4653      	mov	r3, sl
 8005a36:	4622      	mov	r2, r4
 8005a38:	4638      	mov	r0, r7
 8005a3a:	f7fb f993 	bl	8000d64 <acc_confprogram_patch_offset>
 8005a3e:	4686      	mov	lr, r0
 8005a40:	f04f 0c1b 	mov.w	ip, #27
 8005a44:	4641      	mov	r1, r8
 8005a46:	4653      	mov	r3, sl
 8005a48:	4622      	mov	r2, r4
 8005a4a:	4638      	mov	r0, r7
 8005a4c:	f1be 0f00 	cmp.w	lr, #0
 8005a50:	f43f aebc 	beq.w	80057cc <acc_calibration_a121_calibrate+0xc34>
 8005a54:	f8cd c000 	str.w	ip, [sp]
 8005a58:	f8b6 c082 	ldrh.w	ip, [r6, #130]	; 0x82
 8005a5c:	f8cd c004 	str.w	ip, [sp, #4]
 8005a60:	f7fb f980 	bl	8000d64 <acc_confprogram_patch_offset>
 8005a64:	4686      	mov	lr, r0
 8005a66:	f04f 0c19 	mov.w	ip, #25
 8005a6a:	4641      	mov	r1, r8
 8005a6c:	4653      	mov	r3, sl
 8005a6e:	4622      	mov	r2, r4
 8005a70:	4638      	mov	r0, r7
 8005a72:	f1be 0f00 	cmp.w	lr, #0
 8005a76:	f43f aea9 	beq.w	80057cc <acc_calibration_a121_calibrate+0xc34>
 8005a7a:	f8cd c000 	str.w	ip, [sp]
 8005a7e:	f8b6 7084 	ldrh.w	r7, [r6, #132]	; 0x84
 8005a82:	9701      	str	r7, [sp, #4]
 8005a84:	f7fb f96e 	bl	8000d64 <acc_confprogram_patch_offset>
 8005a88:	4607      	mov	r7, r0
 8005a8a:	9a04      	ldr	r2, [sp, #16]
 8005a8c:	ee18 0a10 	vmov	r0, s16
 8005a90:	4623      	mov	r3, r4
 8005a92:	4649      	mov	r1, r9
 8005a94:	2f00      	cmp	r7, #0
 8005a96:	f43f ae99 	beq.w	80057cc <acc_calibration_a121_calibrate+0xc34>
 8005a9a:	f7fb fe99 	bl	80017d0 <acc_sensor_a121_load_confmem>
 8005a9e:	9b03      	ldr	r3, [sp, #12]
 8005aa0:	681b      	ldr	r3, [r3, #0]
 8005aa2:	4498      	add	r8, r3
 8005aa4:	fa1f f888 	uxth.w	r8, r8
 8005aa8:	f640 22fb 	movw	r2, #2811	; 0xafb
 8005aac:	4590      	cmp	r8, r2
 8005aae:	d99a      	bls.n	80059e6 <acc_calibration_a121_calibrate+0xe4e>
 8005ab0:	ee18 0a10 	vmov	r0, s16
 8005ab4:	f240 1145 	movw	r1, #325	; 0x145
 8005ab8:	f7fb fe0c 	bl	80016d4 <acc_sensor_protocol_a121_run_program>
 8005abc:	2401      	movs	r4, #1
 8005abe:	f7ff b8fb 	b.w	8004cb8 <acc_calibration_a121_calibrate+0x120>
 8005ac2:	bf00      	nop
 8005ac4:	00021554 	.word	0x00021554
 8005ac8:	200000ac 	.word	0x200000ac
 8005acc:	350637bd 	.word	0x350637bd
 8005ad0:	49742400 	.word	0x49742400
 8005ad4:	08010288 	.word	0x08010288
 8005ad8:	0801015c 	.word	0x0801015c
 8005adc:	08010188 	.word	0x08010188
 8005ae0:	0800c0a8 	.word	0x0800c0a8
 8005ae4:	0800ca6c 	.word	0x0800ca6c
 8005ae8:	b55b38e8 	.word	0xb55b38e8
 8005aec:	427c0000 	.word	0x427c0000
 8005af0:	ee17 4a90 	vmov	r4, s15
 8005af4:	2d00      	cmp	r5, #0
 8005af6:	f43f a871 	beq.w	8004bdc <acc_calibration_a121_calibrate+0x44>
 8005afa:	f8dd 3740 	ldr.w	r3, [sp, #1856]	; 0x740
 8005afe:	4ad0      	ldr	r2, [pc, #832]	; (8005e40 <acc_calibration_a121_calibrate+0x12a8>)
 8005b00:	49d0      	ldr	r1, [pc, #832]	; (8005e44 <acc_calibration_a121_calibrate+0x12ac>)
 8005b02:	4dd1      	ldr	r5, [pc, #836]	; (8005e48 <acc_calibration_a121_calibrate+0x12b0>)
 8005b04:	f087 0730 	eor.w	r7, r7, #48	; 0x30
 8005b08:	809f      	strh	r7, [r3, #4]
 8005b0a:	ee17 0a90 	vmov	r0, s15
 8005b0e:	2324      	movs	r3, #36	; 0x24
 8005b10:	9700      	str	r7, [sp, #0]
 8005b12:	f7fd fac7 	bl	80030a4 <acc_confprogram_live_patch.constprop.0>
 8005b16:	4620      	mov	r0, r4
 8005b18:	f240 2147 	movw	r1, #583	; 0x247
 8005b1c:	f7fb fdda 	bl	80016d4 <acc_sensor_protocol_a121_run_program>
 8005b20:	2404      	movs	r4, #4
 8005b22:	f7ff b8c9 	b.w	8004cb8 <acc_calibration_a121_calibrate+0x120>
 8005b26:	459c      	cmp	ip, r3
 8005b28:	f47f aa5d 	bne.w	8004fe6 <acc_calibration_a121_calibrate+0x44e>
 8005b2c:	f7ff b856 	b.w	8004bdc <acc_calibration_a121_calibrate+0x44>
 8005b30:	4bc6      	ldr	r3, [pc, #792]	; (8005e4c <acc_calibration_a121_calibrate+0x12b4>)
 8005b32:	2237      	movs	r2, #55	; 0x37
 8005b34:	f883 2024 	strb.w	r2, [r3, #36]	; 0x24
 8005b38:	e648      	b.n	80057cc <acc_calibration_a121_calibrate+0xc34>
 8005b3a:	4625      	mov	r5, r4
 8005b3c:	e9dd b903 	ldrd	fp, r9, [sp, #12]
 8005b40:	ee17 4a90 	vmov	r4, s15
 8005b44:	f1b8 0f00 	cmp.w	r8, #0
 8005b48:	f43f a848 	beq.w	8004bdc <acc_calibration_a121_calibrate+0x44>
 8005b4c:	f8dd 2740 	ldr.w	r2, [sp, #1856]	; 0x740
 8005b50:	2301      	movs	r3, #1
 8005b52:	f44f 507e 	mov.w	r0, #16256	; 0x3f80
 8005b56:	8155      	strh	r5, [r2, #10]
 8005b58:	4659      	mov	r1, fp
 8005b5a:	464a      	mov	r2, r9
 8005b5c:	9300      	str	r3, [sp, #0]
 8005b5e:	f8ad 0110 	strh.w	r0, [sp, #272]	; 0x110
 8005b62:	ab44      	add	r3, sp, #272	; 0x110
 8005b64:	ee17 0a90 	vmov	r0, s15
 8005b68:	f7fd fa1a 	bl	8002fa0 <acc_sensor_a121_lut_buffer_write.constprop.0>
 8005b6c:	4ab4      	ldr	r2, [pc, #720]	; (8005e40 <acc_calibration_a121_calibrate+0x12a8>)
 8005b6e:	49b5      	ldr	r1, [pc, #724]	; (8005e44 <acc_calibration_a121_calibrate+0x12ac>)
 8005b70:	9500      	str	r5, [sp, #0]
 8005b72:	2326      	movs	r3, #38	; 0x26
 8005b74:	4620      	mov	r0, r4
 8005b76:	f7fd fa95 	bl	80030a4 <acc_confprogram_live_patch.constprop.0>
 8005b7a:	4620      	mov	r0, r4
 8005b7c:	f240 21b2 	movw	r1, #690	; 0x2b2
 8005b80:	f7fb fda8 	bl	80016d4 <acc_sensor_protocol_a121_run_program>
 8005b84:	4db0      	ldr	r5, [pc, #704]	; (8005e48 <acc_calibration_a121_calibrate+0x12b0>)
 8005b86:	2405      	movs	r4, #5
 8005b88:	f7ff b896 	b.w	8004cb8 <acc_calibration_a121_calibrate+0x120>
 8005b8c:	2f07      	cmp	r7, #7
 8005b8e:	f200 8134 	bhi.w	8005dfa <acc_calibration_a121_calibrate+0x1262>
 8005b92:	2300      	movs	r3, #0
 8005b94:	f107 0208 	add.w	r2, r7, #8
 8005b98:	1ad2      	subs	r2, r2, r3
 8005b9a:	2a00      	cmp	r2, #0
 8005b9c:	f000 813d 	beq.w	8005e1a <acc_calibration_a121_calibrate+0x1282>
 8005ba0:	a944      	add	r1, sp, #272	; 0x110
 8005ba2:	18d5      	adds	r5, r2, r3
 8005ba4:	eb00 0545 	add.w	r5, r0, r5, lsl #1
 8005ba8:	9103      	str	r1, [sp, #12]
 8005baa:	eb00 0043 	add.w	r0, r0, r3, lsl #1
 8005bae:	f930 6b02 	ldrsh.w	r6, [r0], #2
 8005bb2:	ee07 6a10 	vmov	s14, r6
 8005bb6:	fb03 f603 	mul.w	r6, r3, r3
 8005bba:	ee06 3a90 	vmov	s13, r3
 8005bbe:	ee07 6a90 	vmov	s15, r6
 8005bc2:	eeb8 7ac7 	vcvt.f32.s32	s14, s14
 8005bc6:	eef8 7a67 	vcvt.f32.u32	s15, s15
 8005bca:	eef8 6a66 	vcvt.f32.u32	s13, s13
 8005bce:	4285      	cmp	r5, r0
 8005bd0:	ed81 7a00 	vstr	s14, [r1]
 8005bd4:	edc1 7a01 	vstr	s15, [r1, #4]
 8005bd8:	edc1 6a02 	vstr	s13, [r1, #8]
 8005bdc:	f103 0301 	add.w	r3, r3, #1
 8005be0:	f101 010c 	add.w	r1, r1, #12
 8005be4:	d1e3      	bne.n	8005bae <acc_calibration_a121_calibrate+0x1016>
 8005be6:	9803      	ldr	r0, [sp, #12]
 8005be8:	a92c      	add	r1, sp, #176	; 0xb0
 8005bea:	f7fb fe4d 	bl	8001888 <least_sqr_fit>
 8005bee:	2800      	cmp	r0, #0
 8005bf0:	f43e aff4 	beq.w	8004bdc <acc_calibration_a121_calibrate+0x44>
 8005bf4:	ed9d 6a2c 	vldr	s12, [sp, #176]	; 0xb0
 8005bf8:	eeb5 6a40 	vcmp.f32	s12, #0.0
 8005bfc:	eef1 fa10 	vmrs	APSR_nzcv, fpscr
 8005c00:	f43e afec 	beq.w	8004bdc <acc_calibration_a121_calibrate+0x44>
 8005c04:	eddd 6a2d 	vldr	s13, [sp, #180]	; 0xb4
 8005c08:	eef5 6a40 	vcmp.f32	s13, #0.0
 8005c0c:	eef1 fa10 	vmrs	APSR_nzcv, fpscr
 8005c10:	f43e afe4 	beq.w	8004bdc <acc_calibration_a121_calibrate+0x44>
 8005c14:	ed9d 7a2e 	vldr	s14, [sp, #184]	; 0xb8
 8005c18:	eeb1 7a47 	vneg.f32	s14, s14
 8005c1c:	eec7 7a26 	vdiv.f32	s15, s14, s13
 8005c20:	eef5 7ac0 	vcmpe.f32	s15, #0.0
 8005c24:	eef1 fa10 	vmrs	APSR_nzcv, fpscr
 8005c28:	f6fe afd8 	blt.w	8004bdc <acc_calibration_a121_calibrate+0x44>
 8005c2c:	eef1 6a66 	vneg.f32	s13, s13
 8005c30:	ee86 7a86 	vdiv.f32	s14, s13, s12
 8005c34:	eeb5 7ac0 	vcmpe.f32	s14, #0.0
 8005c38:	eef1 fa10 	vmrs	APSR_nzcv, fpscr
 8005c3c:	f57e afce 	bpl.w	8004bdc <acc_calibration_a121_calibrate+0x44>
 8005c40:	eeb7 7a00 	vmov.f32	s14, #112	; 0x3f800000  1.0
 8005c44:	ee77 7a87 	vadd.f32	s15, s15, s14
 8005c48:	eefc 7ae7 	vcvt.u32.f32	s15, s15
 8005c4c:	ee17 3a90 	vmov	r3, s15
 8005c50:	b29a      	uxth	r2, r3
 8005c52:	2a3f      	cmp	r2, #63	; 0x3f
 8005c54:	f3c3 034e 	ubfx	r3, r3, #1, #15
 8005c58:	f63e afc0 	bhi.w	8004bdc <acc_calibration_a121_calibrate+0x44>
 8005c5c:	f8dd 2740 	ldr.w	r2, [sp, #1856]	; 0x740
 8005c60:	4d79      	ldr	r5, [pc, #484]	; (8005e48 <acc_calibration_a121_calibrate+0x12b0>)
 8005c62:	f083 0310 	eor.w	r3, r3, #16
 8005c66:	4620      	mov	r0, r4
 8005c68:	80d3      	strh	r3, [r2, #6]
 8005c6a:	f240 21ff 	movw	r1, #767	; 0x2ff
 8005c6e:	f7fb fd31 	bl	80016d4 <acc_sensor_protocol_a121_run_program>
 8005c72:	2406      	movs	r4, #6
 8005c74:	f7ff b820 	b.w	8004cb8 <acc_calibration_a121_calibrate+0x120>
 8005c78:	2703      	movs	r7, #3
 8005c7a:	f04f 0801 	mov.w	r8, #1
 8005c7e:	f04f 0900 	mov.w	r9, #0
 8005c82:	f7ff bac1 	b.w	8005208 <acc_calibration_a121_calibrate+0x670>
 8005c86:	f8dd 2740 	ldr.w	r2, [sp, #1856]	; 0x740
 8005c8a:	f8dd 1740 	ldr.w	r1, [sp, #1856]	; 0x740
 8005c8e:	2fbf      	cmp	r7, #191	; 0xbf
 8005c90:	f04f 0301 	mov.w	r3, #1
 8005c94:	f8a2 307e 	strh.w	r3, [r2, #126]	; 0x7e
 8005c98:	bf96      	itet	ls
 8005c9a:	f1a7 0240 	subls.w	r2, r7, #64	; 0x40
 8005c9e:	08fa      	lsrhi	r2, r7, #3
 8005ca0:	f3c2 02cf 	ubfxls	r2, r2, #3, #16
 8005ca4:	f007 0307 	and.w	r3, r7, #7
 8005ca8:	f8a1 2080 	strh.w	r2, [r1, #128]	; 0x80
 8005cac:	f8a1 3082 	strh.w	r3, [r1, #130]	; 0x82
 8005cb0:	e676      	b.n	80059a0 <acc_calibration_a121_calibrate+0xe08>
 8005cb2:	46ce      	mov	lr, r9
 8005cb4:	f7ff b997 	b.w	8004fe6 <acc_calibration_a121_calibrate+0x44e>
 8005cb8:	ae14      	add	r6, sp, #80	; 0x50
 8005cba:	af0c      	add	r7, sp, #48	; 0x30
 8005cbc:	e9cd 7600 	strd	r7, r6, [sp]
 8005cc0:	ab09      	add	r3, sp, #36	; 0x24
 8005cc2:	aa44      	add	r2, sp, #272	; 0x110
 8005cc4:	f44f 7110 	mov.w	r1, #576	; 0x240
 8005cc8:	f504 6090 	add.w	r0, r4, #1152	; 0x480
 8005ccc:	f7fa fd0e 	bl	80006ec <acc_cal_algorithms_calc_pulse_params.constprop.0>
 8005cd0:	2800      	cmp	r0, #0
 8005cd2:	f43f ad7a 	beq.w	80057ca <acc_calibration_a121_calibrate+0xc32>
 8005cd6:	ad2c      	add	r5, sp, #176	; 0xb0
 8005cd8:	f8cd 9000 	str.w	r9, [sp]
 8005cdc:	464b      	mov	r3, r9
 8005cde:	aa44      	add	r2, sp, #272	; 0x110
 8005ce0:	f504 6010 	add.w	r0, r4, #2304	; 0x900
 8005ce4:	9501      	str	r5, [sp, #4]
 8005ce6:	f44f 7110 	mov.w	r1, #576	; 0x240
 8005cea:	f7fa fcff 	bl	80006ec <acc_cal_algorithms_calc_pulse_params.constprop.0>
 8005cee:	2800      	cmp	r0, #0
 8005cf0:	f43f ad6b 	beq.w	80057ca <acc_calibration_a121_calibrate+0xc32>
 8005cf4:	e9dd 0109 	ldrd	r0, r1, [sp, #36]	; 0x24
 8005cf8:	682b      	ldr	r3, [r5, #0]
 8005cfa:	f8d8 c000 	ldr.w	ip, [r8]
 8005cfe:	683f      	ldr	r7, [r7, #0]
 8005d00:	6836      	ldr	r6, [r6, #0]
 8005d02:	4c53      	ldr	r4, [pc, #332]	; (8005e50 <acc_calibration_a121_calibrate+0x12b8>)
 8005d04:	4a53      	ldr	r2, [pc, #332]	; (8005e54 <acc_calibration_a121_calibrate+0x12bc>)
 8005d06:	4d54      	ldr	r5, [pc, #336]	; (8005e58 <acc_calibration_a121_calibrate+0x12c0>)
 8005d08:	eba1 0e00 	sub.w	lr, r1, r0
 8005d0c:	eba7 010c 	sub.w	r1, r7, ip
 8005d10:	1b9f      	subs	r7, r3, r6
 8005d12:	fb04 f407 	mul.w	r4, r4, r7
 8005d16:	f248 5355 	movw	r3, #34133	; 0x8555
 8005d1a:	fb03 f606 	mul.w	r6, r3, r6
 8005d1e:	fb02 f20e 	mul.w	r2, r2, lr
 8005d22:	fb05 f501 	mul.w	r5, r5, r1
 8005d26:	0c24      	lsrs	r4, r4, #16
 8005d28:	fb03 f000 	mul.w	r0, r3, r0
 8005d2c:	fb03 fc0c 	mul.w	ip, r3, ip
 8005d30:	ebc4 3456 	rsb	r4, r4, r6, lsr #13
 8005d34:	0c12      	lsrs	r2, r2, #16
 8005d36:	f8dd 6740 	ldr.w	r6, [sp, #1856]	; 0x740
 8005d3a:	0c2d      	lsrs	r5, r5, #16
 8005d3c:	ebc2 3250 	rsb	r2, r2, r0, lsr #13
 8005d40:	ebc5 355c 	rsb	r5, r5, ip, lsr #13
 8005d44:	fb03 f00e 	mul.w	r0, r3, lr
 8005d48:	fb03 f101 	mul.w	r1, r3, r1
 8005d4c:	fb03 f307 	mul.w	r3, r3, r7
 8005d50:	e9c6 051a 	strd	r0, r5, [r6, #104]	; 0x68
 8005d54:	67b3      	str	r3, [r6, #120]	; 0x78
 8005d56:	6774      	str	r4, [r6, #116]	; 0x74
 8005d58:	6672      	str	r2, [r6, #100]	; 0x64
 8005d5a:	6731      	str	r1, [r6, #112]	; 0x70
 8005d5c:	4630      	mov	r0, r6
 8005d5e:	f7fa fcab 	bl	80006b8 <acc_alg_basic_util_crc32.constprop.0>
 8005d62:	f8dd 3740 	ldr.w	r3, [sp, #1856]	; 0x740
 8005d66:	4d38      	ldr	r5, [pc, #224]	; (8005e48 <acc_calibration_a121_calibrate+0x12b0>)
 8005d68:	f8c3 0088 	str.w	r0, [r3, #136]	; 0x88
 8005d6c:	240d      	movs	r4, #13
 8005d6e:	f7fe bfa6 	b.w	8004cbe <acc_calibration_a121_calibrate+0x126>
 8005d72:	9b03      	ldr	r3, [sp, #12]
 8005d74:	ad43      	add	r5, sp, #268	; 0x10c
 8005d76:	f10d 06ae 	add.w	r6, sp, #174	; 0xae
 8005d7a:	4629      	mov	r1, r5
 8005d7c:	4632      	mov	r2, r6
 8005d7e:	f103 075c 	add.w	r7, r3, #92	; 0x5c
 8005d82:	f851 3f04 	ldr.w	r3, [r1, #4]!
 8005d86:	2b00      	cmp	r3, #0
 8005d88:	bfb8      	it	lt
 8005d8a:	330f      	addlt	r3, #15
 8005d8c:	3202      	adds	r2, #2
 8005d8e:	111b      	asrs	r3, r3, #4
 8005d90:	428f      	cmp	r7, r1
 8005d92:	8013      	strh	r3, [r2, #0]
 8005d94:	d1f5      	bne.n	8005d82 <acc_calibration_a121_calibrate+0x11ea>
 8005d96:	9803      	ldr	r0, [sp, #12]
 8005d98:	f7fa fd9a 	bl	80008d0 <acc_cal_algorithms_phase_unwrap.constprop.0>
 8005d9c:	2100      	movs	r1, #0
 8005d9e:	f855 3f04 	ldr.w	r3, [r5, #4]!
 8005da2:	6e2a      	ldr	r2, [r5, #96]	; 0x60
 8005da4:	42af      	cmp	r7, r5
 8005da6:	eba3 0302 	sub.w	r3, r3, r2
 8005daa:	4419      	add	r1, r3
 8005dac:	d1f7      	bne.n	8005d9e <acc_calibration_a121_calibrate+0x1206>
 8005dae:	4b2b      	ldr	r3, [pc, #172]	; (8005e5c <acc_calibration_a121_calibrate+0x12c4>)
 8005db0:	17c8      	asrs	r0, r1, #31
 8005db2:	fb83 3101 	smull	r3, r1, r3, r1
 8005db6:	ebc0 10a1 	rsb	r0, r0, r1, asr #6
 8005dba:	f500 4399 	add.w	r3, r0, #19584	; 0x4c80
 8005dbe:	3330      	adds	r3, #48	; 0x30
 8005dc0:	f64c 1262 	movw	r2, #51554	; 0xc962
 8005dc4:	4293      	cmp	r3, r2
 8005dc6:	f63e af09 	bhi.w	8004bdc <acc_calibration_a121_calibrate+0x44>
 8005dca:	f8dd 3740 	ldr.w	r3, [sp, #1856]	; 0x740
 8005dce:	f10d 01de 	add.w	r1, sp, #222	; 0xde
 8005dd2:	3322      	adds	r3, #34	; 0x22
 8005dd4:	f836 2f02 	ldrh.w	r2, [r6, #2]!
 8005dd8:	f823 2f02 	strh.w	r2, [r3, #2]!
 8005ddc:	42b1      	cmp	r1, r6
 8005dde:	d1f9      	bne.n	8005dd4 <acc_calibration_a121_calibrate+0x123c>
 8005de0:	f8dd 3740 	ldr.w	r3, [sp, #1856]	; 0x740
 8005de4:	4d18      	ldr	r5, [pc, #96]	; (8005e48 <acc_calibration_a121_calibrate+0x12b0>)
 8005de6:	f8a3 0054 	strh.w	r0, [r3, #84]	; 0x54
 8005dea:	f240 415e 	movw	r1, #1118	; 0x45e
 8005dee:	4620      	mov	r0, r4
 8005df0:	f7fb fc70 	bl	80016d4 <acc_sensor_protocol_a121_run_program>
 8005df4:	240b      	movs	r4, #11
 8005df6:	f7fe bf5f 	b.w	8004cb8 <acc_calibration_a121_calibrate+0x120>
 8005dfa:	1ffb      	subs	r3, r7, #7
 8005dfc:	2f17      	cmp	r7, #23
 8005dfe:	bf88      	it	hi
 8005e00:	f1c3 0220 	rsbhi	r2, r3, #32
 8005e04:	f63f aec9 	bhi.w	8005b9a <acc_calibration_a121_calibrate+0x1002>
 8005e08:	e6c4      	b.n	8005b94 <acc_calibration_a121_calibrate+0xffc>
 8005e0a:	f1a0 030c 	sub.w	r3, r0, #12
 8005e0e:	2b08      	cmp	r3, #8
 8005e10:	f63e aee4 	bhi.w	8004bdc <acc_calibration_a121_calibrate+0x44>
 8005e14:	0840      	lsrs	r0, r0, #1
 8005e16:	f7ff b9dc 	b.w	80051d2 <acc_calibration_a121_calibrate+0x63a>
 8005e1a:	ab44      	add	r3, sp, #272	; 0x110
 8005e1c:	9303      	str	r3, [sp, #12]
 8005e1e:	e6e2      	b.n	8005be6 <acc_calibration_a121_calibrate+0x104e>
 8005e20:	eebc 7ac7 	vcvt.u32.f32	s14, s14
 8005e24:	ee17 3a10 	vmov	r3, s14
 8005e28:	b219      	sxth	r1, r3
 8005e2a:	f7ff bbaa 	b.w	8005582 <acc_calibration_a121_calibrate+0x9ea>
 8005e2e:	eefc 7ae7 	vcvt.u32.f32	s15, s15
 8005e32:	ee17 2a90 	vmov	r2, s15
 8005e36:	f342 020a 	sbfx	r2, r2, #0, #11
 8005e3a:	0153      	lsls	r3, r2, #5
 8005e3c:	f7ff bbbd 	b.w	80055ba <acc_calibration_a121_calibrate+0xa22>
 8005e40:	0800c0a8 	.word	0x0800c0a8
 8005e44:	0800ca6c 	.word	0x0800ca6c
 8005e48:	200000ac 	.word	0x200000ac
 8005e4c:	20000000 	.word	0x20000000
 8005e50:	0005baa7 	.word	0x0005baa7
 8005e54:	00010aaa 	.word	0x00010aaa
 8005e58:	0003a553 	.word	0x0003a553
 8005e5c:	2aaaaaab 	.word	0x2aaaaaab

08005e60 <acconeer_main.constprop.0>:
 8005e60:	e92d 4ff0 	stmdb	sp!, {r4, r5, r6, r7, r8, r9, sl, fp, lr}
 8005e64:	ed2d 8b06 	vpush	{d8-d10}
 8005e68:	4cb4      	ldr	r4, [pc, #720]	; (800613c <acconeer_main.constprop.0+0x2dc>)
 8005e6a:	f8df a314 	ldr.w	sl, [pc, #788]	; 8006180 <acconeer_main.constprop.0+0x320>
 8005e6e:	b0f7      	sub	sp, #476	; 0x1dc
 8005e70:	f44f 7280 	mov.w	r2, #256	; 0x100
 8005e74:	2100      	movs	r1, #0
 8005e76:	a836      	add	r0, sp, #216	; 0xd8
 8005e78:	f003 ff83 	bl	8009d82 <memset>
 8005e7c:	f1a4 0158 	sub.w	r1, r4, #88	; 0x58
 8005e80:	48af      	ldr	r0, [pc, #700]	; (8006140 <acconeer_main.constprop.0+0x2e0>)
 8005e82:	f004 fe29 	bl	800aad8 <__wrap_printf>
 8005e86:	cc0f      	ldmia	r4!, {r0, r1, r2, r3}
 8005e88:	f10a 052c 	add.w	r5, sl, #44	; 0x2c
 8005e8c:	c50f      	stmia	r5!, {r0, r1, r2, r3}
 8005e8e:	e894 0003 	ldmia.w	r4, {r0, r1}
 8005e92:	2202      	movs	r2, #2
 8005e94:	e885 0003 	stmia.w	r5, {r0, r1}
 8005e98:	4baa      	ldr	r3, [pc, #680]	; (8006144 <acconeer_main.constprop.0+0x2e4>)
 8005e9a:	f88a 2028 	strb.w	r2, [sl, #40]	; 0x28
 8005e9e:	2100      	movs	r1, #0
 8005ea0:	f44f 7280 	mov.w	r2, #256	; 0x100
 8005ea4:	a836      	add	r0, sp, #216	; 0xd8
 8005ea6:	f8ca 313c 	str.w	r3, [sl, #316]	; 0x13c
 8005eaa:	f04f 0901 	mov.w	r9, #1
 8005eae:	f003 ff68 	bl	8009d82 <memset>
 8005eb2:	49a5      	ldr	r1, [pc, #660]	; (8006148 <acconeer_main.constprop.0+0x2e8>)
 8005eb4:	f8cd 90e0 	str.w	r9, [sp, #224]	; 0xe0
 8005eb8:	2256      	movs	r2, #86	; 0x56
 8005eba:	205c      	movs	r0, #92	; 0x5c
 8005ebc:	f7fd f984 	bl	80031c8 <acc_rss_integration_mem_calloc_debug.part.0.constprop.0>
 8005ec0:	4605      	mov	r5, r0
 8005ec2:	2800      	cmp	r0, #0
 8005ec4:	f000 81b8 	beq.w	8006238 <acconeer_main.constprop.0+0x3d8>
 8005ec8:	4ba0      	ldr	r3, [pc, #640]	; (800614c <acconeer_main.constprop.0+0x2ec>)
 8005eca:	f840 3b04 	str.w	r3, [r0], #4
 8005ece:	f104 0108 	add.w	r1, r4, #8
 8005ed2:	2258      	movs	r2, #88	; 0x58
 8005ed4:	f004 fcaa 	bl	800a82c <memcpy>
 8005ed8:	2364      	movs	r3, #100	; 0x64
 8005eda:	489d      	ldr	r0, [pc, #628]	; (8006150 <acconeer_main.constprop.0+0x2f0>)
 8005edc:	4a9d      	ldr	r2, [pc, #628]	; (8006154 <acconeer_main.constprop.0+0x2f4>)
 8005ede:	606b      	str	r3, [r5, #4]
 8005ee0:	21c8      	movs	r1, #200	; 0xc8
 8005ee2:	f240 3302 	movw	r3, #770	; 0x302
 8005ee6:	60a8      	str	r0, [r5, #8]
 8005ee8:	f8a5 904c 	strh.w	r9, [r5, #76]	; 0x4c
 8005eec:	f885 9010 	strb.w	r9, [r5, #16]
 8005ef0:	81a9      	strh	r1, [r5, #12]
 8005ef2:	64aa      	str	r2, [r5, #72]	; 0x48
 8005ef4:	826b      	strh	r3, [r5, #18]
 8005ef6:	4628      	mov	r0, r5
 8005ef8:	9536      	str	r5, [sp, #216]	; 0xd8
 8005efa:	f7fb fe3d 	bl	8001b78 <acc_config_get_settings>
 8005efe:	4604      	mov	r4, r0
 8005f00:	2800      	cmp	r0, #0
 8005f02:	d03a      	beq.n	8005f7a <acconeer_main.constprop.0+0x11a>
 8005f04:	4994      	ldr	r1, [pc, #592]	; (8006158 <acconeer_main.constprop.0+0x2f8>)
 8005f06:	2266      	movs	r2, #102	; 0x66
 8005f08:	2010      	movs	r0, #16
 8005f0a:	f7fd f95d 	bl	80031c8 <acc_rss_integration_mem_calloc_debug.part.0.constprop.0>
 8005f0e:	4606      	mov	r6, r0
 8005f10:	2800      	cmp	r0, #0
 8005f12:	d032      	beq.n	8005f7a <acconeer_main.constprop.0+0x11a>
 8005f14:	4b91      	ldr	r3, [pc, #580]	; (800615c <acconeer_main.constprop.0+0x2fc>)
 8005f16:	6003      	str	r3, [r0, #0]
 8005f18:	f894 304e 	ldrb.w	r3, [r4, #78]	; 0x4e
 8005f1c:	2b00      	cmp	r3, #0
 8005f1e:	d05a      	beq.n	8005fd6 <acconeer_main.constprop.0+0x176>
 8005f20:	f8b4 3048 	ldrh.w	r3, [r4, #72]	; 0x48
 8005f24:	2b00      	cmp	r3, #0
 8005f26:	d056      	beq.n	8005fd6 <acconeer_main.constprop.0+0x176>
 8005f28:	498d      	ldr	r1, [pc, #564]	; (8006160 <acconeer_main.constprop.0+0x300>)
 8005f2a:	223d      	movs	r2, #61	; 0x3d
 8005f2c:	2010      	movs	r0, #16
 8005f2e:	f7fd f94b 	bl	80031c8 <acc_rss_integration_mem_calloc_debug.part.0.constprop.0>
 8005f32:	498b      	ldr	r1, [pc, #556]	; (8006160 <acconeer_main.constprop.0+0x300>)
 8005f34:	223e      	movs	r2, #62	; 0x3e
 8005f36:	4680      	mov	r8, r0
 8005f38:	20fc      	movs	r0, #252	; 0xfc
 8005f3a:	f7fd f945 	bl	80031c8 <acc_rss_integration_mem_calloc_debug.part.0.constprop.0>
 8005f3e:	4988      	ldr	r1, [pc, #544]	; (8006160 <acconeer_main.constprop.0+0x300>)
 8005f40:	4607      	mov	r7, r0
 8005f42:	2243      	movs	r2, #67	; 0x43
 8005f44:	2060      	movs	r0, #96	; 0x60
 8005f46:	f7fd f93f 	bl	80031c8 <acc_rss_integration_mem_calloc_debug.part.0.constprop.0>
 8005f4a:	464b      	mov	r3, r9
 8005f4c:	4605      	mov	r5, r0
 8005f4e:	f1b8 0f00 	cmp.w	r8, #0
 8005f52:	d004      	beq.n	8005f5e <acconeer_main.constprop.0+0xfe>
 8005f54:	b11f      	cbz	r7, 8005f5e <acconeer_main.constprop.0+0xfe>
 8005f56:	2b00      	cmp	r3, #0
 8005f58:	d04c      	beq.n	8005ff4 <acconeer_main.constprop.0+0x194>
 8005f5a:	2d00      	cmp	r5, #0
 8005f5c:	d14a      	bne.n	8005ff4 <acconeer_main.constprop.0+0x194>
 8005f5e:	4640      	mov	r0, r8
 8005f60:	f7fb f984 	bl	800126c <acc_rss_integration_mem_free>
 8005f64:	4638      	mov	r0, r7
 8005f66:	f7fb f981 	bl	800126c <acc_rss_integration_mem_free>
 8005f6a:	4628      	mov	r0, r5
 8005f6c:	f7fb f97e 	bl	800126c <acc_rss_integration_mem_free>
 8005f70:	2300      	movs	r3, #0
 8005f72:	6073      	str	r3, [r6, #4]
 8005f74:	4630      	mov	r0, r6
 8005f76:	f7fb fddb 	bl	8001b30 <acc_processing_destroy>
 8005f7a:	2300      	movs	r3, #0
 8005f7c:	9339      	str	r3, [sp, #228]	; 0xe4
 8005f7e:	4b79      	ldr	r3, [pc, #484]	; (8006164 <acconeer_main.constprop.0+0x304>)
 8005f80:	4879      	ldr	r0, [pc, #484]	; (8006168 <acconeer_main.constprop.0+0x308>)
 8005f82:	681b      	ldr	r3, [r3, #0]
 8005f84:	221c      	movs	r2, #28
 8005f86:	68db      	ldr	r3, [r3, #12]
 8005f88:	2101      	movs	r1, #1
 8005f8a:	f004 fd5b 	bl	800aa44 <fwrite>
 8005f8e:	4b77      	ldr	r3, [pc, #476]	; (800616c <acconeer_main.constprop.0+0x30c>)
 8005f90:	f44f 5280 	mov.w	r2, #4096	; 0x1000
 8005f94:	629a      	str	r2, [r3, #40]	; 0x28
 8005f96:	f7fc fb2d 	bl	80025f4 <acc_integration_sleep_us.constprop.0>
 8005f9a:	9837      	ldr	r0, [sp, #220]	; 0xdc
 8005f9c:	b118      	cbz	r0, 8005fa6 <acconeer_main.constprop.0+0x146>
 8005f9e:	f7fb fda5 	bl	8001aec <acc_sensor_destroy>
 8005fa2:	2300      	movs	r3, #0
 8005fa4:	9337      	str	r3, [sp, #220]	; 0xdc
 8005fa6:	983a      	ldr	r0, [sp, #232]	; 0xe8
 8005fa8:	b118      	cbz	r0, 8005fb2 <acconeer_main.constprop.0+0x152>
 8005faa:	f004 fd61 	bl	800aa70 <free>
 8005fae:	2300      	movs	r3, #0
 8005fb0:	933a      	str	r3, [sp, #232]	; 0xe8
 8005fb2:	9839      	ldr	r0, [sp, #228]	; 0xe4
 8005fb4:	b118      	cbz	r0, 8005fbe <acconeer_main.constprop.0+0x15e>
 8005fb6:	f7fb fdbb 	bl	8001b30 <acc_processing_destroy>
 8005fba:	2300      	movs	r3, #0
 8005fbc:	9339      	str	r3, [sp, #228]	; 0xe4
 8005fbe:	486c      	ldr	r0, [pc, #432]	; (8006170 <acconeer_main.constprop.0+0x310>)
 8005fc0:	f004 fd74 	bl	800aaac <__wrap_puts>
 8005fc4:	a836      	add	r0, sp, #216	; 0xd8
 8005fc6:	f7fc ff85 	bl	8002ed4 <acc_control_helper_destroy>
 8005fca:	2001      	movs	r0, #1
 8005fcc:	b077      	add	sp, #476	; 0x1dc
 8005fce:	ecbd 8b06 	vpop	{d8-d10}
 8005fd2:	e8bd 8ff0 	ldmia.w	sp!, {r4, r5, r6, r7, r8, r9, sl, fp, pc}
 8005fd6:	4962      	ldr	r1, [pc, #392]	; (8006160 <acconeer_main.constprop.0+0x300>)
 8005fd8:	223d      	movs	r2, #61	; 0x3d
 8005fda:	2010      	movs	r0, #16
 8005fdc:	f7fd f8f4 	bl	80031c8 <acc_rss_integration_mem_calloc_debug.part.0.constprop.0>
 8005fe0:	495f      	ldr	r1, [pc, #380]	; (8006160 <acconeer_main.constprop.0+0x300>)
 8005fe2:	4680      	mov	r8, r0
 8005fe4:	223e      	movs	r2, #62	; 0x3e
 8005fe6:	20fc      	movs	r0, #252	; 0xfc
 8005fe8:	f7fd f8ee 	bl	80031c8 <acc_rss_integration_mem_calloc_debug.part.0.constprop.0>
 8005fec:	2300      	movs	r3, #0
 8005fee:	4607      	mov	r7, r0
 8005ff0:	461d      	mov	r5, r3
 8005ff2:	e7ac      	b.n	8005f4e <acconeer_main.constprop.0+0xee>
 8005ff4:	f8c7 5098 	str.w	r5, [r7, #152]	; 0x98
 8005ff8:	a928      	add	r1, sp, #160	; 0xa0
 8005ffa:	f8c8 7000 	str.w	r7, [r8]
 8005ffe:	4620      	mov	r0, r4
 8006000:	f7fe fba8 	bl	8004754 <acc_radar_engine_a121_get_metadata>
 8006004:	2800      	cmp	r0, #0
 8006006:	f000 811d 	beq.w	8006244 <acconeer_main.constprop.0+0x3e4>
 800600a:	f8bd 30b0 	ldrh.w	r3, [sp, #176]	; 0xb0
 800600e:	f8bd 10ae 	ldrh.w	r1, [sp, #174]	; 0xae
 8006012:	f8bd 20ba 	ldrh.w	r2, [sp, #186]	; 0xba
 8006016:	f8d7 0098 	ldr.w	r0, [r7, #152]	; 0x98
 800601a:	9009      	str	r0, [sp, #36]	; 0x24
 800601c:	005b      	lsls	r3, r3, #1
 800601e:	f8c7 30e8 	str.w	r3, [r7, #232]	; 0xe8
 8006022:	2300      	movs	r3, #0
 8006024:	f8c7 3094 	str.w	r3, [r7, #148]	; 0x94
 8006028:	f8a7 309c 	strh.w	r3, [r7, #156]	; 0x9c
 800602c:	f107 03f8 	add.w	r3, r7, #248	; 0xf8
 8006030:	f8c7 3084 	str.w	r3, [r7, #132]	; 0x84
 8006034:	f107 03f4 	add.w	r3, r7, #244	; 0xf4
 8006038:	440a      	add	r2, r1
 800603a:	f8c7 3088 	str.w	r3, [r7, #136]	; 0x88
 800603e:	f107 03f6 	add.w	r3, r7, #246	; 0xf6
 8006042:	b295      	uxth	r5, r2
 8006044:	f8c7 308c 	str.w	r3, [r7, #140]	; 0x8c
 8006048:	f107 02f0 	add.w	r2, r7, #240	; 0xf0
 800604c:	f107 03f7 	add.w	r3, r7, #247	; 0xf7
 8006050:	8739      	strh	r1, [r7, #56]	; 0x38
 8006052:	950e      	str	r5, [sp, #56]	; 0x38
 8006054:	f8a7 509e 	strh.w	r5, [r7, #158]	; 0x9e
 8006058:	627a      	str	r2, [r7, #36]	; 0x24
 800605a:	f8c7 3090 	str.w	r3, [r7, #144]	; 0x90
 800605e:	b138      	cbz	r0, 8006070 <acconeer_main.constprop.0+0x210>
 8006060:	f107 0cec 	add.w	ip, r7, #236	; 0xec
 8006064:	f107 03f5 	add.w	r3, r7, #245	; 0xf5
 8006068:	6242      	str	r2, [r0, #36]	; 0x24
 800606a:	f8c0 c018 	str.w	ip, [r0, #24]
 800606e:	65c3      	str	r3, [r0, #92]	; 0x5c
 8006070:	e9c7 2636 	strd	r2, r6, [r7, #216]	; 0xd8
 8006074:	9b0e      	ldr	r3, [sp, #56]	; 0x38
 8006076:	f8a7 30e4 	strh.w	r3, [r7, #228]	; 0xe4
 800607a:	f894 204e 	ldrb.w	r2, [r4, #78]	; 0x4e
 800607e:	920a      	str	r2, [sp, #40]	; 0x28
 8006080:	f10d 00c6 	add.w	r0, sp, #198	; 0xc6
 8006084:	2300      	movs	r3, #0
 8006086:	ad1b      	add	r5, sp, #108	; 0x6c
 8006088:	4694      	mov	ip, r2
 800608a:	e005      	b.n	8006098 <acconeer_main.constprop.0+0x238>
 800608c:	f830 2b02 	ldrh.w	r2, [r0], #2
 8006090:	0852      	lsrs	r2, r2, #1
 8006092:	f825 2013 	strh.w	r2, [r5, r3, lsl #1]
 8006096:	3301      	adds	r3, #1
 8006098:	b2da      	uxtb	r2, r3
 800609a:	4594      	cmp	ip, r2
 800609c:	d8f6      	bhi.n	800608c <acconeer_main.constprop.0+0x22c>
 800609e:	f8bd 30b6 	ldrh.w	r3, [sp, #182]	; 0xb6
 80060a2:	f89d 00d4 	ldrb.w	r0, [sp, #212]	; 0xd4
 80060a6:	f8b4 2048 	ldrh.w	r2, [r4, #72]	; 0x48
 80060aa:	9005      	str	r0, [sp, #20]
 80060ac:	440b      	add	r3, r1
 80060ae:	f8bd 00b8 	ldrh.w	r0, [sp, #184]	; 0xb8
 80060b2:	ed9d 8a34 	vldr	s16, [sp, #208]	; 0xd0
 80060b6:	920d      	str	r2, [sp, #52]	; 0x34
 80060b8:	b29b      	uxth	r3, r3
 80060ba:	9007      	str	r0, [sp, #28]
 80060bc:	9306      	str	r3, [sp, #24]
 80060be:	2a00      	cmp	r2, #0
 80060c0:	f000 815c 	beq.w	800637c <acconeer_main.constprop.0+0x51c>
 80060c4:	f8bd 30bc 	ldrh.w	r3, [sp, #188]	; 0xbc
 80060c8:	fbb3 f3f2 	udiv	r3, r3, r2
 80060cc:	9312      	str	r3, [sp, #72]	; 0x48
 80060ce:	f8bd 30b2 	ldrh.w	r3, [sp, #178]	; 0xb2
 80060d2:	f8bd 50b4 	ldrh.w	r5, [sp, #180]	; 0xb4
 80060d6:	f8bd 00a2 	ldrh.w	r0, [sp, #162]	; 0xa2
 80060da:	9a29      	ldr	r2, [sp, #164]	; 0xa4
 80060dc:	67ba      	str	r2, [r7, #120]	; 0x78
 80060de:	440b      	add	r3, r1
 80060e0:	f8a7 307c 	strh.w	r3, [r7, #124]	; 0x7c
 80060e4:	4b23      	ldr	r3, [pc, #140]	; (8006174 <acconeer_main.constprop.0+0x314>)
 80060e6:	64bb      	str	r3, [r7, #72]	; 0x48
 80060e8:	f107 033c 	add.w	r3, r7, #60	; 0x3c
 80060ec:	4429      	add	r1, r5
 80060ee:	4a22      	ldr	r2, [pc, #136]	; (8006178 <acconeer_main.constprop.0+0x318>)
 80060f0:	4d22      	ldr	r5, [pc, #136]	; (800617c <acconeer_main.constprop.0+0x31c>)
 80060f2:	9319      	str	r3, [sp, #100]	; 0x64
 80060f4:	9b09      	ldr	r3, [sp, #36]	; 0x24
 80060f6:	f8a7 107e 	strh.w	r1, [r7, #126]	; 0x7e
 80060fa:	f8a7 0076 	strh.w	r0, [r7, #118]	; 0x76
 80060fe:	2103      	movs	r1, #3
 8006100:	200f      	movs	r0, #15
 8006102:	e9c7 5210 	strd	r5, r2, [r7, #64]	; 0x40
 8006106:	f887 1074 	strb.w	r1, [r7, #116]	; 0x74
 800610a:	f8a7 0080 	strh.w	r0, [r7, #128]	; 0x80
 800610e:	2b00      	cmp	r3, #0
 8006110:	f000 8637 	beq.w	8006d82 <acconeer_main.constprop.0+0xf22>
 8006114:	f8bd 20a8 	ldrh.w	r2, [sp, #168]	; 0xa8
 8006118:	9213      	str	r2, [sp, #76]	; 0x4c
 800611a:	2300      	movs	r3, #0
 800611c:	f8bd 20aa 	ldrh.w	r2, [sp, #170]	; 0xaa
 8006120:	9214      	str	r2, [sp, #80]	; 0x50
 8006122:	a923      	add	r1, sp, #140	; 0x8c
 8006124:	e9cd 3321 	strd	r3, r3, [sp, #132]	; 0x84
 8006128:	e9cd 3323 	strd	r3, r3, [sp, #140]	; 0x8c
 800612c:	e9cd 3325 	strd	r3, r3, [sp, #148]	; 0x94
 8006130:	9d0a      	ldr	r5, [sp, #40]	; 0x28
 8006132:	468c      	mov	ip, r1
 8006134:	f10d 02be 	add.w	r2, sp, #190	; 0xbe
 8006138:	e02b      	b.n	8006192 <acconeer_main.constprop.0+0x332>
 800613a:	bf00      	nop
 800613c:	0800c240 	.word	0x0800c240
 8006140:	0801019c 	.word	0x0801019c
 8006144:	016e3600 	.word	0x016e3600
 8006148:	0800fc4c 	.word	0x0800fc4c
 800614c:	1337b00f 	.word	0x1337b00f
 8006150:	00080032 	.word	0x00080032
 8006154:	40a00000 	.word	0x40a00000
 8006158:	0800fc28 	.word	0x0800fc28
 800615c:	1337b00d 	.word	0x1337b00d
 8006160:	080101e0 	.word	0x080101e0
 8006164:	20000028 	.word	0x20000028
 8006168:	0801026c 	.word	0x0801026c
 800616c:	48000400 	.word	0x48000400
 8006170:	08010314 	.word	0x08010314
 8006174:	0800097d 	.word	0x0800097d
 8006178:	08000971 	.word	0x08000971
 800617c:	08000b51 	.word	0x08000b51
 8006180:	200000ac 	.word	0x200000ac
 8006184:	f832 0b02 	ldrh.w	r0, [r2], #2
 8006188:	f821 0b02 	strh.w	r0, [r1], #2
 800618c:	88d0      	ldrh	r0, [r2, #6]
 800618e:	80c8      	strh	r0, [r1, #6]
 8006190:	3301      	adds	r3, #1
 8006192:	b2d8      	uxtb	r0, r3
 8006194:	42a8      	cmp	r0, r5
 8006196:	d3f5      	bcc.n	8006184 <acconeer_main.constprop.0+0x324>
 8006198:	9d09      	ldr	r5, [sp, #36]	; 0x24
 800619a:	49b4      	ldr	r1, [pc, #720]	; (800646c <acconeer_main.constprop.0+0x60c>)
 800619c:	48b4      	ldr	r0, [pc, #720]	; (8006470 <acconeer_main.constprop.0+0x610>)
 800619e:	9a0d      	ldr	r2, [sp, #52]	; 0x34
 80061a0:	872a      	strh	r2, [r5, #56]	; 0x38
 80061a2:	e9c5 0101 	strd	r0, r1, [r5, #4]
 80061a6:	4629      	mov	r1, r5
 80061a8:	314c      	adds	r1, #76	; 0x4c
 80061aa:	2300      	movs	r3, #0
 80061ac:	9a12      	ldr	r2, [sp, #72]	; 0x48
 80061ae:	9108      	str	r1, [sp, #32]
 80061b0:	49b0      	ldr	r1, [pc, #704]	; (8006474 <acconeer_main.constprop.0+0x614>)
 80061b2:	876a      	strh	r2, [r5, #58]	; 0x3a
 80061b4:	910f      	str	r1, [sp, #60]	; 0x3c
 80061b6:	462a      	mov	r2, r5
 80061b8:	49af      	ldr	r1, [pc, #700]	; (8006478 <acconeer_main.constprop.0+0x618>)
 80061ba:	f8df e304 	ldr.w	lr, [pc, #772]	; 80064c0 <acconeer_main.constprop.0+0x660>
 80061be:	9110      	str	r1, [sp, #64]	; 0x40
 80061c0:	e9c5 3313 	strd	r3, r3, [r5, #76]	; 0x4c
 80061c4:	e9c5 3315 	strd	r3, r3, [r5, #84]	; 0x54
 80061c8:	49ac      	ldr	r1, [pc, #688]	; (800647c <acconeer_main.constprop.0+0x61c>)
 80061ca:	9717      	str	r7, [sp, #92]	; 0x5c
 80061cc:	323c      	adds	r2, #60	; 0x3c
 80061ce:	e9cd 4615 	strd	r4, r6, [sp, #84]	; 0x54
 80061d2:	f8cd 8060 	str.w	r8, [sp, #96]	; 0x60
 80061d6:	f8c5 e00c 	str.w	lr, [r5, #12]
 80061da:	46a3      	mov	fp, r4
 80061dc:	9111      	str	r1, [sp, #68]	; 0x44
 80061de:	461e      	mov	r6, r3
 80061e0:	4617      	mov	r7, r2
 80061e2:	46e0      	mov	r8, ip
 80061e4:	9a0a      	ldr	r2, [sp, #40]	; 0x28
 80061e6:	b2f3      	uxtb	r3, r6
 80061e8:	4293      	cmp	r3, r2
 80061ea:	930c      	str	r3, [sp, #48]	; 0x30
 80061ec:	f080 80c9 	bcs.w	8006382 <acconeer_main.constprop.0+0x522>
 80061f0:	f838 4b02 	ldrh.w	r4, [r8], #2
 80061f4:	f827 4b02 	strh.w	r4, [r7], #2
 80061f8:	f8b8 9006 	ldrh.w	r9, [r8, #6]
 80061fc:	49a0      	ldr	r1, [pc, #640]	; (8006480 <acconeer_main.constprop.0+0x620>)
 80061fe:	f8a7 9006 	strh.w	r9, [r7, #6]
 8006202:	2233      	movs	r2, #51	; 0x33
 8006204:	20e8      	movs	r0, #232	; 0xe8
 8006206:	f7fc ffdf 	bl	80031c8 <acc_rss_integration_mem_calloc_debug.part.0.constprop.0>
 800620a:	960b      	str	r6, [sp, #44]	; 0x2c
 800620c:	4605      	mov	r5, r0
 800620e:	2800      	cmp	r0, #0
 8006210:	f000 85bf 	beq.w	8006d92 <acconeer_main.constprop.0+0xf32>
 8006214:	4b9b      	ldr	r3, [pc, #620]	; (8006484 <acconeer_main.constprop.0+0x624>)
 8006216:	6403      	str	r3, [r0, #64]	; 0x40
 8006218:	4a9b      	ldr	r2, [pc, #620]	; (8006488 <acconeer_main.constprop.0+0x628>)
 800621a:	4b9c      	ldr	r3, [pc, #624]	; (800648c <acconeer_main.constprop.0+0x62c>)
 800621c:	e9c0 3211 	strd	r3, r2, [r0, #68]	; 0x44
 8006220:	f89b 200f 	ldrb.w	r2, [fp, #15]
 8006224:	3a01      	subs	r2, #1
 8006226:	303c      	adds	r0, #60	; 0x3c
 8006228:	2a04      	cmp	r2, #4
 800622a:	f200 860f 	bhi.w	8006e4c <acconeer_main.constprop.0+0xfec>
 800622e:	e8df f002 	tbb	[pc, r2]
 8006232:	6e71      	.short	0x6e71
 8006234:	7414      	.short	0x7414
 8006236:	14          	.byte	0x14
 8006237:	00          	.byte	0x00
 8006238:	4895      	ldr	r0, [pc, #596]	; (8006490 <acconeer_main.constprop.0+0x630>)
 800623a:	9536      	str	r5, [sp, #216]	; 0xd8
 800623c:	f004 fc36 	bl	800aaac <__wrap_puts>
 8006240:	4648      	mov	r0, r9
 8006242:	e6c3      	b.n	8005fcc <acconeer_main.constprop.0+0x16c>
 8006244:	f8da 303c 	ldr.w	r3, [sl, #60]	; 0x3c
 8006248:	4a92      	ldr	r2, [pc, #584]	; (8006494 <acconeer_main.constprop.0+0x634>)
 800624a:	4993      	ldr	r1, [pc, #588]	; (8006498 <acconeer_main.constprop.0+0x638>)
 800624c:	4798      	blx	r3
 800624e:	4640      	mov	r0, r8
 8006250:	f7fb f814 	bl	800127c <pipeline_a121_disassemble>
 8006254:	2300      	movs	r3, #0
 8006256:	6073      	str	r3, [r6, #4]
 8006258:	e68c      	b.n	8005f74 <acconeer_main.constprop.0+0x114>
 800625a:	f06f 0c0c 	mvn.w	ip, #12
 800625e:	9b0e      	ldr	r3, [sp, #56]	; 0x38
 8006260:	f89b e00c 	ldrb.w	lr, [fp, #12]
 8006264:	f8db 1000 	ldr.w	r1, [fp]
 8006268:	441c      	add	r4, r3
 800626a:	9b13      	ldr	r3, [sp, #76]	; 0x4c
 800626c:	f8a5 3076 	strh.w	r3, [r5, #118]	; 0x76
 8006270:	9b14      	ldr	r3, [sp, #80]	; 0x50
 8006272:	f8a5 3078 	strh.w	r3, [r5, #120]	; 0x78
 8006276:	9b0d      	ldr	r3, [sp, #52]	; 0x34
 8006278:	f8a5 307c 	strh.w	r3, [r5, #124]	; 0x7c
 800627c:	b2a4      	uxth	r4, r4
 800627e:	9b12      	ldr	r3, [sp, #72]	; 0x48
 8006280:	f8a5 407a 	strh.w	r4, [r5, #122]	; 0x7a
 8006284:	f8a5 307e 	strh.w	r3, [r5, #126]	; 0x7e
 8006288:	f8bb 2006 	ldrh.w	r2, [fp, #6]
 800628c:	f8a5 208a 	strh.w	r2, [r5, #138]	; 0x8a
 8006290:	f885 e074 	strb.w	lr, [r5, #116]	; 0x74
 8006294:	f8bb e004 	ldrh.w	lr, [fp, #4]
 8006298:	f8a5 4092 	strh.w	r4, [r5, #146]	; 0x92
 800629c:	f8a5 40d8 	strh.w	r4, [r5, #216]	; 0xd8
 80062a0:	9c0f      	ldr	r4, [sp, #60]	; 0x3c
 80062a2:	f8c5 4098 	str.w	r4, [r5, #152]	; 0x98
 80062a6:	9c10      	ldr	r4, [sp, #64]	; 0x40
 80062a8:	f8c5 409c 	str.w	r4, [r5, #156]	; 0x9c
 80062ac:	9c11      	ldr	r4, [sp, #68]	; 0x44
 80062ae:	f8c5 1080 	str.w	r1, [r5, #128]	; 0x80
 80062b2:	462a      	mov	r2, r5
 80062b4:	4979      	ldr	r1, [pc, #484]	; (800649c <acconeer_main.constprop.0+0x63c>)
 80062b6:	f8c5 40a0 	str.w	r4, [r5, #160]	; 0xa0
 80062ba:	ea4f 0349 	mov.w	r3, r9, lsl #1
 80062be:	9c09      	ldr	r4, [sp, #36]	; 0x24
 80062c0:	f8c5 c084 	str.w	ip, [r5, #132]	; 0x84
 80062c4:	f8c5 30dc 	str.w	r3, [r5, #220]	; 0xdc
 80062c8:	f105 0ce0 	add.w	ip, r5, #224	; 0xe0
 80062cc:	2300      	movs	r3, #0
 80062ce:	f8a5 e088 	strh.w	lr, [r5, #136]	; 0x88
 80062d2:	f105 0ee4 	add.w	lr, r5, #228	; 0xe4
 80062d6:	e9c5 4134 	strd	r4, r1, [r5, #208]	; 0xd0
 80062da:	f8c5 c024 	str.w	ip, [r5, #36]	; 0x24
 80062de:	f8c5 c0cc 	str.w	ip, [r5, #204]	; 0xcc
 80062e2:	872b      	strh	r3, [r5, #56]	; 0x38
 80062e4:	f8a5 3090 	strh.w	r3, [r5, #144]	; 0x90
 80062e8:	f8c5 e08c 	str.w	lr, [r5, #140]	; 0x8c
 80062ec:	f842 0b94 	str.w	r0, [r2], #148
 80062f0:	63ea      	str	r2, [r5, #60]	; 0x3c
 80062f2:	f7fa fb41 	bl	8000978 <element_phase_enhancement_validate>
 80062f6:	3601      	adds	r6, #1
 80062f8:	f10b 0b10 	add.w	fp, fp, #16
 80062fc:	b180      	cbz	r0, 8006320 <acconeer_main.constprop.0+0x4c0>
 80062fe:	6828      	ldr	r0, [r5, #0]
 8006300:	68c3      	ldr	r3, [r0, #12]
 8006302:	4798      	blx	r3
 8006304:	9b08      	ldr	r3, [sp, #32]
 8006306:	f843 5b04 	str.w	r5, [r3], #4
 800630a:	9308      	str	r3, [sp, #32]
 800630c:	e76a      	b.n	80061e4 <acconeer_main.constprop.0+0x384>
 800630e:	f06f 0c06 	mvn.w	ip, #6
 8006312:	e7a4      	b.n	800625e <acconeer_main.constprop.0+0x3fe>
 8006314:	f06f 0c0b 	mvn.w	ip, #11
 8006318:	e7a1      	b.n	800625e <acconeer_main.constprop.0+0x3fe>
 800631a:	f06f 0c0f 	mvn.w	ip, #15
 800631e:	e79e      	b.n	800625e <acconeer_main.constprop.0+0x3fe>
 8006320:	f8da 303c 	ldr.w	r3, [sl, #60]	; 0x3c
 8006324:	4a5e      	ldr	r2, [pc, #376]	; (80064a0 <acconeer_main.constprop.0+0x640>)
 8006326:	4956      	ldr	r1, [pc, #344]	; (8006480 <acconeer_main.constprop.0+0x620>)
 8006328:	4681      	mov	r9, r0
 800632a:	e9dd 4615 	ldrd	r4, r6, [sp, #84]	; 0x54
 800632e:	e9dd 7817 	ldrd	r7, r8, [sp, #92]	; 0x5c
 8006332:	4798      	blx	r3
 8006334:	4628      	mov	r0, r5
 8006336:	f7fa ff99 	bl	800126c <acc_rss_integration_mem_free>
 800633a:	9b09      	ldr	r3, [sp, #36]	; 0x24
 800633c:	9a0b      	ldr	r2, [sp, #44]	; 0x2c
 800633e:	eb03 0382 	add.w	r3, r3, r2, lsl #2
 8006342:	f8c3 904c 	str.w	r9, [r3, #76]	; 0x4c
 8006346:	f8da 303c 	ldr.w	r3, [sl, #60]	; 0x3c
 800634a:	4a56      	ldr	r2, [pc, #344]	; (80064a4 <acconeer_main.constprop.0+0x644>)
 800634c:	4956      	ldr	r1, [pc, #344]	; (80064a8 <acconeer_main.constprop.0+0x648>)
 800634e:	2000      	movs	r0, #0
 8006350:	4798      	blx	r3
 8006352:	9d0c      	ldr	r5, [sp, #48]	; 0x30
 8006354:	f8dd b024 	ldr.w	fp, [sp, #36]	; 0x24
 8006358:	9408      	str	r4, [sp, #32]
 800635a:	f04f 0900 	mov.w	r9, #0
 800635e:	2d00      	cmp	r5, #0
 8006360:	f000 84e6 	beq.w	8006d30 <acconeer_main.constprop.0+0xed0>
 8006364:	3d01      	subs	r5, #1
 8006366:	b2eb      	uxtb	r3, r5
 8006368:	eb0b 0483 	add.w	r4, fp, r3, lsl #2
 800636c:	461d      	mov	r5, r3
 800636e:	6ce0      	ldr	r0, [r4, #76]	; 0x4c
 8006370:	b108      	cbz	r0, 8006376 <acconeer_main.constprop.0+0x516>
 8006372:	f7fa ff7b 	bl	800126c <acc_rss_integration_mem_free>
 8006376:	f8c4 904c 	str.w	r9, [r4, #76]	; 0x4c
 800637a:	e7f0      	b.n	800635e <acconeer_main.constprop.0+0x4fe>
 800637c:	9b0d      	ldr	r3, [sp, #52]	; 0x34
 800637e:	9312      	str	r3, [sp, #72]	; 0x48
 8006380:	e6a5      	b.n	80060ce <acconeer_main.constprop.0+0x26e>
 8006382:	e9dd 7817 	ldrd	r7, r8, [sp, #92]	; 0x5c
 8006386:	e9dd 4615 	ldrd	r4, r6, [sp, #84]	; 0x54
 800638a:	f8d7 3098 	ldr.w	r3, [r7, #152]	; 0x98
 800638e:	9309      	str	r3, [sp, #36]	; 0x24
 8006390:	9a0f      	ldr	r2, [sp, #60]	; 0x3c
 8006392:	f8c7 20a4 	str.w	r2, [r7, #164]	; 0xa4
 8006396:	9a10      	ldr	r2, [sp, #64]	; 0x40
 8006398:	f8c7 20a8 	str.w	r2, [r7, #168]	; 0xa8
 800639c:	9a11      	ldr	r2, [sp, #68]	; 0x44
 800639e:	f8c7 20ac 	str.w	r2, [r7, #172]	; 0xac
 80063a2:	9a19      	ldr	r2, [sp, #100]	; 0x64
 80063a4:	603a      	str	r2, [r7, #0]
 80063a6:	9a09      	ldr	r2, [sp, #36]	; 0x24
 80063a8:	4b40      	ldr	r3, [pc, #256]	; (80064ac <acconeer_main.constprop.0+0x64c>)
 80063aa:	f8c7 30e0 	str.w	r3, [r7, #224]	; 0xe0
 80063ae:	f107 03a0 	add.w	r3, r7, #160	; 0xa0
 80063b2:	2a00      	cmp	r2, #0
 80063b4:	f000 84e2 	beq.w	8006d7c <acconeer_main.constprop.0+0xf1c>
 80063b8:	63fa      	str	r2, [r7, #60]	; 0x3c
 80063ba:	6013      	str	r3, [r2, #0]
 80063bc:	6838      	ldr	r0, [r7, #0]
 80063be:	6883      	ldr	r3, [r0, #8]
 80063c0:	4798      	blx	r3
 80063c2:	b928      	cbnz	r0, 80063d0 <acconeer_main.constprop.0+0x570>
 80063c4:	f8da 303c 	ldr.w	r3, [sl, #60]	; 0x3c
 80063c8:	4a35      	ldr	r2, [pc, #212]	; (80064a0 <acconeer_main.constprop.0+0x640>)
 80063ca:	4933      	ldr	r1, [pc, #204]	; (8006498 <acconeer_main.constprop.0+0x638>)
 80063cc:	4798      	blx	r3
 80063ce:	e73e      	b.n	800624e <acconeer_main.constprop.0+0x3ee>
 80063d0:	6838      	ldr	r0, [r7, #0]
 80063d2:	68c3      	ldr	r3, [r0, #12]
 80063d4:	4798      	blx	r3
 80063d6:	2200      	movs	r2, #0
 80063d8:	4b35      	ldr	r3, [pc, #212]	; (80064b0 <acconeer_main.constprop.0+0x650>)
 80063da:	4936      	ldr	r1, [pc, #216]	; (80064b4 <acconeer_main.constprop.0+0x654>)
 80063dc:	f8c8 300c 	str.w	r3, [r8, #12]
 80063e0:	f8c8 2008 	str.w	r2, [r8, #8]
 80063e4:	f8c8 1004 	str.w	r1, [r8, #4]
 80063e8:	4615      	mov	r5, r2
 80063ea:	f8c6 8004 	str.w	r8, [r6, #4]
 80063ee:	4610      	mov	r0, r2
 80063f0:	ab36      	add	r3, sp, #216	; 0xd8
 80063f2:	f8ad 21b2 	strh.w	r2, [sp, #434]	; 0x1b2
 80063f6:	af1b      	add	r7, sp, #108	; 0x6c
 80063f8:	f894 104e 	ldrb.w	r1, [r4, #78]	; 0x4e
 80063fc:	b2ea      	uxtb	r2, r5
 80063fe:	4291      	cmp	r1, r2
 8006400:	d92f      	bls.n	8006462 <acconeer_main.constprop.0+0x602>
 8006402:	f8bd 21b2 	ldrh.w	r2, [sp, #434]	; 0x1b2
 8006406:	f837 1015 	ldrh.w	r1, [r7, r5, lsl #1]
 800640a:	f8a3 20dc 	strh.w	r2, [r3, #220]	; 0xdc
 800640e:	440a      	add	r2, r1
 8006410:	f8ad 21b2 	strh.w	r2, [sp, #434]	; 0x1b2
 8006414:	f8a3 10e4 	strh.w	r1, [r3, #228]	; 0xe4
 8006418:	3501      	adds	r5, #1
 800641a:	2d04      	cmp	r5, #4
 800641c:	f103 0302 	add.w	r3, r3, #2
 8006420:	d1ea      	bne.n	80063f8 <acconeer_main.constprop.0+0x598>
 8006422:	f8b4 3048 	ldrh.w	r3, [r4, #72]	; 0x48
 8006426:	f8bd 21b2 	ldrh.w	r2, [sp, #434]	; 0x1b2
 800642a:	ed8d 8a71 	vstr	s16, [sp, #452]	; 0x1c4
 800642e:	fb13 f302 	smulbb	r3, r3, r2
 8006432:	f8ad 31b0 	strh.w	r3, [sp, #432]	; 0x1b0
 8006436:	9a05      	ldr	r2, [sp, #20]
 8006438:	9b06      	ldr	r3, [sp, #24]
 800643a:	f88d 21c8 	strb.w	r2, [sp, #456]	; 0x1c8
 800643e:	81b3      	strh	r3, [r6, #12]
 8006440:	9b07      	ldr	r3, [sp, #28]
 8006442:	81f3      	strh	r3, [r6, #14]
 8006444:	9836      	ldr	r0, [sp, #216]	; 0xd8
 8006446:	9639      	str	r6, [sp, #228]	; 0xe4
 8006448:	f7fb fb96 	bl	8001b78 <acc_config_get_settings>
 800644c:	2800      	cmp	r0, #0
 800644e:	d139      	bne.n	80064c4 <acconeer_main.constprop.0+0x664>
 8006450:	4b19      	ldr	r3, [pc, #100]	; (80064b8 <acconeer_main.constprop.0+0x658>)
 8006452:	481a      	ldr	r0, [pc, #104]	; (80064bc <acconeer_main.constprop.0+0x65c>)
 8006454:	681b      	ldr	r3, [r3, #0]
 8006456:	2221      	movs	r2, #33	; 0x21
 8006458:	68db      	ldr	r3, [r3, #12]
 800645a:	2101      	movs	r1, #1
 800645c:	f004 faf2 	bl	800aa44 <fwrite>
 8006460:	e595      	b.n	8005f8e <acconeer_main.constprop.0+0x12e>
 8006462:	f8a3 00dc 	strh.w	r0, [r3, #220]	; 0xdc
 8006466:	f8a3 00e4 	strh.w	r0, [r3, #228]	; 0xe4
 800646a:	e7d5      	b.n	8006418 <acconeer_main.constprop.0+0x5b8>
 800646c:	08000bed 	.word	0x08000bed
 8006470:	08000c49 	.word	0x08000c49
 8006474:	08000955 	.word	0x08000955
 8006478:	08000b01 	.word	0x08000b01
 800647c:	08000969 	.word	0x08000969
 8006480:	080101f0 	.word	0x080101f0
 8006484:	080032f1 	.word	0x080032f1
 8006488:	0800096d 	.word	0x0800096d
 800648c:	08000979 	.word	0x08000979
 8006490:	080105c4 	.word	0x080105c4
 8006494:	080101bc 	.word	0x080101bc
 8006498:	080101e0 	.word	0x080101e0
 800649c:	080032b9 	.word	0x080032b9
 80064a0:	08010204 	.word	0x08010204
 80064a4:	08010224 	.word	0x08010224
 80064a8:	0800f568 	.word	0x0800f568
 80064ac:	08000925 	.word	0x08000925
 80064b0:	0800127d 	.word	0x0800127d
 80064b4:	08000945 	.word	0x08000945
 80064b8:	20000028 	.word	0x20000028
 80064bc:	08010248 	.word	0x08010248
 80064c0:	08000961 	.word	0x08000961
 80064c4:	a928      	add	r1, sp, #160	; 0xa0
 80064c6:	f7fe f945 	bl	8004754 <acc_radar_engine_a121_get_metadata>
 80064ca:	2800      	cmp	r0, #0
 80064cc:	d0c0      	beq.n	8006450 <acconeer_main.constprop.0+0x5f0>
 80064ce:	f8bd 00a0 	ldrh.w	r0, [sp, #160]	; 0xa0
 80064d2:	903b      	str	r0, [sp, #236]	; 0xec
 80064d4:	f004 fac4 	bl	800aa60 <malloc>
 80064d8:	903a      	str	r0, [sp, #232]	; 0xe8
 80064da:	2800      	cmp	r0, #0
 80064dc:	d0b8      	beq.n	8006450 <acconeer_main.constprop.0+0x5f0>
 80064de:	4bb7      	ldr	r3, [pc, #732]	; (80067bc <acconeer_main.constprop.0+0x95c>)
 80064e0:	f44f 5280 	mov.w	r2, #4096	; 0x1000
 80064e4:	619a      	str	r2, [r3, #24]
 80064e6:	f7fc f885 	bl	80025f4 <acc_integration_sleep_us.constprop.0>
 80064ea:	49b5      	ldr	r1, [pc, #724]	; (80067c0 <acconeer_main.constprop.0+0x960>)
 80064ec:	9e38      	ldr	r6, [sp, #224]	; 0xe0
 80064ee:	223b      	movs	r2, #59	; 0x3b
 80064f0:	2014      	movs	r0, #20
 80064f2:	f7fc fe69 	bl	80031c8 <acc_rss_integration_mem_calloc_debug.part.0.constprop.0>
 80064f6:	4604      	mov	r4, r0
 80064f8:	2800      	cmp	r0, #0
 80064fa:	d041      	beq.n	8006580 <acconeer_main.constprop.0+0x720>
 80064fc:	49b1      	ldr	r1, [pc, #708]	; (80067c4 <acconeer_main.constprop.0+0x964>)
 80064fe:	2273      	movs	r2, #115	; 0x73
 8006500:	f44f 70fe 	mov.w	r0, #508	; 0x1fc
 8006504:	f7fc fe60 	bl	80031c8 <acc_rss_integration_mem_calloc_debug.part.0.constprop.0>
 8006508:	2800      	cmp	r0, #0
 800650a:	f000 840c 	beq.w	8006d26 <acconeer_main.constprop.0+0xec6>
 800650e:	4fae      	ldr	r7, [pc, #696]	; (80067c8 <acconeer_main.constprop.0+0x968>)
 8006510:	2301      	movs	r3, #1
 8006512:	f04f 0800 	mov.w	r8, #0
 8006516:	f8a0 31c4 	strh.w	r3, [r0, #452]	; 0x1c4
 800651a:	f880 31c6 	strb.w	r3, [r0, #454]	; 0x1c6
 800651e:	aa28      	add	r2, sp, #160	; 0xa0
 8006520:	6120      	str	r0, [r4, #16]
 8006522:	e9c4 7800 	strd	r7, r8, [r4]
 8006526:	60a6      	str	r6, [r4, #8]
 8006528:	f884 800d 	strb.w	r8, [r4, #13]
 800652c:	4641      	mov	r1, r8
 800652e:	4630      	mov	r0, r6
 8006530:	f8ad 80a0 	strh.w	r8, [sp, #160]	; 0xa0
 8006534:	f7fa ffa0 	bl	8001478 <acc_sensor_reg_read>
 8006538:	f8bd 30a0 	ldrh.w	r3, [sp, #160]	; 0xa0
 800653c:	f241 2210 	movw	r2, #4624	; 0x1210
 8006540:	4293      	cmp	r3, r2
 8006542:	d028      	beq.n	8006596 <acconeer_main.constprop.0+0x736>
 8006544:	4aa1      	ldr	r2, [pc, #644]	; (80067cc <acconeer_main.constprop.0+0x96c>)
 8006546:	49a2      	ldr	r1, [pc, #648]	; (80067d0 <acconeer_main.constprop.0+0x970>)
 8006548:	f8da 503c 	ldr.w	r5, [sl, #60]	; 0x3c
 800654c:	4640      	mov	r0, r8
 800654e:	47a8      	blx	r5
 8006550:	4620      	mov	r0, r4
 8006552:	f7fb facb 	bl	8001aec <acc_sensor_destroy>
 8006556:	211c      	movs	r1, #28
 8006558:	4630      	mov	r0, r6
 800655a:	aa28      	add	r2, sp, #160	; 0xa0
 800655c:	f8ad 80a0 	strh.w	r8, [sp, #160]	; 0xa0
 8006560:	f7fa ff8a 	bl	8001478 <acc_sensor_reg_read>
 8006564:	f8bd 30a0 	ldrh.w	r3, [sp, #160]	; 0xa0
 8006568:	0519      	lsls	r1, r3, #20
 800656a:	d509      	bpl.n	8006580 <acconeer_main.constprop.0+0x720>
 800656c:	4644      	mov	r4, r8
 800656e:	2000      	movs	r0, #0
 8006570:	f8da 303c 	ldr.w	r3, [sl, #60]	; 0x3c
 8006574:	4a97      	ldr	r2, [pc, #604]	; (80067d4 <acconeer_main.constprop.0+0x974>)
 8006576:	4992      	ldr	r1, [pc, #584]	; (80067c0 <acconeer_main.constprop.0+0x960>)
 8006578:	4798      	blx	r3
 800657a:	4620      	mov	r0, r4
 800657c:	f7fb fab6 	bl	8001aec <acc_sensor_destroy>
 8006580:	2300      	movs	r3, #0
 8006582:	9337      	str	r3, [sp, #220]	; 0xdc
 8006584:	4b94      	ldr	r3, [pc, #592]	; (80067d8 <acconeer_main.constprop.0+0x978>)
 8006586:	4895      	ldr	r0, [pc, #596]	; (80067dc <acconeer_main.constprop.0+0x97c>)
 8006588:	681b      	ldr	r3, [r3, #0]
 800658a:	2218      	movs	r2, #24
 800658c:	68db      	ldr	r3, [r3, #12]
 800658e:	2101      	movs	r1, #1
 8006590:	f004 fa58 	bl	800aa44 <fwrite>
 8006594:	e4fb      	b.n	8005f8e <acconeer_main.constprop.0+0x12e>
 8006596:	4630      	mov	r0, r6
 8006598:	aa28      	add	r2, sp, #160	; 0xa0
 800659a:	211c      	movs	r1, #28
 800659c:	f8ad 80a0 	strh.w	r8, [sp, #160]	; 0xa0
 80065a0:	f7fa ff6a 	bl	8001478 <acc_sensor_reg_read>
 80065a4:	f8bd 60a0 	ldrh.w	r6, [sp, #160]	; 0xa0
 80065a8:	f416 6600 	ands.w	r6, r6, #2048	; 0x800
 80065ac:	d1df      	bne.n	800656e <acconeer_main.constprop.0+0x70e>
 80065ae:	68a0      	ldr	r0, [r4, #8]
 80065b0:	f7fa ff38 	bl	8001424 <acc_sensor_protocol_a121_init_interrupts>
 80065b4:	2203      	movs	r2, #3
 80065b6:	68a0      	ldr	r0, [r4, #8]
 80065b8:	9200      	str	r2, [sp, #0]
 80065ba:	f240 1349 	movw	r3, #329	; 0x149
 80065be:	4631      	mov	r1, r6
 80065c0:	9005      	str	r0, [sp, #20]
 80065c2:	f7fa ff01 	bl	80013c8 <acc_sensor_reg_field_write>
 80065c6:	9805      	ldr	r0, [sp, #20]
 80065c8:	9600      	str	r6, [sp, #0]
 80065ca:	f240 1349 	movw	r3, #329	; 0x149
 80065ce:	462a      	mov	r2, r5
 80065d0:	2102      	movs	r1, #2
 80065d2:	f7fa fef9 	bl	80013c8 <acc_sensor_reg_field_write>
 80065d6:	9805      	ldr	r0, [sp, #20]
 80065d8:	9600      	str	r6, [sp, #0]
 80065da:	4629      	mov	r1, r5
 80065dc:	f240 1349 	movw	r3, #329	; 0x149
 80065e0:	2210      	movs	r2, #16
 80065e2:	f7fa fef1 	bl	80013c8 <acc_sensor_reg_field_write>
 80065e6:	9805      	ldr	r0, [sp, #20]
 80065e8:	9600      	str	r6, [sp, #0]
 80065ea:	f240 1349 	movw	r3, #329	; 0x149
 80065ee:	2220      	movs	r2, #32
 80065f0:	2105      	movs	r1, #5
 80065f2:	f7fa fee9 	bl	80013c8 <acc_sensor_reg_field_write>
 80065f6:	f44f 527f 	mov.w	r2, #16320	; 0x3fc0
 80065fa:	2106      	movs	r1, #6
 80065fc:	9805      	ldr	r0, [sp, #20]
 80065fe:	9600      	str	r6, [sp, #0]
 8006600:	f240 1349 	movw	r3, #329	; 0x149
 8006604:	f7fa fee0 	bl	80013c8 <acc_sensor_reg_field_write>
 8006608:	e9dd 123a 	ldrd	r1, r2, [sp, #232]	; 0xe8
 800660c:	9437      	str	r4, [sp, #220]	; 0xdc
 800660e:	6823      	ldr	r3, [r4, #0]
 8006610:	42bb      	cmp	r3, r7
 8006612:	d00e      	beq.n	8006632 <acconeer_main.constprop.0+0x7d2>
 8006614:	f8da 303c 	ldr.w	r3, [sl, #60]	; 0x3c
 8006618:	4a71      	ldr	r2, [pc, #452]	; (80067e0 <acconeer_main.constprop.0+0x980>)
 800661a:	4969      	ldr	r1, [pc, #420]	; (80067c0 <acconeer_main.constprop.0+0x960>)
 800661c:	2000      	movs	r0, #0
 800661e:	4798      	blx	r3
 8006620:	4b6d      	ldr	r3, [pc, #436]	; (80067d8 <acconeer_main.constprop.0+0x978>)
 8006622:	4870      	ldr	r0, [pc, #448]	; (80067e4 <acconeer_main.constprop.0+0x984>)
 8006624:	681b      	ldr	r3, [r3, #0]
 8006626:	2213      	movs	r2, #19
 8006628:	68db      	ldr	r3, [r3, #12]
 800662a:	2101      	movs	r1, #1
 800662c:	f004 fa0a 	bl	800aa44 <fwrite>
 8006630:	e4ad      	b.n	8005f8e <acconeer_main.constprop.0+0x12e>
 8006632:	2900      	cmp	r1, #0
 8006634:	d0f4      	beq.n	8006620 <acconeer_main.constprop.0+0x7c0>
 8006636:	ab3c      	add	r3, sp, #240	; 0xf0
 8006638:	9300      	str	r3, [sp, #0]
 800663a:	68a0      	ldr	r0, [r4, #8]
 800663c:	f104 030d 	add.w	r3, r4, #13
 8006640:	f7fe faaa 	bl	8004b98 <acc_calibration_a121_calibrate>
 8006644:	2800      	cmp	r0, #0
 8006646:	d0eb      	beq.n	8006620 <acconeer_main.constprop.0+0x7c0>
 8006648:	7b63      	ldrb	r3, [r4, #13]
 800664a:	2b0d      	cmp	r3, #13
 800664c:	d00b      	beq.n	8006666 <acconeer_main.constprop.0+0x806>
 800664e:	f44f 70fa 	mov.w	r0, #500	; 0x1f4
 8006652:	f7f9 fdbd 	bl	80001d0 <acc_hal_integration_wait_for_sensor_interrupt.constprop.0>
 8006656:	2800      	cmp	r0, #0
 8006658:	d0e2      	beq.n	8006620 <acconeer_main.constprop.0+0x7c0>
 800665a:	9c37      	ldr	r4, [sp, #220]	; 0xdc
 800665c:	2c00      	cmp	r4, #0
 800665e:	d0d9      	beq.n	8006614 <acconeer_main.constprop.0+0x7b4>
 8006660:	e9dd 123a 	ldrd	r1, r2, [sp, #232]	; 0xe8
 8006664:	e7d3      	b.n	800660e <acconeer_main.constprop.0+0x7ae>
 8006666:	4c55      	ldr	r4, [pc, #340]	; (80067bc <acconeer_main.constprop.0+0x95c>)
 8006668:	f44f 5680 	mov.w	r6, #4096	; 0x1000
 800666c:	62a6      	str	r6, [r4, #40]	; 0x28
 800666e:	f7fb ffc1 	bl	80025f4 <acc_integration_sleep_us.constprop.0>
 8006672:	61a6      	str	r6, [r4, #24]
 8006674:	f7fb ffbe 	bl	80025f4 <acc_integration_sleep_us.constprop.0>
 8006678:	9c37      	ldr	r4, [sp, #220]	; 0xdc
 800667a:	b114      	cbz	r4, 8006682 <acconeer_main.constprop.0+0x822>
 800667c:	6823      	ldr	r3, [r4, #0]
 800667e:	42bb      	cmp	r3, r7
 8006680:	d012      	beq.n	80066a8 <acconeer_main.constprop.0+0x848>
 8006682:	f8da 303c 	ldr.w	r3, [sl, #60]	; 0x3c
 8006686:	4a56      	ldr	r2, [pc, #344]	; (80067e0 <acconeer_main.constprop.0+0x980>)
 8006688:	494d      	ldr	r1, [pc, #308]	; (80067c0 <acconeer_main.constprop.0+0x960>)
 800668a:	2000      	movs	r0, #0
 800668c:	4798      	blx	r3
 800668e:	4b52      	ldr	r3, [pc, #328]	; (80067d8 <acconeer_main.constprop.0+0x978>)
 8006690:	4855      	ldr	r0, [pc, #340]	; (80067e8 <acconeer_main.constprop.0+0x988>)
 8006692:	681b      	ldr	r3, [r3, #0]
 8006694:	221a      	movs	r2, #26
 8006696:	68db      	ldr	r3, [r3, #12]
 8006698:	2101      	movs	r1, #1
 800669a:	f004 f9d3 	bl	800aa44 <fwrite>
 800669e:	9b37      	ldr	r3, [sp, #220]	; 0xdc
 80066a0:	6898      	ldr	r0, [r3, #8]
 80066a2:	f7fa feff 	bl	80014a4 <acc_sensor_status_a121>
 80066a6:	e472      	b.n	8005f8e <acconeer_main.constprop.0+0x12e>
 80066a8:	a83c      	add	r0, sp, #240	; 0xf0
 80066aa:	f7fa f805 	bl	80006b8 <acc_alg_basic_util_crc32.constprop.0>
 80066ae:	9b5e      	ldr	r3, [sp, #376]	; 0x178
 80066b0:	4298      	cmp	r0, r3
 80066b2:	d006      	beq.n	80066c2 <acconeer_main.constprop.0+0x862>
 80066b4:	f8da 303c 	ldr.w	r3, [sl, #60]	; 0x3c
 80066b8:	4a4c      	ldr	r2, [pc, #304]	; (80067ec <acconeer_main.constprop.0+0x98c>)
 80066ba:	4941      	ldr	r1, [pc, #260]	; (80067c0 <acconeer_main.constprop.0+0x960>)
 80066bc:	2000      	movs	r0, #0
 80066be:	4798      	blx	r3
 80066c0:	e7e5      	b.n	800668e <acconeer_main.constprop.0+0x82e>
 80066c2:	9836      	ldr	r0, [sp, #216]	; 0xd8
 80066c4:	e9dd 763a 	ldrd	r7, r6, [sp, #232]	; 0xe8
 80066c8:	f7fb fa56 	bl	8001b78 <acc_config_get_settings>
 80066cc:	4605      	mov	r5, r0
 80066ce:	2800      	cmp	r0, #0
 80066d0:	d0dd      	beq.n	800668e <acconeer_main.constprop.0+0x82e>
 80066d2:	aa28      	add	r2, sp, #160	; 0xa0
 80066d4:	2300      	movs	r3, #0
 80066d6:	68a0      	ldr	r0, [r4, #8]
 80066d8:	f8ad 30a0 	strh.w	r3, [sp, #160]	; 0xa0
 80066dc:	211c      	movs	r1, #28
 80066de:	f7fa fecb 	bl	8001478 <acc_sensor_reg_read>
 80066e2:	f8bd 30a0 	ldrh.w	r3, [sp, #160]	; 0xa0
 80066e6:	f403 6300 	and.w	r3, r3, #2048	; 0x800
 80066ea:	2b00      	cmp	r3, #0
 80066ec:	bf14      	ite	ne
 80066ee:	2201      	movne	r2, #1
 80066f0:	2200      	moveq	r2, #0
 80066f2:	7322      	strb	r2, [r4, #12]
 80066f4:	f000 8322 	beq.w	8006d3c <acconeer_main.constprop.0+0xedc>
 80066f8:	1da2      	adds	r2, r4, #6
 80066fa:	1d23      	adds	r3, r4, #4
 80066fc:	e9cd 3202 	strd	r3, r2, [sp, #8]
 8006700:	6923      	ldr	r3, [r4, #16]
 8006702:	e9cd 7300 	strd	r7, r3, [sp]
 8006706:	aa3c      	add	r2, sp, #240	; 0xf0
 8006708:	68a0      	ldr	r0, [r4, #8]
 800670a:	4633      	mov	r3, r6
 800670c:	4629      	mov	r1, r5
 800670e:	f7fe f83f 	bl	8004790 <acc_radar_engine_a121_reconfigure>
 8006712:	2800      	cmp	r0, #0
 8006714:	d0bb      	beq.n	800668e <acconeer_main.constprop.0+0x82e>
 8006716:	9836      	ldr	r0, [sp, #216]	; 0xd8
 8006718:	f8bd 41b2 	ldrh.w	r4, [sp, #434]	; 0x1b2
 800671c:	f7fc fdb4 	bl	8003288 <acc_config_step_length_get>
 8006720:	4605      	mov	r5, r0
 8006722:	4620      	mov	r0, r4
 8006724:	f7fc fc26 	bl	8002f74 <acc_vector_iq_alloc>
 8006728:	4607      	mov	r7, r0
 800672a:	4620      	mov	r0, r4
 800672c:	f7fc fc22 	bl	8002f74 <acc_vector_iq_alloc>
 8006730:	2368      	movs	r3, #104	; 0x68
 8006732:	4602      	mov	r2, r0
 8006734:	fbb3 f0f5 	udiv	r0, r3, r5
 8006738:	f040 0001 	orr.w	r0, r0, #1
 800673c:	9206      	str	r2, [sp, #24]
 800673e:	f7fc fc03 	bl	8002f48 <acc_vector_float_alloc>
 8006742:	4680      	mov	r8, r0
 8006744:	4620      	mov	r0, r4
 8006746:	f7fc fbff 	bl	8002f48 <acc_vector_float_alloc>
 800674a:	9008      	str	r0, [sp, #32]
 800674c:	2f00      	cmp	r7, #0
 800674e:	f000 82e3 	beq.w	8006d18 <acconeer_main.constprop.0+0xeb8>
 8006752:	9b06      	ldr	r3, [sp, #24]
 8006754:	2b00      	cmp	r3, #0
 8006756:	f000 836f 	beq.w	8006e38 <acconeer_main.constprop.0+0xfd8>
 800675a:	f1b8 0f00 	cmp.w	r8, #0
 800675e:	f000 836b 	beq.w	8006e38 <acconeer_main.constprop.0+0xfd8>
 8006762:	9b08      	ldr	r3, [sp, #32]
 8006764:	2b00      	cmp	r3, #0
 8006766:	f000 8367 	beq.w	8006e38 <acconeer_main.constprop.0+0xfd8>
 800676a:	f8d8 0000 	ldr.w	r0, [r8]
 800676e:	07c3      	lsls	r3, r0, #31
 8006770:	f140 8366 	bpl.w	8006e40 <acconeer_main.constprop.0+0xfe0>
 8006774:	f8d8 2004 	ldr.w	r2, [r8, #4]
 8006778:	eddf 7a1d 	vldr	s15, [pc, #116]	; 80067f0 <acconeer_main.constprop.0+0x990>
 800677c:	1c44      	adds	r4, r0, #1
 800677e:	4611      	mov	r1, r2
 8006780:	0864      	lsrs	r4, r4, #1
 8006782:	2300      	movs	r3, #0
 8006784:	eef7 6a00 	vmov.f32	s13, #112	; 0x3f800000  1.0
 8006788:	e00e      	b.n	80067a8 <acconeer_main.constprop.0+0x948>
 800678a:	ee07 3a10 	vmov	s14, r3
 800678e:	eeb8 7ac7 	vcvt.f32.s32	s14, s14
 8006792:	ee37 7a26 	vadd.f32	s14, s14, s13
 8006796:	ed81 7a00 	vstr	s14, [r1]
 800679a:	ecb1 7a01 	vldmia	r1!, {s14}
 800679e:	3301      	adds	r3, #1
 80067a0:	4298      	cmp	r0, r3
 80067a2:	ee77 7a87 	vadd.f32	s15, s15, s14
 80067a6:	d929      	bls.n	80067fc <acconeer_main.constprop.0+0x99c>
 80067a8:	429c      	cmp	r4, r3
 80067aa:	d8ee      	bhi.n	800678a <acconeer_main.constprop.0+0x92a>
 80067ac:	1ac5      	subs	r5, r0, r3
 80067ae:	ee07 5a10 	vmov	s14, r5
 80067b2:	eeb8 7a47 	vcvt.f32.u32	s14, s14
 80067b6:	ed81 7a00 	vstr	s14, [r1]
 80067ba:	e7ee      	b.n	800679a <acconeer_main.constprop.0+0x93a>
 80067bc:	48000400 	.word	0x48000400
 80067c0:	0800fc04 	.word	0x0800fc04
 80067c4:	0800f860 	.word	0x0800f860
 80067c8:	1337b00e 	.word	0x1337b00e
 80067cc:	0801028c 	.word	0x0801028c
 80067d0:	0800f994 	.word	0x0800f994
 80067d4:	080102ac 	.word	0x080102ac
 80067d8:	20000028 	.word	0x20000028
 80067dc:	080102c8 	.word	0x080102c8
 80067e0:	0800fbec 	.word	0x0800fbec
 80067e4:	080105b0 	.word	0x080105b0
 80067e8:	080102f8 	.word	0x080102f8
 80067ec:	080102e4 	.word	0x080102e4
 80067f0:	00000000 	.word	0x00000000
 80067f4:	ff800000 	.word	0xff800000
 80067f8:	447a0000 	.word	0x447a0000
 80067fc:	2300      	movs	r3, #0
 80067fe:	edd2 6a00 	vldr	s13, [r2]
 8006802:	ee86 7aa7 	vdiv.f32	s14, s13, s15
 8006806:	3301      	adds	r3, #1
 8006808:	4298      	cmp	r0, r3
 800680a:	eca2 7a01 	vstmia	r2!, {s14}
 800680e:	d8f6      	bhi.n	80067fe <acconeer_main.constprop.0+0x99e>
 8006810:	2332      	movs	r3, #50	; 0x32
 8006812:	ed1f 8a09 	vldr	s16, [pc, #-36]	; 80067f0 <acconeer_main.constprop.0+0x990>
 8006816:	ed1f 9a09 	vldr	s18, [pc, #-36]	; 80067f4 <acconeer_main.constprop.0+0x994>
 800681a:	ed5f 8a09 	vldr	s17, [pc, #-36]	; 80067f8 <acconeer_main.constprop.0+0x998>
 800681e:	9309      	str	r3, [sp, #36]	; 0x24
 8006820:	9c37      	ldr	r4, [sp, #220]	; 0xdc
 8006822:	b11c      	cbz	r4, 800682c <acconeer_main.constprop.0+0x9cc>
 8006824:	6823      	ldr	r3, [r4, #0]
 8006826:	4a67      	ldr	r2, [pc, #412]	; (80069c4 <acconeer_main.constprop.0+0xb64>)
 8006828:	4293      	cmp	r3, r2
 800682a:	d03d      	beq.n	80068a8 <acconeer_main.constprop.0+0xa48>
 800682c:	f8da 303c 	ldr.w	r3, [sl, #60]	; 0x3c
 8006830:	4a65      	ldr	r2, [pc, #404]	; (80069c8 <acconeer_main.constprop.0+0xb68>)
 8006832:	4966      	ldr	r1, [pc, #408]	; (80069cc <acconeer_main.constprop.0+0xb6c>)
 8006834:	2000      	movs	r0, #0
 8006836:	4798      	blx	r3
 8006838:	4b65      	ldr	r3, [pc, #404]	; (80069d0 <acconeer_main.constprop.0+0xb70>)
 800683a:	4866      	ldr	r0, [pc, #408]	; (80069d4 <acconeer_main.constprop.0+0xb74>)
 800683c:	681b      	ldr	r3, [r3, #0]
 800683e:	221a      	movs	r2, #26
 8006840:	68db      	ldr	r3, [r3, #12]
 8006842:	2101      	movs	r1, #1
 8006844:	f004 f8fe 	bl	800aa44 <fwrite>
 8006848:	9b37      	ldr	r3, [sp, #220]	; 0xdc
 800684a:	6898      	ldr	r0, [r3, #8]
 800684c:	f7fa fe2a 	bl	80014a4 <acc_sensor_status_a121>
 8006850:	4861      	ldr	r0, [pc, #388]	; (80069d8 <acconeer_main.constprop.0+0xb78>)
 8006852:	f004 f92b 	bl	800aaac <__wrap_puts>
 8006856:	a836      	add	r0, sp, #216	; 0xd8
 8006858:	f7fc fb3c 	bl	8002ed4 <acc_control_helper_destroy>
 800685c:	6878      	ldr	r0, [r7, #4]
 800685e:	f004 f907 	bl	800aa70 <free>
 8006862:	4638      	mov	r0, r7
 8006864:	f004 f904 	bl	800aa70 <free>
 8006868:	9c06      	ldr	r4, [sp, #24]
 800686a:	b12c      	cbz	r4, 8006878 <acconeer_main.constprop.0+0xa18>
 800686c:	6860      	ldr	r0, [r4, #4]
 800686e:	f004 f8ff 	bl	800aa70 <free>
 8006872:	4620      	mov	r0, r4
 8006874:	f004 f8fc 	bl	800aa70 <free>
 8006878:	f1b8 0f00 	cmp.w	r8, #0
 800687c:	d006      	beq.n	800688c <acconeer_main.constprop.0+0xa2c>
 800687e:	f8d8 0004 	ldr.w	r0, [r8, #4]
 8006882:	f004 f8f5 	bl	800aa70 <free>
 8006886:	4640      	mov	r0, r8
 8006888:	f004 f8f2 	bl	800aa70 <free>
 800688c:	9c08      	ldr	r4, [sp, #32]
 800688e:	b12c      	cbz	r4, 800689c <acconeer_main.constprop.0+0xa3c>
 8006890:	6860      	ldr	r0, [r4, #4]
 8006892:	f004 f8ed 	bl	800aa70 <free>
 8006896:	4620      	mov	r0, r4
 8006898:	f004 f8ea 	bl	800aa70 <free>
 800689c:	484f      	ldr	r0, [pc, #316]	; (80069dc <acconeer_main.constprop.0+0xb7c>)
 800689e:	f004 f905 	bl	800aaac <__wrap_puts>
 80068a2:	2000      	movs	r0, #0
 80068a4:	f7ff bb92 	b.w	8005fcc <acconeer_main.constprop.0+0x16c>
 80068a8:	7b23      	ldrb	r3, [r4, #12]
 80068aa:	bb53      	cbnz	r3, 8006902 <acconeer_main.constprop.0+0xaa2>
 80068ac:	68a0      	ldr	r0, [r4, #8]
 80068ae:	2115      	movs	r1, #21
 80068b0:	f7fa ff10 	bl	80016d4 <acc_sensor_protocol_a121_run_program>
 80068b4:	2800      	cmp	r0, #0
 80068b6:	d0bf      	beq.n	8006838 <acconeer_main.constprop.0+0x9d8>
 80068b8:	2301      	movs	r3, #1
 80068ba:	7323      	strb	r3, [r4, #12]
 80068bc:	f44f 707a 	mov.w	r0, #1000	; 0x3e8
 80068c0:	f7f9 fc86 	bl	80001d0 <acc_hal_integration_wait_for_sensor_interrupt.constprop.0>
 80068c4:	b1a0      	cbz	r0, 80068f0 <acconeer_main.constprop.0+0xa90>
 80068c6:	9c37      	ldr	r4, [sp, #220]	; 0xdc
 80068c8:	b11c      	cbz	r4, 80068d2 <acconeer_main.constprop.0+0xa72>
 80068ca:	6823      	ldr	r3, [r4, #0]
 80068cc:	4a3d      	ldr	r2, [pc, #244]	; (80069c4 <acconeer_main.constprop.0+0xb64>)
 80068ce:	4293      	cmp	r3, r2
 80068d0:	d02d      	beq.n	800692e <acconeer_main.constprop.0+0xace>
 80068d2:	f8da 303c 	ldr.w	r3, [sl, #60]	; 0x3c
 80068d6:	4a3c      	ldr	r2, [pc, #240]	; (80069c8 <acconeer_main.constprop.0+0xb68>)
 80068d8:	493c      	ldr	r1, [pc, #240]	; (80069cc <acconeer_main.constprop.0+0xb6c>)
 80068da:	2000      	movs	r0, #0
 80068dc:	4798      	blx	r3
 80068de:	4b3c      	ldr	r3, [pc, #240]	; (80069d0 <acconeer_main.constprop.0+0xb70>)
 80068e0:	483f      	ldr	r0, [pc, #252]	; (80069e0 <acconeer_main.constprop.0+0xb80>)
 80068e2:	681b      	ldr	r3, [r3, #0]
 80068e4:	2217      	movs	r2, #23
 80068e6:	68db      	ldr	r3, [r3, #12]
 80068e8:	2101      	movs	r1, #1
 80068ea:	f004 f8ab 	bl	800aa44 <fwrite>
 80068ee:	e7ab      	b.n	8006848 <acconeer_main.constprop.0+0x9e8>
 80068f0:	4b37      	ldr	r3, [pc, #220]	; (80069d0 <acconeer_main.constprop.0+0xb70>)
 80068f2:	483c      	ldr	r0, [pc, #240]	; (80069e4 <acconeer_main.constprop.0+0xb84>)
 80068f4:	681b      	ldr	r3, [r3, #0]
 80068f6:	2219      	movs	r2, #25
 80068f8:	68db      	ldr	r3, [r3, #12]
 80068fa:	2101      	movs	r1, #1
 80068fc:	f004 f8a2 	bl	800aa44 <fwrite>
 8006900:	e7a2      	b.n	8006848 <acconeer_main.constprop.0+0x9e8>
 8006902:	6925      	ldr	r5, [r4, #16]
 8006904:	68a0      	ldr	r0, [r4, #8]
 8006906:	f895 11c6 	ldrb.w	r1, [r5, #454]	; 0x1c6
 800690a:	2201      	movs	r2, #1
 800690c:	f7fa fe9a 	bl	8001644 <acc_sensor_protocol_a121_ack_event>
 8006910:	f895 31c5 	ldrb.w	r3, [r5, #453]	; 0x1c5
 8006914:	2b00      	cmp	r3, #0
 8006916:	d03a      	beq.n	800698e <acconeer_main.constprop.0+0xb2e>
 8006918:	f895 31c6 	ldrb.w	r3, [r5, #454]	; 0x1c6
 800691c:	2b02      	cmp	r3, #2
 800691e:	bf0c      	ite	eq
 8006920:	2301      	moveq	r3, #1
 8006922:	2302      	movne	r3, #2
 8006924:	f885 31c6 	strb.w	r3, [r5, #454]	; 0x1c6
 8006928:	2800      	cmp	r0, #0
 800692a:	d1c7      	bne.n	80068bc <acconeer_main.constprop.0+0xa5c>
 800692c:	e784      	b.n	8006838 <acconeer_main.constprop.0+0x9d8>
 800692e:	88a3      	ldrh	r3, [r4, #4]
 8006930:	88e1      	ldrh	r1, [r4, #6]
 8006932:	9a3b      	ldr	r2, [sp, #236]	; 0xec
 8006934:	440b      	add	r3, r1
 8006936:	ebb2 0f43 	cmp.w	r2, r3, lsl #1
 800693a:	d206      	bcs.n	800694a <acconeer_main.constprop.0+0xaea>
 800693c:	f8da 303c 	ldr.w	r3, [sl, #60]	; 0x3c
 8006940:	4a29      	ldr	r2, [pc, #164]	; (80069e8 <acconeer_main.constprop.0+0xb88>)
 8006942:	4922      	ldr	r1, [pc, #136]	; (80069cc <acconeer_main.constprop.0+0xb6c>)
 8006944:	2000      	movs	r0, #0
 8006946:	4798      	blx	r3
 8006948:	e7c9      	b.n	80068de <acconeer_main.constprop.0+0xa7e>
 800694a:	f8d4 b010 	ldr.w	fp, [r4, #16]
 800694e:	68a6      	ldr	r6, [r4, #8]
 8006950:	9d3a      	ldr	r5, [sp, #232]	; 0xe8
 8006952:	2300      	movs	r3, #0
 8006954:	9328      	str	r3, [sp, #160]	; 0xa0
 8006956:	f89b 91c6 	ldrb.w	r9, [fp, #454]	; 0x1c6
 800695a:	f8ad 3080 	strh.w	r3, [sp, #128]	; 0x80
 800695e:	aa20      	add	r2, sp, #128	; 0x80
 8006960:	4630      	mov	r0, r6
 8006962:	2137      	movs	r1, #55	; 0x37
 8006964:	f7fa fd88 	bl	8001478 <acc_sensor_reg_read>
 8006968:	f1b9 0f01 	cmp.w	r9, #1
 800696c:	d011      	beq.n	8006992 <acconeer_main.constprop.0+0xb32>
 800696e:	f1b9 0f02 	cmp.w	r9, #2
 8006972:	bf14      	ite	ne
 8006974:	23c0      	movne	r3, #192	; 0xc0
 8006976:	2380      	moveq	r3, #128	; 0x80
 8006978:	f8bd 0080 	ldrh.w	r0, [sp, #128]	; 0x80
 800697c:	4018      	ands	r0, r3
 800697e:	d10a      	bne.n	8006996 <acconeer_main.constprop.0+0xb36>
 8006980:	f8da 403c 	ldr.w	r4, [sl, #60]	; 0x3c
 8006984:	4a19      	ldr	r2, [pc, #100]	; (80069ec <acconeer_main.constprop.0+0xb8c>)
 8006986:	491a      	ldr	r1, [pc, #104]	; (80069f0 <acconeer_main.constprop.0+0xb90>)
 8006988:	4633      	mov	r3, r6
 800698a:	47a0      	blx	r4
 800698c:	e7a7      	b.n	80068de <acconeer_main.constprop.0+0xa7e>
 800698e:	2301      	movs	r3, #1
 8006990:	e7c8      	b.n	8006924 <acconeer_main.constprop.0+0xac4>
 8006992:	2340      	movs	r3, #64	; 0x40
 8006994:	e7f0      	b.n	8006978 <acconeer_main.constprop.0+0xb18>
 8006996:	f89b 11c6 	ldrb.w	r1, [fp, #454]	; 0x1c6
 800699a:	aa28      	add	r2, sp, #160	; 0xa0
 800699c:	4630      	mov	r0, r6
 800699e:	f7fa fdf5 	bl	800158c <acc_sensor_protocol_a121_get_event>
 80069a2:	2800      	cmp	r0, #0
 80069a4:	d09b      	beq.n	80068de <acconeer_main.constprop.0+0xa7e>
 80069a6:	f8bd 30a0 	ldrh.w	r3, [sp, #160]	; 0xa0
 80069aa:	2b03      	cmp	r3, #3
 80069ac:	d024      	beq.n	80069f8 <acconeer_main.constprop.0+0xb98>
 80069ae:	f8bd 30a2 	ldrh.w	r3, [sp, #162]	; 0xa2
 80069b2:	9300      	str	r3, [sp, #0]
 80069b4:	f8da 403c 	ldr.w	r4, [sl, #60]	; 0x3c
 80069b8:	4a0e      	ldr	r2, [pc, #56]	; (80069f4 <acconeer_main.constprop.0+0xb94>)
 80069ba:	490d      	ldr	r1, [pc, #52]	; (80069f0 <acconeer_main.constprop.0+0xb90>)
 80069bc:	4633      	mov	r3, r6
 80069be:	2000      	movs	r0, #0
 80069c0:	47a0      	blx	r4
 80069c2:	e78c      	b.n	80068de <acconeer_main.constprop.0+0xa7e>
 80069c4:	1337b00e 	.word	0x1337b00e
 80069c8:	0800fbec 	.word	0x0800fbec
 80069cc:	0800fc04 	.word	0x0800fc04
 80069d0:	20000028 	.word	0x20000028
 80069d4:	08010384 	.word	0x08010384
 80069d8:	08010494 	.word	0x08010494
 80069dc:	08010598 	.word	0x08010598
 80069e0:	08010464 	.word	0x08010464
 80069e4:	080103a0 	.word	0x080103a0
 80069e8:	080103bc 	.word	0x080103bc
 80069ec:	080103d4 	.word	0x080103d4
 80069f0:	0800f860 	.word	0x0800f860
 80069f4:	080103f4 	.word	0x080103f4
 80069f8:	6921      	ldr	r1, [r4, #16]
 80069fa:	f8bd 20a2 	ldrh.w	r2, [sp, #162]	; 0xa2
 80069fe:	f891 31c4 	ldrb.w	r3, [r1, #452]	; 0x1c4
 8006a02:	f3c2 1200 	ubfx	r2, r2, #4, #1
 8006a06:	802a      	strh	r2, [r5, #0]
 8006a08:	b123      	cbz	r3, 8006a14 <acconeer_main.constprop.0+0xbb4>
 8006a0a:	f891 31c6 	ldrb.w	r3, [r1, #454]	; 0x1c6
 8006a0e:	1e5a      	subs	r2, r3, #1
 8006a10:	4253      	negs	r3, r2
 8006a12:	4153      	adcs	r3, r2
 8006a14:	806b      	strh	r3, [r5, #2]
 8006a16:	f8b1 31c8 	ldrh.w	r3, [r1, #456]	; 0x1c8
 8006a1a:	80ab      	strh	r3, [r5, #4]
 8006a1c:	1daa      	adds	r2, r5, #6
 8006a1e:	f501 73e5 	add.w	r3, r1, #458	; 0x1ca
 8006a22:	f501 79fd 	add.w	r9, r1, #506	; 0x1fa
 8006a26:	f8d3 c000 	ldr.w	ip, [r3]
 8006a2a:	685e      	ldr	r6, [r3, #4]
 8006a2c:	6898      	ldr	r0, [r3, #8]
 8006a2e:	f8d3 e00c 	ldr.w	lr, [r3, #12]
 8006a32:	f8c2 e00c 	str.w	lr, [r2, #12]
 8006a36:	3310      	adds	r3, #16
 8006a38:	454b      	cmp	r3, r9
 8006a3a:	f8c2 c000 	str.w	ip, [r2]
 8006a3e:	6056      	str	r6, [r2, #4]
 8006a40:	6090      	str	r0, [r2, #8]
 8006a42:	f102 0210 	add.w	r2, r2, #16
 8006a46:	d1ee      	bne.n	8006a26 <acconeer_main.constprop.0+0xbc6>
 8006a48:	f8b1 31fa 	ldrh.w	r3, [r1, #506]	; 0x1fa
 8006a4c:	86eb      	strh	r3, [r5, #54]	; 0x36
 8006a4e:	6923      	ldr	r3, [r4, #16]
 8006a50:	88e6      	ldrh	r6, [r4, #6]
 8006a52:	f893 31c6 	ldrb.w	r3, [r3, #454]	; 0x1c6
 8006a56:	2b01      	cmp	r3, #1
 8006a58:	bf0c      	ite	eq
 8006a5a:	2200      	moveq	r2, #0
 8006a5c:	f44f 5280 	movne.w	r2, #4096	; 0x1000
 8006a60:	f5b6 5f00 	cmp.w	r6, #8192	; 0x2000
 8006a64:	f200 814b 	bhi.w	8006cfe <acconeer_main.constprop.0+0xe9e>
 8006a68:	88a1      	ldrh	r1, [r4, #4]
 8006a6a:	68a0      	ldr	r0, [r4, #8]
 8006a6c:	eb05 0141 	add.w	r1, r5, r1, lsl #1
 8006a70:	4633      	mov	r3, r6
 8006a72:	f7fc fac7 	bl	8003004 <internal_buffer_processed_read.part.0.constprop.0>
 8006a76:	2800      	cmp	r0, #0
 8006a78:	f000 8147 	beq.w	8006d0a <acconeer_main.constprop.0+0xeaa>
 8006a7c:	2e00      	cmp	r6, #0
 8006a7e:	f43f af2e 	beq.w	80068de <acconeer_main.constprop.0+0xa7e>
 8006a82:	e9dd 3439 	ldrd	r3, r4, [sp, #228]	; 0xe4
 8006a86:	b123      	cbz	r3, 8006a92 <acconeer_main.constprop.0+0xc32>
 8006a88:	681a      	ldr	r2, [r3, #0]
 8006a8a:	49ca      	ldr	r1, [pc, #808]	; (8006db4 <acconeer_main.constprop.0+0xf54>)
 8006a8c:	428a      	cmp	r2, r1
 8006a8e:	f000 8106 	beq.w	8006c9e <acconeer_main.constprop.0+0xe3e>
 8006a92:	f8da 303c 	ldr.w	r3, [sl, #60]	; 0x3c
 8006a96:	4ac8      	ldr	r2, [pc, #800]	; (8006db8 <acconeer_main.constprop.0+0xf58>)
 8006a98:	49c8      	ldr	r1, [pc, #800]	; (8006dbc <acconeer_main.constprop.0+0xf5c>)
 8006a9a:	2000      	movs	r0, #0
 8006a9c:	4798      	blx	r3
 8006a9e:	b92c      	cbnz	r4, 8006aac <acconeer_main.constprop.0+0xc4c>
 8006aa0:	f8da 303c 	ldr.w	r3, [sl, #60]	; 0x3c
 8006aa4:	4ac6      	ldr	r2, [pc, #792]	; (8006dc0 <acconeer_main.constprop.0+0xf60>)
 8006aa6:	49c5      	ldr	r1, [pc, #788]	; (8006dbc <acconeer_main.constprop.0+0xf5c>)
 8006aa8:	2000      	movs	r0, #0
 8006aaa:	4798      	blx	r3
 8006aac:	683a      	ldr	r2, [r7, #0]
 8006aae:	f8bd 31b2 	ldrh.w	r3, [sp, #434]	; 0x1b2
 8006ab2:	4293      	cmp	r3, r2
 8006ab4:	f040 81ac 	bne.w	8006e10 <acconeer_main.constprop.0+0xfb0>
 8006ab8:	b1da      	cbz	r2, 8006af2 <acconeer_main.constprop.0+0xc92>
 8006aba:	9b75      	ldr	r3, [sp, #468]	; 0x1d4
 8006abc:	6879      	ldr	r1, [r7, #4]
 8006abe:	eb03 0082 	add.w	r0, r3, r2, lsl #2
 8006ac2:	f9b3 4002 	ldrsh.w	r4, [r3, #2]
 8006ac6:	ee07 4a10 	vmov	s14, r4
 8006aca:	f933 4b04 	ldrsh.w	r4, [r3], #4
 8006ace:	eeb8 7ac7 	vcvt.f32.s32	s14, s14
 8006ad2:	ee07 4a90 	vmov	s15, r4
 8006ad6:	ee67 6a08 	vmul.f32	s13, s14, s16
 8006ada:	eef8 7ae7 	vcvt.f32.s32	s15, s15
 8006ade:	4298      	cmp	r0, r3
 8006ae0:	ee77 7aa6 	vadd.f32	s15, s15, s13
 8006ae4:	ed81 7a01 	vstr	s14, [r1, #4]
 8006ae8:	edc1 7a00 	vstr	s15, [r1]
 8006aec:	f101 0108 	add.w	r1, r1, #8
 8006af0:	d1e7      	bne.n	8006ac2 <acconeer_main.constprop.0+0xc62>
 8006af2:	9b06      	ldr	r3, [sp, #24]
 8006af4:	f8d3 b000 	ldr.w	fp, [r3]
 8006af8:	4593      	cmp	fp, r2
 8006afa:	f040 8183 	bne.w	8006e04 <acconeer_main.constprop.0+0xfa4>
 8006afe:	f8d8 e000 	ldr.w	lr, [r8]
 8006b02:	f01e 0901 	ands.w	r9, lr, #1
 8006b06:	f000 814f 	beq.w	8006da8 <acconeer_main.constprop.0+0xf48>
 8006b0a:	ea4f 065e 	mov.w	r6, lr, lsr #1
 8006b0e:	2a00      	cmp	r2, #0
 8006b10:	f000 80bc 	beq.w	8006c8c <acconeer_main.constprop.0+0xe2c>
 8006b14:	9906      	ldr	r1, [sp, #24]
 8006b16:	4bab      	ldr	r3, [pc, #684]	; (8006dc4 <acconeer_main.constprop.0+0xf64>)
 8006b18:	684c      	ldr	r4, [r1, #4]
 8006b1a:	edd3 4a00 	vldr	s9, [r3]
 8006b1e:	ed93 5a01 	vldr	s10, [r3, #4]
 8006b22:	eb04 03c2 	add.w	r3, r4, r2, lsl #3
 8006b26:	9305      	str	r3, [sp, #20]
 8006b28:	4276      	negs	r6, r6
 8006b2a:	4623      	mov	r3, r4
 8006b2c:	edc3 4a00 	vstr	s9, [r3]
 8006b30:	ed83 5a01 	vstr	s10, [r3, #4]
 8006b34:	4631      	mov	r1, r6
 8006b36:	3308      	adds	r3, #8
 8006b38:	2000      	movs	r0, #0
 8006b3a:	9407      	str	r4, [sp, #28]
 8006b3c:	2900      	cmp	r1, #0
 8006b3e:	db1e      	blt.n	8006b7e <acconeer_main.constprop.0+0xd1e>
 8006b40:	428a      	cmp	r2, r1
 8006b42:	d91c      	bls.n	8006b7e <acconeer_main.constprop.0+0xd1e>
 8006b44:	687d      	ldr	r5, [r7, #4]
 8006b46:	f8d8 4004 	ldr.w	r4, [r8, #4]
 8006b4a:	ed13 6a01 	vldr	s12, [r3, #-4]
 8006b4e:	ed53 6a02 	vldr	s13, [r3, #-8]
 8006b52:	eb05 05c1 	add.w	r5, r5, r1, lsl #3
 8006b56:	eb04 0c80 	add.w	ip, r4, r0, lsl #2
 8006b5a:	ed9c 7a00 	vldr	s14, [ip]
 8006b5e:	edd5 7a01 	vldr	s15, [r5, #4]
 8006b62:	edd5 5a00 	vldr	s11, [r5]
 8006b66:	ee67 7a27 	vmul.f32	s15, s14, s15
 8006b6a:	ee27 7a25 	vmul.f32	s14, s14, s11
 8006b6e:	ee77 7a86 	vadd.f32	s15, s15, s12
 8006b72:	ee36 7a87 	vadd.f32	s14, s13, s14
 8006b76:	ed43 7a01 	vstr	s15, [r3, #-4]
 8006b7a:	ed03 7a02 	vstr	s14, [r3, #-8]
 8006b7e:	3001      	adds	r0, #1
 8006b80:	4586      	cmp	lr, r0
 8006b82:	f101 0101 	add.w	r1, r1, #1
 8006b86:	d8d9      	bhi.n	8006b3c <acconeer_main.constprop.0+0xcdc>
 8006b88:	9905      	ldr	r1, [sp, #20]
 8006b8a:	9c07      	ldr	r4, [sp, #28]
 8006b8c:	4299      	cmp	r1, r3
 8006b8e:	f106 0601 	add.w	r6, r6, #1
 8006b92:	d1cb      	bne.n	8006b2c <acconeer_main.constprop.0+0xccc>
 8006b94:	9b08      	ldr	r3, [sp, #32]
 8006b96:	681e      	ldr	r6, [r3, #0]
 8006b98:	45b3      	cmp	fp, r6
 8006b9a:	f040 8146 	bne.w	8006e2a <acconeer_main.constprop.0+0xfca>
 8006b9e:	9b08      	ldr	r3, [sp, #32]
 8006ba0:	685d      	ldr	r5, [r3, #4]
 8006ba2:	46ab      	mov	fp, r5
 8006ba4:	ed94 0a00 	vldr	s0, [r4]
 8006ba8:	edd4 0a01 	vldr	s1, [r4, #4]
 8006bac:	f002 fdd6 	bl	800975c <cabsf>
 8006bb0:	9b05      	ldr	r3, [sp, #20]
 8006bb2:	ecab 0a01 	vstmia	fp!, {s0}
 8006bb6:	3408      	adds	r4, #8
 8006bb8:	42a3      	cmp	r3, r4
 8006bba:	d1f3      	bne.n	8006ba4 <acconeer_main.constprop.0+0xd44>
 8006bbc:	1e73      	subs	r3, r6, #1
 8006bbe:	2b01      	cmp	r3, #1
 8006bc0:	f240 812c 	bls.w	8006e1c <acconeer_main.constprop.0+0xfbc>
 8006bc4:	eeb0 7a49 	vmov.f32	s14, s18
 8006bc8:	1d2a      	adds	r2, r5, #4
 8006bca:	f04f 34ff 	mov.w	r4, #4294967295	; 0xffffffff
 8006bce:	ecf2 7a01 	vldmia	r2!, {s15}
 8006bd2:	eef4 7ac7 	vcmpe.f32	s15, s14
 8006bd6:	eef1 fa10 	vmrs	APSR_nzcv, fpscr
 8006bda:	bfc8      	it	gt
 8006bdc:	464c      	movgt	r4, r9
 8006bde:	f109 0901 	add.w	r9, r9, #1
 8006be2:	bfc8      	it	gt
 8006be4:	eeb0 7a67 	vmovgt.f32	s14, s15
 8006be8:	454b      	cmp	r3, r9
 8006bea:	d1f0      	bne.n	8006bce <acconeer_main.constprop.0+0xd6e>
 8006bec:	f104 4380 	add.w	r3, r4, #1073741824	; 0x40000000
 8006bf0:	3b01      	subs	r3, #1
 8006bf2:	eb05 0383 	add.w	r3, r5, r3, lsl #2
 8006bf6:	ed93 7a00 	vldr	s14, [r3]
 8006bfa:	ed93 6a01 	vldr	s12, [r3, #4]
 8006bfe:	edd3 6a02 	vldr	s13, [r3, #8]
 8006c02:	9b36      	ldr	r3, [sp, #216]	; 0xd8
 8006c04:	eef1 5a00 	vmov.f32	s11, #16	; 0x40800000  4.0
 8006c08:	ee77 7a07 	vadd.f32	s15, s14, s14
 8006c0c:	ee26 6a25 	vmul.f32	s12, s12, s11
 8006c10:	ee76 5aa6 	vadd.f32	s11, s13, s13
 8006c14:	ee77 7ac6 	vsub.f32	s15, s15, s12
 8006c18:	ee37 7a66 	vsub.f32	s14, s14, s13
 8006c1c:	ee77 7aa5 	vadd.f32	s15, s15, s11
 8006c20:	ee87 aa27 	vdiv.f32	s20, s14, s15
 8006c24:	b11b      	cbz	r3, 8006c2e <acconeer_main.constprop.0+0xdce>
 8006c26:	681a      	ldr	r2, [r3, #0]
 8006c28:	4967      	ldr	r1, [pc, #412]	; (8006dc8 <acconeer_main.constprop.0+0xf68>)
 8006c2a:	428a      	cmp	r2, r1
 8006c2c:	d02c      	beq.n	8006c88 <acconeer_main.constprop.0+0xe28>
 8006c2e:	2000      	movs	r0, #0
 8006c30:	f8da 303c 	ldr.w	r3, [sl, #60]	; 0x3c
 8006c34:	4a65      	ldr	r2, [pc, #404]	; (8006dcc <acconeer_main.constprop.0+0xf6c>)
 8006c36:	4966      	ldr	r1, [pc, #408]	; (8006dd0 <acconeer_main.constprop.0+0xf70>)
 8006c38:	4798      	blx	r3
 8006c3a:	2000      	movs	r0, #0
 8006c3c:	f7fd ff7c 	bl	8004b38 <acc_translation_a121_points_to_meter>
 8006c40:	9836      	ldr	r0, [sp, #216]	; 0xd8
 8006c42:	eef0 9a40 	vmov.f32	s19, s0
 8006c46:	f7fc fb1f 	bl	8003288 <acc_config_step_length_get>
 8006c4a:	f7fd ff75 	bl	8004b38 <acc_translation_a121_points_to_meter>
 8006c4e:	ee07 4a90 	vmov	s15, r4
 8006c52:	eef8 7a67 	vcvt.f32.u32	s15, s15
 8006c56:	eef6 6a00 	vmov.f32	s13, #96	; 0x3f000000  0.5
 8006c5a:	ee77 7a8a 	vadd.f32	s15, s15, s20
 8006c5e:	485d      	ldr	r0, [pc, #372]	; (8006dd4 <acconeer_main.constprop.0+0xf74>)
 8006c60:	ee27 7a80 	vmul.f32	s14, s15, s0
 8006c64:	ee37 0a29 	vadd.f32	s0, s14, s19
 8006c68:	ee60 7a28 	vmul.f32	s15, s0, s17
 8006c6c:	ee77 7aa6 	vadd.f32	s15, s15, s13
 8006c70:	eefd 7ae7 	vcvt.s32.f32	s15, s15
 8006c74:	ee17 1a90 	vmov	r1, s15
 8006c78:	f003 ff2e 	bl	800aad8 <__wrap_printf>
 8006c7c:	9b09      	ldr	r3, [sp, #36]	; 0x24
 8006c7e:	3b01      	subs	r3, #1
 8006c80:	9309      	str	r3, [sp, #36]	; 0x24
 8006c82:	f47f adcd 	bne.w	8006820 <acconeer_main.constprop.0+0x9c0>
 8006c86:	e5e6      	b.n	8006856 <acconeer_main.constprop.0+0x9f6>
 8006c88:	6858      	ldr	r0, [r3, #4]
 8006c8a:	e7d7      	b.n	8006c3c <acconeer_main.constprop.0+0xddc>
 8006c8c:	9a08      	ldr	r2, [sp, #32]
 8006c8e:	6813      	ldr	r3, [r2, #0]
 8006c90:	2b00      	cmp	r3, #0
 8006c92:	f040 80ca 	bne.w	8006e2a <acconeer_main.constprop.0+0xfca>
 8006c96:	6855      	ldr	r5, [r2, #4]
 8006c98:	f04f 33ff 	mov.w	r3, #4294967295	; 0xffffffff
 8006c9c:	e792      	b.n	8006bc4 <acconeer_main.constprop.0+0xd64>
 8006c9e:	2c00      	cmp	r4, #0
 8006ca0:	f43f aefe 	beq.w	8006aa0 <acconeer_main.constprop.0+0xc40>
 8006ca4:	f8d3 c004 	ldr.w	ip, [r3, #4]
 8006ca8:	f8dc 0000 	ldr.w	r0, [ip]
 8006cac:	8f05      	ldrh	r5, [r0, #56]	; 0x38
 8006cae:	f8b0 1094 	ldrh.w	r1, [r0, #148]	; 0x94
 8006cb2:	f8b0 2096 	ldrh.w	r2, [r0, #150]	; 0x96
 8006cb6:	f8d0 6098 	ldr.w	r6, [r0, #152]	; 0x98
 8006cba:	eb04 0545 	add.w	r5, r4, r5, lsl #1
 8006cbe:	f50d 7ee6 	add.w	lr, sp, #460	; 0x1cc
 8006cc2:	eb04 0141 	add.w	r1, r4, r1, lsl #1
 8006cc6:	eb04 0242 	add.w	r2, r4, r2, lsl #1
 8006cca:	f8c3 e008 	str.w	lr, [r3, #8]
 8006cce:	e9c0 1213 	strd	r1, r2, [r0, #76]	; 0x4c
 8006cd2:	6145      	str	r5, [r0, #20]
 8006cd4:	b14e      	cbz	r6, 8006cea <acconeer_main.constprop.0+0xe8a>
 8006cd6:	f8b0 209c 	ldrh.w	r2, [r0, #156]	; 0x9c
 8006cda:	f8b0 309e 	ldrh.w	r3, [r0, #158]	; 0x9e
 8006cde:	eb04 0242 	add.w	r2, r4, r2, lsl #1
 8006ce2:	eb04 0343 	add.w	r3, r4, r3, lsl #1
 8006ce6:	e9c6 2304 	strd	r2, r3, [r6, #16]
 8006cea:	f8b0 30e4 	ldrh.w	r3, [r0, #228]	; 0xe4
 8006cee:	f8dc 2004 	ldr.w	r2, [ip, #4]
 8006cf2:	eb04 0443 	add.w	r4, r4, r3, lsl #1
 8006cf6:	f8c0 40b0 	str.w	r4, [r0, #176]	; 0xb0
 8006cfa:	4790      	blx	r2
 8006cfc:	e6d6      	b.n	8006aac <acconeer_main.constprop.0+0xc4c>
 8006cfe:	f8da 303c 	ldr.w	r3, [sl, #60]	; 0x3c
 8006d02:	4a35      	ldr	r2, [pc, #212]	; (8006dd8 <acconeer_main.constprop.0+0xf78>)
 8006d04:	4935      	ldr	r1, [pc, #212]	; (8006ddc <acconeer_main.constprop.0+0xf7c>)
 8006d06:	2000      	movs	r0, #0
 8006d08:	4798      	blx	r3
 8006d0a:	f8da 303c 	ldr.w	r3, [sl, #60]	; 0x3c
 8006d0e:	4a34      	ldr	r2, [pc, #208]	; (8006de0 <acconeer_main.constprop.0+0xf80>)
 8006d10:	4934      	ldr	r1, [pc, #208]	; (8006de4 <acconeer_main.constprop.0+0xf84>)
 8006d12:	2000      	movs	r0, #0
 8006d14:	4798      	blx	r3
 8006d16:	e5e2      	b.n	80068de <acconeer_main.constprop.0+0xa7e>
 8006d18:	4833      	ldr	r0, [pc, #204]	; (8006de8 <acconeer_main.constprop.0+0xf88>)
 8006d1a:	f003 fec7 	bl	800aaac <__wrap_puts>
 8006d1e:	a836      	add	r0, sp, #216	; 0xd8
 8006d20:	f7fc f8d8 	bl	8002ed4 <acc_control_helper_destroy>
 8006d24:	e5a0      	b.n	8006868 <acconeer_main.constprop.0+0xa08>
 8006d26:	6120      	str	r0, [r4, #16]
 8006d28:	4620      	mov	r0, r4
 8006d2a:	f7fa fa9f 	bl	800126c <acc_rss_integration_mem_free>
 8006d2e:	e427      	b.n	8006580 <acconeer_main.constprop.0+0x720>
 8006d30:	f8d7 3098 	ldr.w	r3, [r7, #152]	; 0x98
 8006d34:	9c08      	ldr	r4, [sp, #32]
 8006d36:	9309      	str	r3, [sp, #36]	; 0x24
 8006d38:	f7ff bb2a 	b.w	8006390 <acconeer_main.constprop.0+0x530>
 8006d3c:	68a0      	ldr	r0, [r4, #8]
 8006d3e:	f8ad 30a0 	strh.w	r3, [sp, #160]	; 0xa0
 8006d42:	aa28      	add	r2, sp, #160	; 0xa0
 8006d44:	2131      	movs	r1, #49	; 0x31
 8006d46:	f7fa fb97 	bl	8001478 <acc_sensor_reg_read>
 8006d4a:	7b23      	ldrb	r3, [r4, #12]
 8006d4c:	f8bd 20a0 	ldrh.w	r2, [sp, #160]	; 0xa0
 8006d50:	2b00      	cmp	r3, #0
 8006d52:	f47f acd1 	bne.w	80066f8 <acconeer_main.constprop.0+0x898>
 8006d56:	f64a 43c0 	movw	r3, #44224	; 0xacc0
 8006d5a:	429a      	cmp	r2, r3
 8006d5c:	f43f accc 	beq.w	80066f8 <acconeer_main.constprop.0+0x898>
 8006d60:	1da2      	adds	r2, r4, #6
 8006d62:	1d23      	adds	r3, r4, #4
 8006d64:	e9cd 3202 	strd	r3, r2, [sp, #8]
 8006d68:	6923      	ldr	r3, [r4, #16]
 8006d6a:	e9cd 7300 	strd	r7, r3, [sp]
 8006d6e:	aa3c      	add	r2, sp, #240	; 0xf0
 8006d70:	68a0      	ldr	r0, [r4, #8]
 8006d72:	4633      	mov	r3, r6
 8006d74:	4629      	mov	r1, r5
 8006d76:	f7fd fe09 	bl	800498c <acc_radar_engine_a121_prepare>
 8006d7a:	e4ca      	b.n	8006712 <acconeer_main.constprop.0+0x8b2>
 8006d7c:	63fb      	str	r3, [r7, #60]	; 0x3c
 8006d7e:	f7ff bb1d 	b.w	80063bc <acconeer_main.constprop.0+0x55c>
 8006d82:	4b1a      	ldr	r3, [pc, #104]	; (8006dec <acconeer_main.constprop.0+0xf8c>)
 8006d84:	930f      	str	r3, [sp, #60]	; 0x3c
 8006d86:	4b1a      	ldr	r3, [pc, #104]	; (8006df0 <acconeer_main.constprop.0+0xf90>)
 8006d88:	9310      	str	r3, [sp, #64]	; 0x40
 8006d8a:	4b1a      	ldr	r3, [pc, #104]	; (8006df4 <acconeer_main.constprop.0+0xf94>)
 8006d8c:	9311      	str	r3, [sp, #68]	; 0x44
 8006d8e:	f7ff baff 	b.w	8006390 <acconeer_main.constprop.0+0x530>
 8006d92:	9b09      	ldr	r3, [sp, #36]	; 0x24
 8006d94:	4632      	mov	r2, r6
 8006d96:	eb03 0382 	add.w	r3, r3, r2, lsl #2
 8006d9a:	e9dd 4615 	ldrd	r4, r6, [sp, #84]	; 0x54
 8006d9e:	e9dd 7817 	ldrd	r7, r8, [sp, #92]	; 0x5c
 8006da2:	64d8      	str	r0, [r3, #76]	; 0x4c
 8006da4:	f7ff bacf 	b.w	8006346 <acconeer_main.constprop.0+0x4e6>
 8006da8:	4b13      	ldr	r3, [pc, #76]	; (8006df8 <acconeer_main.constprop.0+0xf98>)
 8006daa:	4a14      	ldr	r2, [pc, #80]	; (8006dfc <acconeer_main.constprop.0+0xf9c>)
 8006dac:	4814      	ldr	r0, [pc, #80]	; (8006e00 <acconeer_main.constprop.0+0xfa0>)
 8006dae:	21ce      	movs	r1, #206	; 0xce
 8006db0:	f002 fdc0 	bl	8009934 <__assert_func>
 8006db4:	1337b00d 	.word	0x1337b00d
 8006db8:	0800fc0c 	.word	0x0800fc0c
 8006dbc:	0800fc28 	.word	0x0800fc28
 8006dc0:	0801047c 	.word	0x0801047c
 8006dc4:	0800c310 	.word	0x0800c310
 8006dc8:	1337b00f 	.word	0x1337b00f
 8006dcc:	0800fc34 	.word	0x0800fc34
 8006dd0:	0800fc4c 	.word	0x0800fc4c
 8006dd4:	08010578 	.word	0x08010578
 8006dd8:	08010420 	.word	0x08010420
 8006ddc:	0800fb50 	.word	0x0800fb50
 8006de0:	08010438 	.word	0x08010438
 8006de4:	0800f860 	.word	0x0800f860
 8006de8:	080105e8 	.word	0x080105e8
 8006dec:	08000955 	.word	0x08000955
 8006df0:	08000b01 	.word	0x08000b01
 8006df4:	08000969 	.word	0x08000969
 8006df8:	08010518 	.word	0x08010518
 8006dfc:	0800c2f4 	.word	0x0800c2f4
 8006e00:	08010354 	.word	0x08010354
 8006e04:	4b13      	ldr	r3, [pc, #76]	; (8006e54 <acconeer_main.constprop.0+0xff4>)
 8006e06:	4a14      	ldr	r2, [pc, #80]	; (8006e58 <acconeer_main.constprop.0+0xff8>)
 8006e08:	4814      	ldr	r0, [pc, #80]	; (8006e5c <acconeer_main.constprop.0+0xffc>)
 8006e0a:	21cd      	movs	r1, #205	; 0xcd
 8006e0c:	f002 fd92 	bl	8009934 <__assert_func>
 8006e10:	4b13      	ldr	r3, [pc, #76]	; (8006e60 <acconeer_main.constprop.0+0x1000>)
 8006e12:	4a14      	ldr	r2, [pc, #80]	; (8006e64 <acconeer_main.constprop.0+0x1004>)
 8006e14:	4811      	ldr	r0, [pc, #68]	; (8006e5c <acconeer_main.constprop.0+0xffc>)
 8006e16:	218e      	movs	r1, #142	; 0x8e
 8006e18:	f002 fd8c 	bl	8009934 <__assert_func>
 8006e1c:	4b12      	ldr	r3, [pc, #72]	; (8006e68 <acconeer_main.constprop.0+0x1008>)
 8006e1e:	4a13      	ldr	r2, [pc, #76]	; (8006e6c <acconeer_main.constprop.0+0x100c>)
 8006e20:	480e      	ldr	r0, [pc, #56]	; (8006e5c <acconeer_main.constprop.0+0xffc>)
 8006e22:	f44f 71be 	mov.w	r1, #380	; 0x17c
 8006e26:	f002 fd85 	bl	8009934 <__assert_func>
 8006e2a:	4b0a      	ldr	r3, [pc, #40]	; (8006e54 <acconeer_main.constprop.0+0xff4>)
 8006e2c:	4a10      	ldr	r2, [pc, #64]	; (8006e70 <acconeer_main.constprop.0+0x1010>)
 8006e2e:	480b      	ldr	r0, [pc, #44]	; (8006e5c <acconeer_main.constprop.0+0xffc>)
 8006e30:	f240 1133 	movw	r1, #307	; 0x133
 8006e34:	f002 fd7e 	bl	8009934 <__assert_func>
 8006e38:	480e      	ldr	r0, [pc, #56]	; (8006e74 <acconeer_main.constprop.0+0x1014>)
 8006e3a:	f003 fe37 	bl	800aaac <__wrap_puts>
 8006e3e:	e50a      	b.n	8006856 <acconeer_main.constprop.0+0x9f6>
 8006e40:	4b0d      	ldr	r3, [pc, #52]	; (8006e78 <acconeer_main.constprop.0+0x1018>)
 8006e42:	4a0e      	ldr	r2, [pc, #56]	; (8006e7c <acconeer_main.constprop.0+0x101c>)
 8006e44:	4805      	ldr	r0, [pc, #20]	; (8006e5c <acconeer_main.constprop.0+0xffc>)
 8006e46:	21b0      	movs	r1, #176	; 0xb0
 8006e48:	f002 fd74 	bl	8009934 <__assert_func>
 8006e4c:	f04f 0c00 	mov.w	ip, #0
 8006e50:	f7ff ba05 	b.w	800625e <acconeer_main.constprop.0+0x3fe>
 8006e54:	080104e4 	.word	0x080104e4
 8006e58:	0800c2f4 	.word	0x0800c2f4
 8006e5c:	08010354 	.word	0x08010354
 8006e60:	080104bc 	.word	0x080104bc
 8006e64:	0800c2dc 	.word	0x0800c2dc
 8006e68:	0801053c 	.word	0x0801053c
 8006e6c:	0800c330 	.word	0x0800c330
 8006e70:	0800c318 	.word	0x0800c318
 8006e74:	080105e8 	.word	0x080105e8
 8006e78:	0801033c 	.word	0x0801033c
 8006e7c:	0800c2b0 	.word	0x0800c2b0

08006e80 <acc_integration_log>:
 8006e80:	b40c      	push	{r2, r3}
 8006e82:	e92d 41f0 	stmdb	sp!, {r4, r5, r6, r7, r8, lr}
 8006e86:	b0ac      	sub	sp, #176	; 0xb0
 8006e88:	ab32      	add	r3, sp, #200	; 0xc8
 8006e8a:	f10d 0818 	add.w	r8, sp, #24
 8006e8e:	f853 2b04 	ldr.w	r2, [r3], #4
 8006e92:	9305      	str	r3, [sp, #20]
 8006e94:	4606      	mov	r6, r0
 8006e96:	460f      	mov	r7, r1
 8006e98:	4640      	mov	r0, r8
 8006e9a:	2196      	movs	r1, #150	; 0x96
 8006e9c:	f003 fe42 	bl	800ab24 <__wrap_vsnprintf>
 8006ea0:	2895      	cmp	r0, #149	; 0x95
 8006ea2:	dd06      	ble.n	8006eb2 <acc_integration_log+0x32>
 8006ea4:	f642 622e 	movw	r2, #11822	; 0x2e2e
 8006ea8:	232e      	movs	r3, #46	; 0x2e
 8006eaa:	f8ad 20aa 	strh.w	r2, [sp, #170]	; 0xaa
 8006eae:	f8ad 30ac 	strh.w	r3, [sp, #172]	; 0xac
 8006eb2:	4b1d      	ldr	r3, [pc, #116]	; (8006f28 <acc_integration_log+0xa8>)
 8006eb4:	4a1d      	ldr	r2, [pc, #116]	; (8006f2c <acc_integration_log+0xac>)
 8006eb6:	6818      	ldr	r0, [r3, #0]
 8006eb8:	4d1d      	ldr	r5, [pc, #116]	; (8006f30 <acc_integration_log+0xb0>)
 8006eba:	4b1e      	ldr	r3, [pc, #120]	; (8006f34 <acc_integration_log+0xb4>)
 8006ebc:	4c1e      	ldr	r4, [pc, #120]	; (8006f38 <acc_integration_log+0xb8>)
 8006ebe:	fba2 1200 	umull	r1, r2, r2, r0
 8006ec2:	fba5 1500 	umull	r1, r5, r5, r0
 8006ec6:	ea4f 3c92 	mov.w	ip, r2, lsr #14
 8006eca:	09ad      	lsrs	r5, r5, #6
 8006ecc:	fba3 120c 	umull	r1, r2, r3, ip
 8006ed0:	fba3 1305 	umull	r1, r3, r3, r5
 8006ed4:	095b      	lsrs	r3, r3, #5
 8006ed6:	fba4 1400 	umull	r1, r4, r4, r0
 8006eda:	2e04      	cmp	r6, #4
 8006edc:	f44f 717a 	mov.w	r1, #1000	; 0x3e8
 8006ee0:	ebc3 1303 	rsb	r3, r3, r3, lsl #4
 8006ee4:	eba5 0383 	sub.w	r3, r5, r3, lsl #2
 8006ee8:	fb01 0515 	mls	r5, r1, r5, r0
 8006eec:	bf98      	it	ls
 8006eee:	4813      	ldrls	r0, [pc, #76]	; (8006f3c <acc_integration_log+0xbc>)
 8006ef0:	ea4f 1252 	mov.w	r2, r2, lsr #5
 8006ef4:	bf94      	ite	ls
 8006ef6:	5d80      	ldrbls	r0, [r0, r6]
 8006ef8:	203f      	movhi	r0, #63	; 0x3f
 8006efa:	ebc2 1202 	rsb	r2, r2, r2, lsl #4
 8006efe:	e9cd 5000 	strd	r5, r0, [sp]
 8006f02:	ebac 0282 	sub.w	r2, ip, r2, lsl #2
 8006f06:	0d61      	lsrs	r1, r4, #21
 8006f08:	e9cd 7802 	strd	r7, r8, [sp, #8]
 8006f0c:	480c      	ldr	r0, [pc, #48]	; (8006f40 <acc_integration_log+0xc0>)
 8006f0e:	f003 fde3 	bl	800aad8 <__wrap_printf>
 8006f12:	4b0c      	ldr	r3, [pc, #48]	; (8006f44 <acc_integration_log+0xc4>)
 8006f14:	681b      	ldr	r3, [r3, #0]
 8006f16:	6898      	ldr	r0, [r3, #8]
 8006f18:	f002 fdf2 	bl	8009b00 <fflush>
 8006f1c:	b02c      	add	sp, #176	; 0xb0
 8006f1e:	e8bd 41f0 	ldmia.w	sp!, {r4, r5, r6, r7, r8, lr}
 8006f22:	b002      	add	sp, #8
 8006f24:	4770      	bx	lr
 8006f26:	bf00      	nop
 8006f28:	200000ac 	.word	0x200000ac
 8006f2c:	45e7b273 	.word	0x45e7b273
 8006f30:	10624dd3 	.word	0x10624dd3
 8006f34:	88888889 	.word	0x88888889
 8006f38:	95217cb1 	.word	0x95217cb1
 8006f3c:	08010634 	.word	0x08010634
 8006f40:	08010610 	.word	0x08010610
 8006f44:	20000028 	.word	0x20000028

08006f48 <HAL_UART_Transmit>:
 8006f48:	e92d 41f0 	stmdb	sp!, {r4, r5, r6, r7, r8, lr}
 8006f4c:	4604      	mov	r4, r0
 8006f4e:	6f80      	ldr	r0, [r0, #120]	; 0x78
 8006f50:	2820      	cmp	r0, #32
 8006f52:	d142      	bne.n	8006fda <HAL_UART_Transmit+0x92>
 8006f54:	460d      	mov	r5, r1
 8006f56:	2900      	cmp	r1, #0
 8006f58:	d03c      	beq.n	8006fd4 <HAL_UART_Transmit+0x8c>
 8006f5a:	2a00      	cmp	r2, #0
 8006f5c:	d03a      	beq.n	8006fd4 <HAL_UART_Transmit+0x8c>
 8006f5e:	461e      	mov	r6, r3
 8006f60:	f894 3074 	ldrb.w	r3, [r4, #116]	; 0x74
 8006f64:	2b01      	cmp	r3, #1
 8006f66:	d038      	beq.n	8006fda <HAL_UART_Transmit+0x92>
 8006f68:	2321      	movs	r3, #33	; 0x21
 8006f6a:	2700      	movs	r7, #0
 8006f6c:	f8c4 7080 	str.w	r7, [r4, #128]	; 0x80
 8006f70:	67a3      	str	r3, [r4, #120]	; 0x78
 8006f72:	68a3      	ldr	r3, [r4, #8]
 8006f74:	4924      	ldr	r1, [pc, #144]	; (8007008 <HAL_UART_Transmit+0xc0>)
 8006f76:	f8a4 2050 	strh.w	r2, [r4, #80]	; 0x50
 8006f7a:	f5b3 5f80 	cmp.w	r3, #4096	; 0x1000
 8006f7e:	f8d1 8000 	ldr.w	r8, [r1]
 8006f82:	f8a4 2052 	strh.w	r2, [r4, #82]	; 0x52
 8006f86:	d02b      	beq.n	8006fe0 <HAL_UART_Transmit+0x98>
 8006f88:	f8b4 3052 	ldrh.w	r3, [r4, #82]	; 0x52
 8006f8c:	2200      	movs	r2, #0
 8006f8e:	b29b      	uxth	r3, r3
 8006f90:	f884 2074 	strb.w	r2, [r4, #116]	; 0x74
 8006f94:	b973      	cbnz	r3, 8006fb4 <HAL_UART_Transmit+0x6c>
 8006f96:	e02c      	b.n	8006ff2 <HAL_UART_Transmit+0xaa>
 8006f98:	6823      	ldr	r3, [r4, #0]
 8006f9a:	f815 2b01 	ldrb.w	r2, [r5], #1
 8006f9e:	851a      	strh	r2, [r3, #40]	; 0x28
 8006fa0:	f8b4 0052 	ldrh.w	r0, [r4, #82]	; 0x52
 8006fa4:	3801      	subs	r0, #1
 8006fa6:	b280      	uxth	r0, r0
 8006fa8:	f8a4 0052 	strh.w	r0, [r4, #82]	; 0x52
 8006fac:	f8b4 1052 	ldrh.w	r1, [r4, #82]	; 0x52
 8006fb0:	b289      	uxth	r1, r1
 8006fb2:	b1f1      	cbz	r1, 8006ff2 <HAL_UART_Transmit+0xaa>
 8006fb4:	4633      	mov	r3, r6
 8006fb6:	4642      	mov	r2, r8
 8006fb8:	2180      	movs	r1, #128	; 0x80
 8006fba:	4620      	mov	r0, r4
 8006fbc:	f7f9 f956 	bl	800026c <UART_WaitOnFlagUntilTimeout.constprop.0>
 8006fc0:	b9a0      	cbnz	r0, 8006fec <HAL_UART_Transmit+0xa4>
 8006fc2:	2d00      	cmp	r5, #0
 8006fc4:	d1e8      	bne.n	8006f98 <HAL_UART_Transmit+0x50>
 8006fc6:	f837 3b02 	ldrh.w	r3, [r7], #2
 8006fca:	6822      	ldr	r2, [r4, #0]
 8006fcc:	f3c3 0308 	ubfx	r3, r3, #0, #9
 8006fd0:	8513      	strh	r3, [r2, #40]	; 0x28
 8006fd2:	e7e5      	b.n	8006fa0 <HAL_UART_Transmit+0x58>
 8006fd4:	2001      	movs	r0, #1
 8006fd6:	e8bd 81f0 	ldmia.w	sp!, {r4, r5, r6, r7, r8, pc}
 8006fda:	2002      	movs	r0, #2
 8006fdc:	e8bd 81f0 	ldmia.w	sp!, {r4, r5, r6, r7, r8, pc}
 8006fe0:	6923      	ldr	r3, [r4, #16]
 8006fe2:	2b00      	cmp	r3, #0
 8006fe4:	d1d0      	bne.n	8006f88 <HAL_UART_Transmit+0x40>
 8006fe6:	462f      	mov	r7, r5
 8006fe8:	461d      	mov	r5, r3
 8006fea:	e7cd      	b.n	8006f88 <HAL_UART_Transmit+0x40>
 8006fec:	2003      	movs	r0, #3
 8006fee:	e8bd 81f0 	ldmia.w	sp!, {r4, r5, r6, r7, r8, pc}
 8006ff2:	4633      	mov	r3, r6
 8006ff4:	4642      	mov	r2, r8
 8006ff6:	2140      	movs	r1, #64	; 0x40
 8006ff8:	4620      	mov	r0, r4
 8006ffa:	f7f9 f937 	bl	800026c <UART_WaitOnFlagUntilTimeout.constprop.0>
 8006ffe:	2800      	cmp	r0, #0
 8007000:	d1f4      	bne.n	8006fec <HAL_UART_Transmit+0xa4>
 8007002:	2320      	movs	r3, #32
 8007004:	67a3      	str	r3, [r4, #120]	; 0x78
 8007006:	e7e6      	b.n	8006fd6 <HAL_UART_Transmit+0x8e>
 8007008:	200000ac 	.word	0x200000ac

0800700c <SystemInit>:
 800700c:	4a03      	ldr	r2, [pc, #12]	; (800701c <SystemInit+0x10>)
 800700e:	f8d2 3088 	ldr.w	r3, [r2, #136]	; 0x88
 8007012:	f443 0370 	orr.w	r3, r3, #15728640	; 0xf00000
 8007016:	f8c2 3088 	str.w	r3, [r2, #136]	; 0x88
 800701a:	4770      	bx	lr
 800701c:	e000ed00 	.word	0xe000ed00

08007020 <RTC_Alarm_IRQHandler>:
 8007020:	b510      	push	{r4, lr}
 8007022:	4c18      	ldr	r4, [pc, #96]	; (8007084 <RTC_Alarm_IRQHandler+0x64>)
 8007024:	4a18      	ldr	r2, [pc, #96]	; (8007088 <RTC_Alarm_IRQHandler+0x68>)
 8007026:	6863      	ldr	r3, [r4, #4]
 8007028:	f44f 2180 	mov.w	r1, #262144	; 0x40000
 800702c:	6151      	str	r1, [r2, #20]
 800702e:	689a      	ldr	r2, [r3, #8]
 8007030:	04d2      	lsls	r2, r2, #19
 8007032:	d502      	bpl.n	800703a <RTC_Alarm_IRQHandler+0x1a>
 8007034:	68da      	ldr	r2, [r3, #12]
 8007036:	05d0      	lsls	r0, r2, #23
 8007038:	d409      	bmi.n	800704e <RTC_Alarm_IRQHandler+0x2e>
 800703a:	689a      	ldr	r2, [r3, #8]
 800703c:	0491      	lsls	r1, r2, #18
 800703e:	d502      	bpl.n	8007046 <RTC_Alarm_IRQHandler+0x26>
 8007040:	68da      	ldr	r2, [r3, #12]
 8007042:	0592      	lsls	r2, r2, #22
 8007044:	d412      	bmi.n	800706c <RTC_Alarm_IRQHandler+0x4c>
 8007046:	2301      	movs	r3, #1
 8007048:	f884 3025 	strb.w	r3, [r4, #37]	; 0x25
 800704c:	bd10      	pop	{r4, pc}
 800704e:	68da      	ldr	r2, [r3, #12]
 8007050:	b2d2      	uxtb	r2, r2
 8007052:	f462 72c0 	orn	r2, r2, #384	; 0x180
 8007056:	60da      	str	r2, [r3, #12]
 8007058:	2301      	movs	r3, #1
 800705a:	f884 3140 	strb.w	r3, [r4, #320]	; 0x140
 800705e:	f7fc f8cd 	bl	80031fc <HAL_RTC_DeactivateAlarm.constprop.0>
 8007062:	b960      	cbnz	r0, 800707e <RTC_Alarm_IRQHandler+0x5e>
 8007064:	6863      	ldr	r3, [r4, #4]
 8007066:	f884 0140 	strb.w	r0, [r4, #320]	; 0x140
 800706a:	e7e6      	b.n	800703a <RTC_Alarm_IRQHandler+0x1a>
 800706c:	68da      	ldr	r2, [r3, #12]
 800706e:	b2d2      	uxtb	r2, r2
 8007070:	f462 7220 	orn	r2, r2, #640	; 0x280
 8007074:	60da      	str	r2, [r3, #12]
 8007076:	2301      	movs	r3, #1
 8007078:	f884 3025 	strb.w	r3, [r4, #37]	; 0x25
 800707c:	bd10      	pop	{r4, pc}
 800707e:	f7fb faa7 	bl	80025d0 <__NVIC_SystemReset>
 8007082:	bf00      	nop
 8007084:	200000ac 	.word	0x200000ac
 8007088:	40010400 	.word	0x40010400

0800708c <EXTI15_10_IRQHandler>:
 800708c:	4b03      	ldr	r3, [pc, #12]	; (800709c <EXTI15_10_IRQHandler+0x10>)
 800708e:	695a      	ldr	r2, [r3, #20]
 8007090:	0512      	lsls	r2, r2, #20
 8007092:	bf44      	itt	mi
 8007094:	f44f 6200 	movmi.w	r2, #2048	; 0x800
 8007098:	615a      	strmi	r2, [r3, #20]
 800709a:	4770      	bx	lr
 800709c:	40010400 	.word	0x40010400

080070a0 <USART2_IRQHandler>:
 80070a0:	b570      	push	{r4, r5, r6, lr}
 80070a2:	4ca9      	ldr	r4, [pc, #676]	; (8007348 <USART2_IRQHandler+0x2a8>)
 80070a4:	f8d4 3144 	ldr.w	r3, [r4, #324]	; 0x144
 80070a8:	69da      	ldr	r2, [r3, #28]
 80070aa:	6819      	ldr	r1, [r3, #0]
 80070ac:	689d      	ldr	r5, [r3, #8]
 80070ae:	f640 000f 	movw	r0, #2063	; 0x80f
 80070b2:	4202      	tst	r2, r0
 80070b4:	d14c      	bne.n	8007150 <USART2_IRQHandler+0xb0>
 80070b6:	0690      	lsls	r0, r2, #26
 80070b8:	d502      	bpl.n	80070c0 <USART2_IRQHandler+0x20>
 80070ba:	068e      	lsls	r6, r1, #26
 80070bc:	f100 80e9 	bmi.w	8007292 <USART2_IRQHandler+0x1f2>
 80070c0:	f8d4 01a4 	ldr.w	r0, [r4, #420]	; 0x1a4
 80070c4:	2801      	cmp	r0, #1
 80070c6:	d025      	beq.n	8007114 <USART2_IRQHandler+0x74>
 80070c8:	02d6      	lsls	r6, r2, #11
 80070ca:	d502      	bpl.n	80070d2 <USART2_IRQHandler+0x32>
 80070cc:	0268      	lsls	r0, r5, #9
 80070ce:	f100 80ea 	bmi.w	80072a6 <USART2_IRQHandler+0x206>
 80070d2:	0616      	lsls	r6, r2, #24
 80070d4:	d414      	bmi.n	8007100 <USART2_IRQHandler+0x60>
 80070d6:	0650      	lsls	r0, r2, #25
 80070d8:	d501      	bpl.n	80070de <USART2_IRQHandler+0x3e>
 80070da:	064a      	lsls	r2, r1, #25
 80070dc:	d402      	bmi.n	80070e4 <USART2_IRQHandler+0x44>
 80070de:	bd70      	pop	{r4, r5, r6, pc}
 80070e0:	f8d4 3144 	ldr.w	r3, [r4, #324]	; 0x144
 80070e4:	e853 2f00 	ldrex	r2, [r3]
 80070e8:	f022 0240 	bic.w	r2, r2, #64	; 0x40
 80070ec:	e843 2100 	strex	r1, r2, [r3]
 80070f0:	2900      	cmp	r1, #0
 80070f2:	d1f5      	bne.n	80070e0 <USART2_IRQHandler+0x40>
 80070f4:	2320      	movs	r3, #32
 80070f6:	f8c4 11ac 	str.w	r1, [r4, #428]	; 0x1ac
 80070fa:	f8c4 31bc 	str.w	r3, [r4, #444]	; 0x1bc
 80070fe:	bd70      	pop	{r4, r5, r6, pc}
 8007100:	060d      	lsls	r5, r1, #24
 8007102:	d5e8      	bpl.n	80070d6 <USART2_IRQHandler+0x36>
 8007104:	f8d4 31ac 	ldr.w	r3, [r4, #428]	; 0x1ac
 8007108:	2b00      	cmp	r3, #0
 800710a:	d0e8      	beq.n	80070de <USART2_IRQHandler+0x3e>
 800710c:	e8bd 4070 	ldmia.w	sp!, {r4, r5, r6, lr}
 8007110:	488e      	ldr	r0, [pc, #568]	; (800734c <USART2_IRQHandler+0x2ac>)
 8007112:	4718      	bx	r3
 8007114:	06d6      	lsls	r6, r2, #27
 8007116:	d5d7      	bpl.n	80070c8 <USART2_IRQHandler+0x28>
 8007118:	06c8      	lsls	r0, r1, #27
 800711a:	d5d5      	bpl.n	80070c8 <USART2_IRQHandler+0x28>
 800711c:	2210      	movs	r2, #16
 800711e:	621a      	str	r2, [r3, #32]
 8007120:	689a      	ldr	r2, [r3, #8]
 8007122:	0651      	lsls	r1, r2, #25
 8007124:	f140 80d7 	bpl.w	80072d6 <USART2_IRQHandler+0x236>
 8007128:	f8d4 21b4 	ldr.w	r2, [r4, #436]	; 0x1b4
 800712c:	6811      	ldr	r1, [r2, #0]
 800712e:	684a      	ldr	r2, [r1, #4]
 8007130:	b292      	uxth	r2, r2
 8007132:	2a00      	cmp	r2, #0
 8007134:	d0d3      	beq.n	80070de <USART2_IRQHandler+0x3e>
 8007136:	f8b4 019c 	ldrh.w	r0, [r4, #412]	; 0x19c
 800713a:	4290      	cmp	r0, r2
 800713c:	d9cf      	bls.n	80070de <USART2_IRQHandler+0x3e>
 800713e:	f8a4 219e 	strh.w	r2, [r4, #414]	; 0x19e
 8007142:	680a      	ldr	r2, [r1, #0]
 8007144:	0692      	lsls	r2, r2, #26
 8007146:	f140 8109 	bpl.w	800735c <USART2_IRQHandler+0x2bc>
 800714a:	f8b4 319e 	ldrh.w	r3, [r4, #414]	; 0x19e
 800714e:	bd70      	pop	{r4, r5, r6, pc}
 8007150:	487f      	ldr	r0, [pc, #508]	; (8007350 <USART2_IRQHandler+0x2b0>)
 8007152:	f005 0601 	and.w	r6, r5, #1
 8007156:	4008      	ands	r0, r1
 8007158:	4330      	orrs	r0, r6
 800715a:	d0b1      	beq.n	80070c0 <USART2_IRQHandler+0x20>
 800715c:	07d5      	lsls	r5, r2, #31
 800715e:	d509      	bpl.n	8007174 <USART2_IRQHandler+0xd4>
 8007160:	05c8      	lsls	r0, r1, #23
 8007162:	d507      	bpl.n	8007174 <USART2_IRQHandler+0xd4>
 8007164:	2001      	movs	r0, #1
 8007166:	6218      	str	r0, [r3, #32]
 8007168:	f8d4 01c4 	ldr.w	r0, [r4, #452]	; 0x1c4
 800716c:	f040 0001 	orr.w	r0, r0, #1
 8007170:	f8c4 01c4 	str.w	r0, [r4, #452]	; 0x1c4
 8007174:	0795      	lsls	r5, r2, #30
 8007176:	d57f      	bpl.n	8007278 <USART2_IRQHandler+0x1d8>
 8007178:	b14e      	cbz	r6, 800718e <USART2_IRQHandler+0xee>
 800717a:	2002      	movs	r0, #2
 800717c:	6218      	str	r0, [r3, #32]
 800717e:	f8d4 01c4 	ldr.w	r0, [r4, #452]	; 0x1c4
 8007182:	f040 0004 	orr.w	r0, r0, #4
 8007186:	f8c4 01c4 	str.w	r0, [r4, #452]	; 0x1c4
 800718a:	0750      	lsls	r0, r2, #29
 800718c:	d478      	bmi.n	8007280 <USART2_IRQHandler+0x1e0>
 800718e:	0710      	lsls	r0, r2, #28
 8007190:	d50b      	bpl.n	80071aa <USART2_IRQHandler+0x10a>
 8007192:	f001 0020 	and.w	r0, r1, #32
 8007196:	4330      	orrs	r0, r6
 8007198:	d007      	beq.n	80071aa <USART2_IRQHandler+0x10a>
 800719a:	2008      	movs	r0, #8
 800719c:	6218      	str	r0, [r3, #32]
 800719e:	f8d4 01c4 	ldr.w	r0, [r4, #452]	; 0x1c4
 80071a2:	f040 0008 	orr.w	r0, r0, #8
 80071a6:	f8c4 01c4 	str.w	r0, [r4, #452]	; 0x1c4
 80071aa:	0516      	lsls	r6, r2, #20
 80071ac:	d50a      	bpl.n	80071c4 <USART2_IRQHandler+0x124>
 80071ae:	014d      	lsls	r5, r1, #5
 80071b0:	d508      	bpl.n	80071c4 <USART2_IRQHandler+0x124>
 80071b2:	f44f 6000 	mov.w	r0, #2048	; 0x800
 80071b6:	6218      	str	r0, [r3, #32]
 80071b8:	f8d4 01c4 	ldr.w	r0, [r4, #452]	; 0x1c4
 80071bc:	f040 0020 	orr.w	r0, r0, #32
 80071c0:	f8c4 01c4 	str.w	r0, [r4, #452]	; 0x1c4
 80071c4:	f8d4 01c4 	ldr.w	r0, [r4, #452]	; 0x1c4
 80071c8:	2800      	cmp	r0, #0
 80071ca:	d088      	beq.n	80070de <USART2_IRQHandler+0x3e>
 80071cc:	0690      	lsls	r0, r2, #26
 80071ce:	d501      	bpl.n	80071d4 <USART2_IRQHandler+0x134>
 80071d0:	068a      	lsls	r2, r1, #26
 80071d2:	d477      	bmi.n	80072c4 <USART2_IRQHandler+0x224>
 80071d4:	f8d4 11c4 	ldr.w	r1, [r4, #452]	; 0x1c4
 80071d8:	689a      	ldr	r2, [r3, #8]
 80071da:	f001 0128 	and.w	r1, r1, #40	; 0x28
 80071de:	f002 0240 	and.w	r2, r2, #64	; 0x40
 80071e2:	430a      	orrs	r2, r1
 80071e4:	d102      	bne.n	80071ec <USART2_IRQHandler+0x14c>
 80071e6:	e0f5      	b.n	80073d4 <USART2_IRQHandler+0x334>
 80071e8:	f8d4 3144 	ldr.w	r3, [r4, #324]	; 0x144
 80071ec:	e853 2f00 	ldrex	r2, [r3]
 80071f0:	f422 7290 	bic.w	r2, r2, #288	; 0x120
 80071f4:	e843 2100 	strex	r1, r2, [r3]
 80071f8:	2900      	cmp	r1, #0
 80071fa:	d1f5      	bne.n	80071e8 <USART2_IRQHandler+0x148>
 80071fc:	f8d4 2144 	ldr.w	r2, [r4, #324]	; 0x144
 8007200:	f102 0308 	add.w	r3, r2, #8
 8007204:	e853 3f00 	ldrex	r3, [r3]
 8007208:	f023 0301 	bic.w	r3, r3, #1
 800720c:	3208      	adds	r2, #8
 800720e:	e842 3100 	strex	r1, r3, [r2]
 8007212:	2900      	cmp	r1, #0
 8007214:	d1f2      	bne.n	80071fc <USART2_IRQHandler+0x15c>
 8007216:	f8d4 31a4 	ldr.w	r3, [r4, #420]	; 0x1a4
 800721a:	2b01      	cmp	r3, #1
 800721c:	d047      	beq.n	80072ae <USART2_IRQHandler+0x20e>
 800721e:	2300      	movs	r3, #0
 8007220:	2120      	movs	r1, #32
 8007222:	f8d4 2144 	ldr.w	r2, [r4, #324]	; 0x144
 8007226:	f8c4 11c0 	str.w	r1, [r4, #448]	; 0x1c0
 800722a:	f8c4 31a4 	str.w	r3, [r4, #420]	; 0x1a4
 800722e:	6891      	ldr	r1, [r2, #8]
 8007230:	f8c4 31a8 	str.w	r3, [r4, #424]	; 0x1a8
 8007234:	064b      	lsls	r3, r1, #25
 8007236:	d402      	bmi.n	800723e <USART2_IRQHandler+0x19e>
 8007238:	e751      	b.n	80070de <USART2_IRQHandler+0x3e>
 800723a:	f8d4 2144 	ldr.w	r2, [r4, #324]	; 0x144
 800723e:	f102 0308 	add.w	r3, r2, #8
 8007242:	e853 3f00 	ldrex	r3, [r3]
 8007246:	f023 0340 	bic.w	r3, r3, #64	; 0x40
 800724a:	3208      	adds	r2, #8
 800724c:	e842 3100 	strex	r1, r3, [r2]
 8007250:	2900      	cmp	r1, #0
 8007252:	d1f2      	bne.n	800723a <USART2_IRQHandler+0x19a>
 8007254:	f8d4 01b4 	ldr.w	r0, [r4, #436]	; 0x1b4
 8007258:	2800      	cmp	r0, #0
 800725a:	f43f af40 	beq.w	80070de <USART2_IRQHandler+0x3e>
 800725e:	f890 3025 	ldrb.w	r3, [r0, #37]	; 0x25
 8007262:	4a3c      	ldr	r2, [pc, #240]	; (8007354 <USART2_IRQHandler+0x2b4>)
 8007264:	6382      	str	r2, [r0, #56]	; 0x38
 8007266:	2b02      	cmp	r3, #2
 8007268:	f000 80b7 	beq.w	80073da <USART2_IRQHandler+0x33a>
 800726c:	2304      	movs	r3, #4
 800726e:	e8bd 4070 	ldmia.w	sp!, {r4, r5, r6, lr}
 8007272:	63c3      	str	r3, [r0, #60]	; 0x3c
 8007274:	f7fa bc98 	b.w	8001ba8 <UART_DMAAbortOnError>
 8007278:	0755      	lsls	r5, r2, #29
 800727a:	d588      	bpl.n	800718e <USART2_IRQHandler+0xee>
 800727c:	2e00      	cmp	r6, #0
 800727e:	d086      	beq.n	800718e <USART2_IRQHandler+0xee>
 8007280:	2004      	movs	r0, #4
 8007282:	6218      	str	r0, [r3, #32]
 8007284:	f8d4 01c4 	ldr.w	r0, [r4, #452]	; 0x1c4
 8007288:	f040 0002 	orr.w	r0, r0, #2
 800728c:	f8c4 01c4 	str.w	r0, [r4, #452]	; 0x1c4
 8007290:	e77d      	b.n	800718e <USART2_IRQHandler+0xee>
 8007292:	f8d4 31a8 	ldr.w	r3, [r4, #424]	; 0x1a8
 8007296:	2b00      	cmp	r3, #0
 8007298:	f43f af21 	beq.w	80070de <USART2_IRQHandler+0x3e>
 800729c:	f504 70a2 	add.w	r0, r4, #324	; 0x144
 80072a0:	e8bd 4070 	ldmia.w	sp!, {r4, r5, r6, lr}
 80072a4:	4718      	bx	r3
 80072a6:	f44f 1280 	mov.w	r2, #1048576	; 0x100000
 80072aa:	621a      	str	r2, [r3, #32]
 80072ac:	bd70      	pop	{r4, r5, r6, pc}
 80072ae:	f8d4 2144 	ldr.w	r2, [r4, #324]	; 0x144
 80072b2:	e852 3f00 	ldrex	r3, [r2]
 80072b6:	f023 0310 	bic.w	r3, r3, #16
 80072ba:	e842 3100 	strex	r1, r3, [r2]
 80072be:	2900      	cmp	r1, #0
 80072c0:	d1f5      	bne.n	80072ae <USART2_IRQHandler+0x20e>
 80072c2:	e7ac      	b.n	800721e <USART2_IRQHandler+0x17e>
 80072c4:	f8d4 21a8 	ldr.w	r2, [r4, #424]	; 0x1a8
 80072c8:	2a00      	cmp	r2, #0
 80072ca:	d083      	beq.n	80071d4 <USART2_IRQHandler+0x134>
 80072cc:	481f      	ldr	r0, [pc, #124]	; (800734c <USART2_IRQHandler+0x2ac>)
 80072ce:	4790      	blx	r2
 80072d0:	f8d4 3144 	ldr.w	r3, [r4, #324]	; 0x144
 80072d4:	e77e      	b.n	80071d4 <USART2_IRQHandler+0x134>
 80072d6:	f8b4 119e 	ldrh.w	r1, [r4, #414]	; 0x19e
 80072da:	f8b4 219e 	ldrh.w	r2, [r4, #414]	; 0x19e
 80072de:	b292      	uxth	r2, r2
 80072e0:	b289      	uxth	r1, r1
 80072e2:	2a00      	cmp	r2, #0
 80072e4:	f43f aefb 	beq.w	80070de <USART2_IRQHandler+0x3e>
 80072e8:	f8b4 219c 	ldrh.w	r2, [r4, #412]	; 0x19c
 80072ec:	428a      	cmp	r2, r1
 80072ee:	f43f aef6 	beq.w	80070de <USART2_IRQHandler+0x3e>
 80072f2:	e001      	b.n	80072f8 <USART2_IRQHandler+0x258>
 80072f4:	f8d4 3144 	ldr.w	r3, [r4, #324]	; 0x144
 80072f8:	e853 2f00 	ldrex	r2, [r3]
 80072fc:	f422 7290 	bic.w	r2, r2, #288	; 0x120
 8007300:	e843 2100 	strex	r1, r2, [r3]
 8007304:	2900      	cmp	r1, #0
 8007306:	d1f5      	bne.n	80072f4 <USART2_IRQHandler+0x254>
 8007308:	f8d4 2144 	ldr.w	r2, [r4, #324]	; 0x144
 800730c:	f102 0308 	add.w	r3, r2, #8
 8007310:	e853 3f00 	ldrex	r3, [r3]
 8007314:	f023 0301 	bic.w	r3, r3, #1
 8007318:	3208      	adds	r2, #8
 800731a:	e842 3100 	strex	r1, r3, [r2]
 800731e:	2900      	cmp	r1, #0
 8007320:	d1f2      	bne.n	8007308 <USART2_IRQHandler+0x268>
 8007322:	2320      	movs	r3, #32
 8007324:	f8c4 31c0 	str.w	r3, [r4, #448]	; 0x1c0
 8007328:	f8c4 11a8 	str.w	r1, [r4, #424]	; 0x1a8
 800732c:	f8c4 11a4 	str.w	r1, [r4, #420]	; 0x1a4
 8007330:	f8d4 2144 	ldr.w	r2, [r4, #324]	; 0x144
 8007334:	e852 3f00 	ldrex	r3, [r2]
 8007338:	f023 0310 	bic.w	r3, r3, #16
 800733c:	e842 3100 	strex	r1, r3, [r2]
 8007340:	2900      	cmp	r1, #0
 8007342:	d1f5      	bne.n	8007330 <USART2_IRQHandler+0x290>
 8007344:	bd70      	pop	{r4, r5, r6, pc}
 8007346:	bf00      	nop
 8007348:	200000ac 	.word	0x200000ac
 800734c:	200001f0 	.word	0x200001f0
 8007350:	04000120 	.word	0x04000120
 8007354:	08001ba9 	.word	0x08001ba9
 8007358:	f8d4 3144 	ldr.w	r3, [r4, #324]	; 0x144
 800735c:	e853 2f00 	ldrex	r2, [r3]
 8007360:	f422 7280 	bic.w	r2, r2, #256	; 0x100
 8007364:	e843 2100 	strex	r1, r2, [r3]
 8007368:	2900      	cmp	r1, #0
 800736a:	d1f5      	bne.n	8007358 <USART2_IRQHandler+0x2b8>
 800736c:	f8d4 2144 	ldr.w	r2, [r4, #324]	; 0x144
 8007370:	f102 0308 	add.w	r3, r2, #8
 8007374:	e853 3f00 	ldrex	r3, [r3]
 8007378:	f023 0301 	bic.w	r3, r3, #1
 800737c:	3208      	adds	r2, #8
 800737e:	e842 3100 	strex	r1, r3, [r2]
 8007382:	2900      	cmp	r1, #0
 8007384:	d1f2      	bne.n	800736c <USART2_IRQHandler+0x2cc>
 8007386:	f8d4 2144 	ldr.w	r2, [r4, #324]	; 0x144
 800738a:	f102 0308 	add.w	r3, r2, #8
 800738e:	e853 3f00 	ldrex	r3, [r3]
 8007392:	f023 0340 	bic.w	r3, r3, #64	; 0x40
 8007396:	3208      	adds	r2, #8
 8007398:	e842 3100 	strex	r1, r3, [r2]
 800739c:	2900      	cmp	r1, #0
 800739e:	d1f2      	bne.n	8007386 <USART2_IRQHandler+0x2e6>
 80073a0:	2320      	movs	r3, #32
 80073a2:	f8c4 31c0 	str.w	r3, [r4, #448]	; 0x1c0
 80073a6:	f8c4 11a4 	str.w	r1, [r4, #420]	; 0x1a4
 80073aa:	f8d4 2144 	ldr.w	r2, [r4, #324]	; 0x144
 80073ae:	e852 3f00 	ldrex	r3, [r2]
 80073b2:	f023 0310 	bic.w	r3, r3, #16
 80073b6:	e842 3100 	strex	r1, r3, [r2]
 80073ba:	2900      	cmp	r1, #0
 80073bc:	d1f5      	bne.n	80073aa <USART2_IRQHandler+0x30a>
 80073be:	f8d4 31b4 	ldr.w	r3, [r4, #436]	; 0x1b4
 80073c2:	f893 2025 	ldrb.w	r2, [r3, #37]	; 0x25
 80073c6:	2a02      	cmp	r2, #2
 80073c8:	d020      	beq.n	800740c <USART2_IRQHandler+0x36c>
 80073ca:	2204      	movs	r2, #4
 80073cc:	f883 1024 	strb.w	r1, [r3, #36]	; 0x24
 80073d0:	63da      	str	r2, [r3, #60]	; 0x3c
 80073d2:	e6ba      	b.n	800714a <USART2_IRQHandler+0xaa>
 80073d4:	f8c4 21c4 	str.w	r2, [r4, #452]	; 0x1c4
 80073d8:	bd70      	pop	{r4, r5, r6, pc}
 80073da:	6802      	ldr	r2, [r0, #0]
 80073dc:	6c43      	ldr	r3, [r0, #68]	; 0x44
 80073de:	6814      	ldr	r4, [r2, #0]
 80073e0:	6c05      	ldr	r5, [r0, #64]	; 0x40
 80073e2:	f024 040e 	bic.w	r4, r4, #14
 80073e6:	6014      	str	r4, [r2, #0]
 80073e8:	6814      	ldr	r4, [r2, #0]
 80073ea:	f024 0401 	bic.w	r4, r4, #1
 80073ee:	6014      	str	r4, [r2, #0]
 80073f0:	f003 031c 	and.w	r3, r3, #28
 80073f4:	2201      	movs	r2, #1
 80073f6:	fa02 f303 	lsl.w	r3, r2, r3
 80073fa:	606b      	str	r3, [r5, #4]
 80073fc:	f880 2025 	strb.w	r2, [r0, #37]	; 0x25
 8007400:	f880 1024 	strb.w	r1, [r0, #36]	; 0x24
 8007404:	e8bd 4070 	ldmia.w	sp!, {r4, r5, r6, lr}
 8007408:	f7fa bbce 	b.w	8001ba8 <UART_DMAAbortOnError>
 800740c:	6818      	ldr	r0, [r3, #0]
 800740e:	6c5a      	ldr	r2, [r3, #68]	; 0x44
 8007410:	6805      	ldr	r5, [r0, #0]
 8007412:	6c1e      	ldr	r6, [r3, #64]	; 0x40
 8007414:	f025 050e 	bic.w	r5, r5, #14
 8007418:	6005      	str	r5, [r0, #0]
 800741a:	6805      	ldr	r5, [r0, #0]
 800741c:	f025 0501 	bic.w	r5, r5, #1
 8007420:	6005      	str	r5, [r0, #0]
 8007422:	f002 021c 	and.w	r2, r2, #28
 8007426:	2001      	movs	r0, #1
 8007428:	fa00 f202 	lsl.w	r2, r0, r2
 800742c:	6072      	str	r2, [r6, #4]
 800742e:	f883 0025 	strb.w	r0, [r3, #37]	; 0x25
 8007432:	f883 1024 	strb.w	r1, [r3, #36]	; 0x24
 8007436:	e688      	b.n	800714a <USART2_IRQHandler+0xaa>

08007438 <I2C2_EV_IRQHandler>:
 8007438:	4808      	ldr	r0, [pc, #32]	; (800745c <I2C2_EV_IRQHandler+0x24>)
 800743a:	b410      	push	{r4}
 800743c:	f8d0 31c8 	ldr.w	r3, [r0, #456]	; 0x1c8
 8007440:	f8d0 41fc 	ldr.w	r4, [r0, #508]	; 0x1fc
 8007444:	6999      	ldr	r1, [r3, #24]
 8007446:	681a      	ldr	r2, [r3, #0]
 8007448:	b12c      	cbz	r4, 8007456 <I2C2_EV_IRQHandler+0x1e>
 800744a:	4623      	mov	r3, r4
 800744c:	f500 70e4 	add.w	r0, r0, #456	; 0x1c8
 8007450:	f85d 4b04 	ldr.w	r4, [sp], #4
 8007454:	4718      	bx	r3
 8007456:	f85d 4b04 	ldr.w	r4, [sp], #4
 800745a:	4770      	bx	lr
 800745c:	200000ac 	.word	0x200000ac

08007460 <DMA1_Channel7_IRQHandler>:
 8007460:	4801      	ldr	r0, [pc, #4]	; (8007468 <DMA1_Channel7_IRQHandler+0x8>)
 8007462:	f7fa bfeb 	b.w	800243c <HAL_DMA_IRQHandler>
 8007466:	bf00      	nop
 8007468:	2000013c 	.word	0x2000013c

0800746c <DMA1_Channel6_IRQHandler>:
 800746c:	4801      	ldr	r0, [pc, #4]	; (8007474 <DMA1_Channel6_IRQHandler+0x8>)
 800746e:	f7fa bfe5 	b.w	800243c <HAL_DMA_IRQHandler>
 8007472:	bf00      	nop
 8007474:	200000f4 	.word	0x200000f4

08007478 <DMA1_Channel3_IRQHandler>:
 8007478:	4801      	ldr	r0, [pc, #4]	; (8007480 <DMA1_Channel3_IRQHandler+0x8>)
 800747a:	f7fa bfdf 	b.w	800243c <HAL_DMA_IRQHandler>
 800747e:	bf00      	nop
 8007480:	200002c8 	.word	0x200002c8

08007484 <DMA1_Channel2_IRQHandler>:
 8007484:	4801      	ldr	r0, [pc, #4]	; (800748c <DMA1_Channel2_IRQHandler+0x8>)
 8007486:	f7fa bfd9 	b.w	800243c <HAL_DMA_IRQHandler>
 800748a:	bf00      	nop
 800748c:	20000310 	.word	0x20000310

08007490 <EXTI3_IRQHandler>:
 8007490:	4b03      	ldr	r3, [pc, #12]	; (80074a0 <EXTI3_IRQHandler+0x10>)
 8007492:	695a      	ldr	r2, [r3, #20]
 8007494:	0712      	lsls	r2, r2, #28
 8007496:	bf44      	itt	mi
 8007498:	2208      	movmi	r2, #8
 800749a:	615a      	strmi	r2, [r3, #20]
 800749c:	4770      	bx	lr
 800749e:	bf00      	nop
 80074a0:	40010400 	.word	0x40010400

080074a4 <RTC_WKUP_IRQHandler>:
 80074a4:	4b0c      	ldr	r3, [pc, #48]	; (80074d8 <RTC_WKUP_IRQHandler+0x34>)
 80074a6:	490d      	ldr	r1, [pc, #52]	; (80074dc <RTC_WKUP_IRQHandler+0x38>)
 80074a8:	685a      	ldr	r2, [r3, #4]
 80074aa:	f44f 1080 	mov.w	r0, #1048576	; 0x100000
 80074ae:	6148      	str	r0, [r1, #20]
 80074b0:	68d1      	ldr	r1, [r2, #12]
 80074b2:	0549      	lsls	r1, r1, #21
 80074b4:	d403      	bmi.n	80074be <RTC_WKUP_IRQHandler+0x1a>
 80074b6:	2201      	movs	r2, #1
 80074b8:	f883 2025 	strb.w	r2, [r3, #37]	; 0x25
 80074bc:	4770      	bx	lr
 80074be:	68d1      	ldr	r1, [r2, #12]
 80074c0:	b2c9      	uxtb	r1, r1
 80074c2:	f461 6190 	orn	r1, r1, #1152	; 0x480
 80074c6:	60d1      	str	r1, [r2, #12]
 80074c8:	2001      	movs	r0, #1
 80074ca:	2201      	movs	r2, #1
 80074cc:	f883 0045 	strb.w	r0, [r3, #69]	; 0x45
 80074d0:	f883 2025 	strb.w	r2, [r3, #37]	; 0x25
 80074d4:	4770      	bx	lr
 80074d6:	bf00      	nop
 80074d8:	200000ac 	.word	0x200000ac
 80074dc:	40010400 	.word	0x40010400

080074e0 <SysTick_Handler>:
 80074e0:	4a02      	ldr	r2, [pc, #8]	; (80074ec <SysTick_Handler+0xc>)
 80074e2:	6813      	ldr	r3, [r2, #0]
 80074e4:	3301      	adds	r3, #1
 80074e6:	6013      	str	r3, [r2, #0]
 80074e8:	4770      	bx	lr
 80074ea:	bf00      	nop
 80074ec:	200000ac 	.word	0x200000ac

080074f0 <PendSV_Handler>:
 80074f0:	4770      	bx	lr
 80074f2:	bf00      	nop

080074f4 <SVC_Handler>:
 80074f4:	4770      	bx	lr
 80074f6:	bf00      	nop

080074f8 <DebugMon_Handler>:
 80074f8:	4770      	bx	lr
 80074fa:	bf00      	nop

080074fc <UsageFault_Handler>:
 80074fc:	e7fe      	b.n	80074fc <UsageFault_Handler>
 80074fe:	bf00      	nop

08007500 <BusFault_Handler>:
 8007500:	e7fe      	b.n	8007500 <BusFault_Handler>
 8007502:	bf00      	nop

08007504 <MemManage_Handler>:
 8007504:	e7fe      	b.n	8007504 <MemManage_Handler>
 8007506:	bf00      	nop

08007508 <HardFault_Handler>:
 8007508:	e7fe      	b.n	8007508 <HardFault_Handler>
 800750a:	bf00      	nop

0800750c <NMI_Handler>:
 800750c:	e7fe      	b.n	800750c <NMI_Handler>
 800750e:	bf00      	nop

08007510 <memchr>:
 8007510:	f001 01ff 	and.w	r1, r1, #255	; 0xff
 8007514:	2a10      	cmp	r2, #16
 8007516:	db2b      	blt.n	8007570 <memchr+0x60>
 8007518:	f010 0f07 	tst.w	r0, #7
 800751c:	d008      	beq.n	8007530 <memchr+0x20>
 800751e:	f810 3b01 	ldrb.w	r3, [r0], #1
 8007522:	3a01      	subs	r2, #1
 8007524:	428b      	cmp	r3, r1
 8007526:	d02d      	beq.n	8007584 <memchr+0x74>
 8007528:	f010 0f07 	tst.w	r0, #7
 800752c:	b342      	cbz	r2, 8007580 <memchr+0x70>
 800752e:	d1f6      	bne.n	800751e <memchr+0xe>
 8007530:	b4f0      	push	{r4, r5, r6, r7}
 8007532:	ea41 2101 	orr.w	r1, r1, r1, lsl #8
 8007536:	ea41 4101 	orr.w	r1, r1, r1, lsl #16
 800753a:	f022 0407 	bic.w	r4, r2, #7
 800753e:	f07f 0700 	mvns.w	r7, #0
 8007542:	2300      	movs	r3, #0
 8007544:	e8f0 5602 	ldrd	r5, r6, [r0], #8
 8007548:	3c08      	subs	r4, #8
 800754a:	ea85 0501 	eor.w	r5, r5, r1
 800754e:	ea86 0601 	eor.w	r6, r6, r1
 8007552:	fa85 f547 	uadd8	r5, r5, r7
 8007556:	faa3 f587 	sel	r5, r3, r7
 800755a:	fa86 f647 	uadd8	r6, r6, r7
 800755e:	faa5 f687 	sel	r6, r5, r7
 8007562:	b98e      	cbnz	r6, 8007588 <memchr+0x78>
 8007564:	d1ee      	bne.n	8007544 <memchr+0x34>
 8007566:	bcf0      	pop	{r4, r5, r6, r7}
 8007568:	f001 01ff 	and.w	r1, r1, #255	; 0xff
 800756c:	f002 0207 	and.w	r2, r2, #7
 8007570:	b132      	cbz	r2, 8007580 <memchr+0x70>
 8007572:	f810 3b01 	ldrb.w	r3, [r0], #1
 8007576:	3a01      	subs	r2, #1
 8007578:	ea83 0301 	eor.w	r3, r3, r1
 800757c:	b113      	cbz	r3, 8007584 <memchr+0x74>
 800757e:	d1f8      	bne.n	8007572 <memchr+0x62>
 8007580:	2000      	movs	r0, #0
 8007582:	4770      	bx	lr
 8007584:	3801      	subs	r0, #1
 8007586:	4770      	bx	lr
 8007588:	2d00      	cmp	r5, #0
 800758a:	bf06      	itte	eq
 800758c:	4635      	moveq	r5, r6
 800758e:	3803      	subeq	r0, #3
 8007590:	3807      	subne	r0, #7
 8007592:	f015 0f01 	tst.w	r5, #1
 8007596:	d107      	bne.n	80075a8 <memchr+0x98>
 8007598:	3001      	adds	r0, #1
 800759a:	f415 7f80 	tst.w	r5, #256	; 0x100
 800759e:	bf02      	ittt	eq
 80075a0:	3001      	addeq	r0, #1
 80075a2:	f415 3fc0 	tsteq.w	r5, #98304	; 0x18000
 80075a6:	3001      	addeq	r0, #1
 80075a8:	bcf0      	pop	{r4, r5, r6, r7}
 80075aa:	3801      	subs	r0, #1
 80075ac:	4770      	bx	lr
 80075ae:	bf00      	nop

080075b0 <strlen>:
 80075b0:	4603      	mov	r3, r0
 80075b2:	f813 2b01 	ldrb.w	r2, [r3], #1
 80075b6:	2a00      	cmp	r2, #0
 80075b8:	d1fb      	bne.n	80075b2 <strlen+0x2>
 80075ba:	1a18      	subs	r0, r3, r0
 80075bc:	3801      	subs	r0, #1
 80075be:	4770      	bx	lr

080075c0 <__aeabi_uldivmod>:
 80075c0:	b953      	cbnz	r3, 80075d8 <__aeabi_uldivmod+0x18>
 80075c2:	b94a      	cbnz	r2, 80075d8 <__aeabi_uldivmod+0x18>
 80075c4:	2900      	cmp	r1, #0
 80075c6:	bf08      	it	eq
 80075c8:	2800      	cmpeq	r0, #0
 80075ca:	bf1c      	itt	ne
 80075cc:	f04f 31ff 	movne.w	r1, #4294967295	; 0xffffffff
 80075d0:	f04f 30ff 	movne.w	r0, #4294967295	; 0xffffffff
 80075d4:	f000 bab8 	b.w	8007b48 <__aeabi_idiv0>
 80075d8:	f1ad 0c08 	sub.w	ip, sp, #8
 80075dc:	e96d ce04 	strd	ip, lr, [sp, #-16]!
 80075e0:	f000 f826 	bl	8007630 <__udivmoddi4>
 80075e4:	f8dd e004 	ldr.w	lr, [sp, #4]
 80075e8:	e9dd 2302 	ldrd	r2, r3, [sp, #8]
 80075ec:	b004      	add	sp, #16
 80075ee:	4770      	bx	lr

080075f0 <__aeabi_f2ulz>:
 80075f0:	b5d0      	push	{r4, r6, r7, lr}
 80075f2:	f000 fc0f 	bl	8007e14 <__aeabi_f2d>
 80075f6:	4b0c      	ldr	r3, [pc, #48]	; (8007628 <__aeabi_f2ulz+0x38>)
 80075f8:	2200      	movs	r2, #0
 80075fa:	4606      	mov	r6, r0
 80075fc:	460f      	mov	r7, r1
 80075fe:	f000 f979 	bl	80078f4 <__aeabi_dmul>
 8007602:	f000 fc5f 	bl	8007ec4 <__aeabi_d2uiz>
 8007606:	4604      	mov	r4, r0
 8007608:	f000 fbe2 	bl	8007dd0 <__aeabi_ui2d>
 800760c:	4b07      	ldr	r3, [pc, #28]	; (800762c <__aeabi_f2ulz+0x3c>)
 800760e:	2200      	movs	r2, #0
 8007610:	f000 f970 	bl	80078f4 <__aeabi_dmul>
 8007614:	4602      	mov	r2, r0
 8007616:	460b      	mov	r3, r1
 8007618:	4630      	mov	r0, r6
 800761a:	4639      	mov	r1, r7
 800761c:	f000 fa9a 	bl	8007b54 <__aeabi_dsub>
 8007620:	f000 fc50 	bl	8007ec4 <__aeabi_d2uiz>
 8007624:	4621      	mov	r1, r4
 8007626:	bdd0      	pop	{r4, r6, r7, pc}
 8007628:	3df00000 	.word	0x3df00000
 800762c:	41f00000 	.word	0x41f00000

08007630 <__udivmoddi4>:
 8007630:	e92d 47f0 	stmdb	sp!, {r4, r5, r6, r7, r8, r9, sl, lr}
 8007634:	9d08      	ldr	r5, [sp, #32]
 8007636:	4604      	mov	r4, r0
 8007638:	468c      	mov	ip, r1
 800763a:	2b00      	cmp	r3, #0
 800763c:	f040 8083 	bne.w	8007746 <__udivmoddi4+0x116>
 8007640:	428a      	cmp	r2, r1
 8007642:	4617      	mov	r7, r2
 8007644:	d947      	bls.n	80076d6 <__udivmoddi4+0xa6>
 8007646:	fab2 f282 	clz	r2, r2
 800764a:	b142      	cbz	r2, 800765e <__udivmoddi4+0x2e>
 800764c:	f1c2 0020 	rsb	r0, r2, #32
 8007650:	fa24 f000 	lsr.w	r0, r4, r0
 8007654:	4091      	lsls	r1, r2
 8007656:	4097      	lsls	r7, r2
 8007658:	ea40 0c01 	orr.w	ip, r0, r1
 800765c:	4094      	lsls	r4, r2
 800765e:	ea4f 4817 	mov.w	r8, r7, lsr #16
 8007662:	0c23      	lsrs	r3, r4, #16
 8007664:	fbbc f6f8 	udiv	r6, ip, r8
 8007668:	fa1f fe87 	uxth.w	lr, r7
 800766c:	fb08 c116 	mls	r1, r8, r6, ip
 8007670:	ea43 4301 	orr.w	r3, r3, r1, lsl #16
 8007674:	fb06 f10e 	mul.w	r1, r6, lr
 8007678:	4299      	cmp	r1, r3
 800767a:	d909      	bls.n	8007690 <__udivmoddi4+0x60>
 800767c:	18fb      	adds	r3, r7, r3
 800767e:	f106 30ff 	add.w	r0, r6, #4294967295	; 0xffffffff
 8007682:	f080 8119 	bcs.w	80078b8 <__udivmoddi4+0x288>
 8007686:	4299      	cmp	r1, r3
 8007688:	f240 8116 	bls.w	80078b8 <__udivmoddi4+0x288>
 800768c:	3e02      	subs	r6, #2
 800768e:	443b      	add	r3, r7
 8007690:	1a5b      	subs	r3, r3, r1
 8007692:	b2a4      	uxth	r4, r4
 8007694:	fbb3 f0f8 	udiv	r0, r3, r8
 8007698:	fb08 3310 	mls	r3, r8, r0, r3
 800769c:	ea44 4403 	orr.w	r4, r4, r3, lsl #16
 80076a0:	fb00 fe0e 	mul.w	lr, r0, lr
 80076a4:	45a6      	cmp	lr, r4
 80076a6:	d909      	bls.n	80076bc <__udivmoddi4+0x8c>
 80076a8:	193c      	adds	r4, r7, r4
 80076aa:	f100 33ff 	add.w	r3, r0, #4294967295	; 0xffffffff
 80076ae:	f080 8105 	bcs.w	80078bc <__udivmoddi4+0x28c>
 80076b2:	45a6      	cmp	lr, r4
 80076b4:	f240 8102 	bls.w	80078bc <__udivmoddi4+0x28c>
 80076b8:	3802      	subs	r0, #2
 80076ba:	443c      	add	r4, r7
 80076bc:	ea40 4006 	orr.w	r0, r0, r6, lsl #16
 80076c0:	eba4 040e 	sub.w	r4, r4, lr
 80076c4:	2600      	movs	r6, #0
 80076c6:	b11d      	cbz	r5, 80076d0 <__udivmoddi4+0xa0>
 80076c8:	40d4      	lsrs	r4, r2
 80076ca:	2300      	movs	r3, #0
 80076cc:	e9c5 4300 	strd	r4, r3, [r5]
 80076d0:	4631      	mov	r1, r6
 80076d2:	e8bd 87f0 	ldmia.w	sp!, {r4, r5, r6, r7, r8, r9, sl, pc}
 80076d6:	b902      	cbnz	r2, 80076da <__udivmoddi4+0xaa>
 80076d8:	deff      	udf	#255	; 0xff
 80076da:	fab2 f282 	clz	r2, r2
 80076de:	2a00      	cmp	r2, #0
 80076e0:	d150      	bne.n	8007784 <__udivmoddi4+0x154>
 80076e2:	1bcb      	subs	r3, r1, r7
 80076e4:	ea4f 4e17 	mov.w	lr, r7, lsr #16
 80076e8:	fa1f f887 	uxth.w	r8, r7
 80076ec:	2601      	movs	r6, #1
 80076ee:	fbb3 fcfe 	udiv	ip, r3, lr
 80076f2:	0c21      	lsrs	r1, r4, #16
 80076f4:	fb0e 331c 	mls	r3, lr, ip, r3
 80076f8:	ea41 4103 	orr.w	r1, r1, r3, lsl #16
 80076fc:	fb08 f30c 	mul.w	r3, r8, ip
 8007700:	428b      	cmp	r3, r1
 8007702:	d907      	bls.n	8007714 <__udivmoddi4+0xe4>
 8007704:	1879      	adds	r1, r7, r1
 8007706:	f10c 30ff 	add.w	r0, ip, #4294967295	; 0xffffffff
 800770a:	d202      	bcs.n	8007712 <__udivmoddi4+0xe2>
 800770c:	428b      	cmp	r3, r1
 800770e:	f200 80e9 	bhi.w	80078e4 <__udivmoddi4+0x2b4>
 8007712:	4684      	mov	ip, r0
 8007714:	1ac9      	subs	r1, r1, r3
 8007716:	b2a3      	uxth	r3, r4
 8007718:	fbb1 f0fe 	udiv	r0, r1, lr
 800771c:	fb0e 1110 	mls	r1, lr, r0, r1
 8007720:	ea43 4401 	orr.w	r4, r3, r1, lsl #16
 8007724:	fb08 f800 	mul.w	r8, r8, r0
 8007728:	45a0      	cmp	r8, r4
 800772a:	d907      	bls.n	800773c <__udivmoddi4+0x10c>
 800772c:	193c      	adds	r4, r7, r4
 800772e:	f100 33ff 	add.w	r3, r0, #4294967295	; 0xffffffff
 8007732:	d202      	bcs.n	800773a <__udivmoddi4+0x10a>
 8007734:	45a0      	cmp	r8, r4
 8007736:	f200 80d9 	bhi.w	80078ec <__udivmoddi4+0x2bc>
 800773a:	4618      	mov	r0, r3
 800773c:	eba4 0408 	sub.w	r4, r4, r8
 8007740:	ea40 400c 	orr.w	r0, r0, ip, lsl #16
 8007744:	e7bf      	b.n	80076c6 <__udivmoddi4+0x96>
 8007746:	428b      	cmp	r3, r1
 8007748:	d909      	bls.n	800775e <__udivmoddi4+0x12e>
 800774a:	2d00      	cmp	r5, #0
 800774c:	f000 80b1 	beq.w	80078b2 <__udivmoddi4+0x282>
 8007750:	2600      	movs	r6, #0
 8007752:	e9c5 0100 	strd	r0, r1, [r5]
 8007756:	4630      	mov	r0, r6
 8007758:	4631      	mov	r1, r6
 800775a:	e8bd 87f0 	ldmia.w	sp!, {r4, r5, r6, r7, r8, r9, sl, pc}
 800775e:	fab3 f683 	clz	r6, r3
 8007762:	2e00      	cmp	r6, #0
 8007764:	d14a      	bne.n	80077fc <__udivmoddi4+0x1cc>
 8007766:	428b      	cmp	r3, r1
 8007768:	d302      	bcc.n	8007770 <__udivmoddi4+0x140>
 800776a:	4282      	cmp	r2, r0
 800776c:	f200 80b8 	bhi.w	80078e0 <__udivmoddi4+0x2b0>
 8007770:	1a84      	subs	r4, r0, r2
 8007772:	eb61 0103 	sbc.w	r1, r1, r3
 8007776:	2001      	movs	r0, #1
 8007778:	468c      	mov	ip, r1
 800777a:	2d00      	cmp	r5, #0
 800777c:	d0a8      	beq.n	80076d0 <__udivmoddi4+0xa0>
 800777e:	e9c5 4c00 	strd	r4, ip, [r5]
 8007782:	e7a5      	b.n	80076d0 <__udivmoddi4+0xa0>
 8007784:	f1c2 0320 	rsb	r3, r2, #32
 8007788:	fa20 f603 	lsr.w	r6, r0, r3
 800778c:	4097      	lsls	r7, r2
 800778e:	fa01 f002 	lsl.w	r0, r1, r2
 8007792:	ea4f 4e17 	mov.w	lr, r7, lsr #16
 8007796:	40d9      	lsrs	r1, r3
 8007798:	4330      	orrs	r0, r6
 800779a:	0c03      	lsrs	r3, r0, #16
 800779c:	fbb1 f6fe 	udiv	r6, r1, lr
 80077a0:	fa1f f887 	uxth.w	r8, r7
 80077a4:	fb0e 1116 	mls	r1, lr, r6, r1
 80077a8:	ea43 4301 	orr.w	r3, r3, r1, lsl #16
 80077ac:	fb06 f108 	mul.w	r1, r6, r8
 80077b0:	4299      	cmp	r1, r3
 80077b2:	fa04 f402 	lsl.w	r4, r4, r2
 80077b6:	d909      	bls.n	80077cc <__udivmoddi4+0x19c>
 80077b8:	18fb      	adds	r3, r7, r3
 80077ba:	f106 3cff 	add.w	ip, r6, #4294967295	; 0xffffffff
 80077be:	f080 808d 	bcs.w	80078dc <__udivmoddi4+0x2ac>
 80077c2:	4299      	cmp	r1, r3
 80077c4:	f240 808a 	bls.w	80078dc <__udivmoddi4+0x2ac>
 80077c8:	3e02      	subs	r6, #2
 80077ca:	443b      	add	r3, r7
 80077cc:	1a5b      	subs	r3, r3, r1
 80077ce:	b281      	uxth	r1, r0
 80077d0:	fbb3 f0fe 	udiv	r0, r3, lr
 80077d4:	fb0e 3310 	mls	r3, lr, r0, r3
 80077d8:	ea41 4103 	orr.w	r1, r1, r3, lsl #16
 80077dc:	fb00 f308 	mul.w	r3, r0, r8
 80077e0:	428b      	cmp	r3, r1
 80077e2:	d907      	bls.n	80077f4 <__udivmoddi4+0x1c4>
 80077e4:	1879      	adds	r1, r7, r1
 80077e6:	f100 3cff 	add.w	ip, r0, #4294967295	; 0xffffffff
 80077ea:	d273      	bcs.n	80078d4 <__udivmoddi4+0x2a4>
 80077ec:	428b      	cmp	r3, r1
 80077ee:	d971      	bls.n	80078d4 <__udivmoddi4+0x2a4>
 80077f0:	3802      	subs	r0, #2
 80077f2:	4439      	add	r1, r7
 80077f4:	1acb      	subs	r3, r1, r3
 80077f6:	ea40 4606 	orr.w	r6, r0, r6, lsl #16
 80077fa:	e778      	b.n	80076ee <__udivmoddi4+0xbe>
 80077fc:	f1c6 0c20 	rsb	ip, r6, #32
 8007800:	fa03 f406 	lsl.w	r4, r3, r6
 8007804:	fa22 f30c 	lsr.w	r3, r2, ip
 8007808:	431c      	orrs	r4, r3
 800780a:	fa20 f70c 	lsr.w	r7, r0, ip
 800780e:	fa01 f306 	lsl.w	r3, r1, r6
 8007812:	ea4f 4e14 	mov.w	lr, r4, lsr #16
 8007816:	fa21 f10c 	lsr.w	r1, r1, ip
 800781a:	431f      	orrs	r7, r3
 800781c:	0c3b      	lsrs	r3, r7, #16
 800781e:	fbb1 f9fe 	udiv	r9, r1, lr
 8007822:	fa1f f884 	uxth.w	r8, r4
 8007826:	fb0e 1119 	mls	r1, lr, r9, r1
 800782a:	ea43 4101 	orr.w	r1, r3, r1, lsl #16
 800782e:	fb09 fa08 	mul.w	sl, r9, r8
 8007832:	458a      	cmp	sl, r1
 8007834:	fa02 f206 	lsl.w	r2, r2, r6
 8007838:	fa00 f306 	lsl.w	r3, r0, r6
 800783c:	d908      	bls.n	8007850 <__udivmoddi4+0x220>
 800783e:	1861      	adds	r1, r4, r1
 8007840:	f109 30ff 	add.w	r0, r9, #4294967295	; 0xffffffff
 8007844:	d248      	bcs.n	80078d8 <__udivmoddi4+0x2a8>
 8007846:	458a      	cmp	sl, r1
 8007848:	d946      	bls.n	80078d8 <__udivmoddi4+0x2a8>
 800784a:	f1a9 0902 	sub.w	r9, r9, #2
 800784e:	4421      	add	r1, r4
 8007850:	eba1 010a 	sub.w	r1, r1, sl
 8007854:	b2bf      	uxth	r7, r7
 8007856:	fbb1 f0fe 	udiv	r0, r1, lr
 800785a:	fb0e 1110 	mls	r1, lr, r0, r1
 800785e:	ea47 4701 	orr.w	r7, r7, r1, lsl #16
 8007862:	fb00 f808 	mul.w	r8, r0, r8
 8007866:	45b8      	cmp	r8, r7
 8007868:	d907      	bls.n	800787a <__udivmoddi4+0x24a>
 800786a:	19e7      	adds	r7, r4, r7
 800786c:	f100 31ff 	add.w	r1, r0, #4294967295	; 0xffffffff
 8007870:	d22e      	bcs.n	80078d0 <__udivmoddi4+0x2a0>
 8007872:	45b8      	cmp	r8, r7
 8007874:	d92c      	bls.n	80078d0 <__udivmoddi4+0x2a0>
 8007876:	3802      	subs	r0, #2
 8007878:	4427      	add	r7, r4
 800787a:	ea40 4009 	orr.w	r0, r0, r9, lsl #16
 800787e:	eba7 0708 	sub.w	r7, r7, r8
 8007882:	fba0 8902 	umull	r8, r9, r0, r2
 8007886:	454f      	cmp	r7, r9
 8007888:	46c6      	mov	lr, r8
 800788a:	4649      	mov	r1, r9
 800788c:	d31a      	bcc.n	80078c4 <__udivmoddi4+0x294>
 800788e:	d017      	beq.n	80078c0 <__udivmoddi4+0x290>
 8007890:	b15d      	cbz	r5, 80078aa <__udivmoddi4+0x27a>
 8007892:	ebb3 020e 	subs.w	r2, r3, lr
 8007896:	eb67 0701 	sbc.w	r7, r7, r1
 800789a:	fa07 fc0c 	lsl.w	ip, r7, ip
 800789e:	40f2      	lsrs	r2, r6
 80078a0:	ea4c 0202 	orr.w	r2, ip, r2
 80078a4:	40f7      	lsrs	r7, r6
 80078a6:	e9c5 2700 	strd	r2, r7, [r5]
 80078aa:	2600      	movs	r6, #0
 80078ac:	4631      	mov	r1, r6
 80078ae:	e8bd 87f0 	ldmia.w	sp!, {r4, r5, r6, r7, r8, r9, sl, pc}
 80078b2:	462e      	mov	r6, r5
 80078b4:	4628      	mov	r0, r5
 80078b6:	e70b      	b.n	80076d0 <__udivmoddi4+0xa0>
 80078b8:	4606      	mov	r6, r0
 80078ba:	e6e9      	b.n	8007690 <__udivmoddi4+0x60>
 80078bc:	4618      	mov	r0, r3
 80078be:	e6fd      	b.n	80076bc <__udivmoddi4+0x8c>
 80078c0:	4543      	cmp	r3, r8
 80078c2:	d2e5      	bcs.n	8007890 <__udivmoddi4+0x260>
 80078c4:	ebb8 0e02 	subs.w	lr, r8, r2
 80078c8:	eb69 0104 	sbc.w	r1, r9, r4
 80078cc:	3801      	subs	r0, #1
 80078ce:	e7df      	b.n	8007890 <__udivmoddi4+0x260>
 80078d0:	4608      	mov	r0, r1
 80078d2:	e7d2      	b.n	800787a <__udivmoddi4+0x24a>
 80078d4:	4660      	mov	r0, ip
 80078d6:	e78d      	b.n	80077f4 <__udivmoddi4+0x1c4>
 80078d8:	4681      	mov	r9, r0
 80078da:	e7b9      	b.n	8007850 <__udivmoddi4+0x220>
 80078dc:	4666      	mov	r6, ip
 80078de:	e775      	b.n	80077cc <__udivmoddi4+0x19c>
 80078e0:	4630      	mov	r0, r6
 80078e2:	e74a      	b.n	800777a <__udivmoddi4+0x14a>
 80078e4:	f1ac 0c02 	sub.w	ip, ip, #2
 80078e8:	4439      	add	r1, r7
 80078ea:	e713      	b.n	8007714 <__udivmoddi4+0xe4>
 80078ec:	3802      	subs	r0, #2
 80078ee:	443c      	add	r4, r7
 80078f0:	e724      	b.n	800773c <__udivmoddi4+0x10c>
 80078f2:	bf00      	nop

080078f4 <__aeabi_dmul>:
 80078f4:	b570      	push	{r4, r5, r6, lr}
 80078f6:	f04f 0cff 	mov.w	ip, #255	; 0xff
 80078fa:	f44c 6ce0 	orr.w	ip, ip, #1792	; 0x700
 80078fe:	ea1c 5411 	ands.w	r4, ip, r1, lsr #20
 8007902:	bf1d      	ittte	ne
 8007904:	ea1c 5513 	andsne.w	r5, ip, r3, lsr #20
 8007908:	ea94 0f0c 	teqne	r4, ip
 800790c:	ea95 0f0c 	teqne	r5, ip
 8007910:	f000 f8de 	bleq	8007ad0 <__aeabi_dmul+0x1dc>
 8007914:	442c      	add	r4, r5
 8007916:	ea81 0603 	eor.w	r6, r1, r3
 800791a:	ea21 514c 	bic.w	r1, r1, ip, lsl #21
 800791e:	ea23 534c 	bic.w	r3, r3, ip, lsl #21
 8007922:	ea50 3501 	orrs.w	r5, r0, r1, lsl #12
 8007926:	bf18      	it	ne
 8007928:	ea52 3503 	orrsne.w	r5, r2, r3, lsl #12
 800792c:	f441 1180 	orr.w	r1, r1, #1048576	; 0x100000
 8007930:	f443 1380 	orr.w	r3, r3, #1048576	; 0x100000
 8007934:	d038      	beq.n	80079a8 <__aeabi_dmul+0xb4>
 8007936:	fba0 ce02 	umull	ip, lr, r0, r2
 800793a:	f04f 0500 	mov.w	r5, #0
 800793e:	fbe1 e502 	umlal	lr, r5, r1, r2
 8007942:	f006 4200 	and.w	r2, r6, #2147483648	; 0x80000000
 8007946:	fbe0 e503 	umlal	lr, r5, r0, r3
 800794a:	f04f 0600 	mov.w	r6, #0
 800794e:	fbe1 5603 	umlal	r5, r6, r1, r3
 8007952:	f09c 0f00 	teq	ip, #0
 8007956:	bf18      	it	ne
 8007958:	f04e 0e01 	orrne.w	lr, lr, #1
 800795c:	f1a4 04ff 	sub.w	r4, r4, #255	; 0xff
 8007960:	f5b6 7f00 	cmp.w	r6, #512	; 0x200
 8007964:	f564 7440 	sbc.w	r4, r4, #768	; 0x300
 8007968:	d204      	bcs.n	8007974 <__aeabi_dmul+0x80>
 800796a:	ea5f 0e4e 	movs.w	lr, lr, lsl #1
 800796e:	416d      	adcs	r5, r5
 8007970:	eb46 0606 	adc.w	r6, r6, r6
 8007974:	ea42 21c6 	orr.w	r1, r2, r6, lsl #11
 8007978:	ea41 5155 	orr.w	r1, r1, r5, lsr #21
 800797c:	ea4f 20c5 	mov.w	r0, r5, lsl #11
 8007980:	ea40 505e 	orr.w	r0, r0, lr, lsr #21
 8007984:	ea4f 2ece 	mov.w	lr, lr, lsl #11
 8007988:	f1b4 0cfd 	subs.w	ip, r4, #253	; 0xfd
 800798c:	bf88      	it	hi
 800798e:	f5bc 6fe0 	cmphi.w	ip, #1792	; 0x700
 8007992:	d81e      	bhi.n	80079d2 <__aeabi_dmul+0xde>
 8007994:	f1be 4f00 	cmp.w	lr, #2147483648	; 0x80000000
 8007998:	bf08      	it	eq
 800799a:	ea5f 0e50 	movseq.w	lr, r0, lsr #1
 800799e:	f150 0000 	adcs.w	r0, r0, #0
 80079a2:	eb41 5104 	adc.w	r1, r1, r4, lsl #20
 80079a6:	bd70      	pop	{r4, r5, r6, pc}
 80079a8:	f006 4600 	and.w	r6, r6, #2147483648	; 0x80000000
 80079ac:	ea46 0101 	orr.w	r1, r6, r1
 80079b0:	ea40 0002 	orr.w	r0, r0, r2
 80079b4:	ea81 0103 	eor.w	r1, r1, r3
 80079b8:	ebb4 045c 	subs.w	r4, r4, ip, lsr #1
 80079bc:	bfc2      	ittt	gt
 80079be:	ebd4 050c 	rsbsgt	r5, r4, ip
 80079c2:	ea41 5104 	orrgt.w	r1, r1, r4, lsl #20
 80079c6:	bd70      	popgt	{r4, r5, r6, pc}
 80079c8:	f441 1180 	orr.w	r1, r1, #1048576	; 0x100000
 80079cc:	f04f 0e00 	mov.w	lr, #0
 80079d0:	3c01      	subs	r4, #1
 80079d2:	f300 80ab 	bgt.w	8007b2c <__aeabi_dmul+0x238>
 80079d6:	f114 0f36 	cmn.w	r4, #54	; 0x36
 80079da:	bfde      	ittt	le
 80079dc:	2000      	movle	r0, #0
 80079de:	f001 4100 	andle.w	r1, r1, #2147483648	; 0x80000000
 80079e2:	bd70      	pople	{r4, r5, r6, pc}
 80079e4:	f1c4 0400 	rsb	r4, r4, #0
 80079e8:	3c20      	subs	r4, #32
 80079ea:	da35      	bge.n	8007a58 <__aeabi_dmul+0x164>
 80079ec:	340c      	adds	r4, #12
 80079ee:	dc1b      	bgt.n	8007a28 <__aeabi_dmul+0x134>
 80079f0:	f104 0414 	add.w	r4, r4, #20
 80079f4:	f1c4 0520 	rsb	r5, r4, #32
 80079f8:	fa00 f305 	lsl.w	r3, r0, r5
 80079fc:	fa20 f004 	lsr.w	r0, r0, r4
 8007a00:	fa01 f205 	lsl.w	r2, r1, r5
 8007a04:	ea40 0002 	orr.w	r0, r0, r2
 8007a08:	f001 4200 	and.w	r2, r1, #2147483648	; 0x80000000
 8007a0c:	f021 4100 	bic.w	r1, r1, #2147483648	; 0x80000000
 8007a10:	eb10 70d3 	adds.w	r0, r0, r3, lsr #31
 8007a14:	fa21 f604 	lsr.w	r6, r1, r4
 8007a18:	eb42 0106 	adc.w	r1, r2, r6
 8007a1c:	ea5e 0e43 	orrs.w	lr, lr, r3, lsl #1
 8007a20:	bf08      	it	eq
 8007a22:	ea20 70d3 	biceq.w	r0, r0, r3, lsr #31
 8007a26:	bd70      	pop	{r4, r5, r6, pc}
 8007a28:	f1c4 040c 	rsb	r4, r4, #12
 8007a2c:	f1c4 0520 	rsb	r5, r4, #32
 8007a30:	fa00 f304 	lsl.w	r3, r0, r4
 8007a34:	fa20 f005 	lsr.w	r0, r0, r5
 8007a38:	fa01 f204 	lsl.w	r2, r1, r4
 8007a3c:	ea40 0002 	orr.w	r0, r0, r2
 8007a40:	f001 4100 	and.w	r1, r1, #2147483648	; 0x80000000
 8007a44:	eb10 70d3 	adds.w	r0, r0, r3, lsr #31
 8007a48:	f141 0100 	adc.w	r1, r1, #0
 8007a4c:	ea5e 0e43 	orrs.w	lr, lr, r3, lsl #1
 8007a50:	bf08      	it	eq
 8007a52:	ea20 70d3 	biceq.w	r0, r0, r3, lsr #31
 8007a56:	bd70      	pop	{r4, r5, r6, pc}
 8007a58:	f1c4 0520 	rsb	r5, r4, #32
 8007a5c:	fa00 f205 	lsl.w	r2, r0, r5
 8007a60:	ea4e 0e02 	orr.w	lr, lr, r2
 8007a64:	fa20 f304 	lsr.w	r3, r0, r4
 8007a68:	fa01 f205 	lsl.w	r2, r1, r5
 8007a6c:	ea43 0302 	orr.w	r3, r3, r2
 8007a70:	fa21 f004 	lsr.w	r0, r1, r4
 8007a74:	f001 4100 	and.w	r1, r1, #2147483648	; 0x80000000
 8007a78:	fa21 f204 	lsr.w	r2, r1, r4
 8007a7c:	ea20 0002 	bic.w	r0, r0, r2
 8007a80:	eb00 70d3 	add.w	r0, r0, r3, lsr #31
 8007a84:	ea5e 0e43 	orrs.w	lr, lr, r3, lsl #1
 8007a88:	bf08      	it	eq
 8007a8a:	ea20 70d3 	biceq.w	r0, r0, r3, lsr #31
 8007a8e:	bd70      	pop	{r4, r5, r6, pc}
 8007a90:	f094 0f00 	teq	r4, #0
 8007a94:	d10f      	bne.n	8007ab6 <__aeabi_dmul+0x1c2>
 8007a96:	f001 4600 	and.w	r6, r1, #2147483648	; 0x80000000
 8007a9a:	0040      	lsls	r0, r0, #1
 8007a9c:	eb41 0101 	adc.w	r1, r1, r1
 8007aa0:	f411 1f80 	tst.w	r1, #1048576	; 0x100000
 8007aa4:	bf08      	it	eq
 8007aa6:	3c01      	subeq	r4, #1
 8007aa8:	d0f7      	beq.n	8007a9a <__aeabi_dmul+0x1a6>
 8007aaa:	ea41 0106 	orr.w	r1, r1, r6
 8007aae:	f095 0f00 	teq	r5, #0
 8007ab2:	bf18      	it	ne
 8007ab4:	4770      	bxne	lr
 8007ab6:	f003 4600 	and.w	r6, r3, #2147483648	; 0x80000000
 8007aba:	0052      	lsls	r2, r2, #1
 8007abc:	eb43 0303 	adc.w	r3, r3, r3
 8007ac0:	f413 1f80 	tst.w	r3, #1048576	; 0x100000
 8007ac4:	bf08      	it	eq
 8007ac6:	3d01      	subeq	r5, #1
 8007ac8:	d0f7      	beq.n	8007aba <__aeabi_dmul+0x1c6>
 8007aca:	ea43 0306 	orr.w	r3, r3, r6
 8007ace:	4770      	bx	lr
 8007ad0:	ea94 0f0c 	teq	r4, ip
 8007ad4:	ea0c 5513 	and.w	r5, ip, r3, lsr #20
 8007ad8:	bf18      	it	ne
 8007ada:	ea95 0f0c 	teqne	r5, ip
 8007ade:	d00c      	beq.n	8007afa <__aeabi_dmul+0x206>
 8007ae0:	ea50 0641 	orrs.w	r6, r0, r1, lsl #1
 8007ae4:	bf18      	it	ne
 8007ae6:	ea52 0643 	orrsne.w	r6, r2, r3, lsl #1
 8007aea:	d1d1      	bne.n	8007a90 <__aeabi_dmul+0x19c>
 8007aec:	ea81 0103 	eor.w	r1, r1, r3
 8007af0:	f001 4100 	and.w	r1, r1, #2147483648	; 0x80000000
 8007af4:	f04f 0000 	mov.w	r0, #0
 8007af8:	bd70      	pop	{r4, r5, r6, pc}
 8007afa:	ea50 0641 	orrs.w	r6, r0, r1, lsl #1
 8007afe:	bf06      	itte	eq
 8007b00:	4610      	moveq	r0, r2
 8007b02:	4619      	moveq	r1, r3
 8007b04:	ea52 0643 	orrsne.w	r6, r2, r3, lsl #1
 8007b08:	d019      	beq.n	8007b3e <__aeabi_dmul+0x24a>
 8007b0a:	ea94 0f0c 	teq	r4, ip
 8007b0e:	d102      	bne.n	8007b16 <__aeabi_dmul+0x222>
 8007b10:	ea50 3601 	orrs.w	r6, r0, r1, lsl #12
 8007b14:	d113      	bne.n	8007b3e <__aeabi_dmul+0x24a>
 8007b16:	ea95 0f0c 	teq	r5, ip
 8007b1a:	d105      	bne.n	8007b28 <__aeabi_dmul+0x234>
 8007b1c:	ea52 3603 	orrs.w	r6, r2, r3, lsl #12
 8007b20:	bf1c      	itt	ne
 8007b22:	4610      	movne	r0, r2
 8007b24:	4619      	movne	r1, r3
 8007b26:	d10a      	bne.n	8007b3e <__aeabi_dmul+0x24a>
 8007b28:	ea81 0103 	eor.w	r1, r1, r3
 8007b2c:	f001 4100 	and.w	r1, r1, #2147483648	; 0x80000000
 8007b30:	f041 41fe 	orr.w	r1, r1, #2130706432	; 0x7f000000
 8007b34:	f441 0170 	orr.w	r1, r1, #15728640	; 0xf00000
 8007b38:	f04f 0000 	mov.w	r0, #0
 8007b3c:	bd70      	pop	{r4, r5, r6, pc}
 8007b3e:	f041 41fe 	orr.w	r1, r1, #2130706432	; 0x7f000000
 8007b42:	f441 0178 	orr.w	r1, r1, #16252928	; 0xf80000
 8007b46:	bd70      	pop	{r4, r5, r6, pc}

08007b48 <__aeabi_idiv0>:
 8007b48:	4770      	bx	lr
 8007b4a:	bf00      	nop

08007b4c <__aeabi_drsub>:
 8007b4c:	f081 4100 	eor.w	r1, r1, #2147483648	; 0x80000000
 8007b50:	e002      	b.n	8007b58 <__adddf3>
 8007b52:	bf00      	nop

08007b54 <__aeabi_dsub>:
 8007b54:	f083 4300 	eor.w	r3, r3, #2147483648	; 0x80000000

08007b58 <__adddf3>:
 8007b58:	b530      	push	{r4, r5, lr}
 8007b5a:	ea4f 0441 	mov.w	r4, r1, lsl #1
 8007b5e:	ea4f 0543 	mov.w	r5, r3, lsl #1
 8007b62:	ea94 0f05 	teq	r4, r5
 8007b66:	bf08      	it	eq
 8007b68:	ea90 0f02 	teqeq	r0, r2
 8007b6c:	bf1f      	itttt	ne
 8007b6e:	ea54 0c00 	orrsne.w	ip, r4, r0
 8007b72:	ea55 0c02 	orrsne.w	ip, r5, r2
 8007b76:	ea7f 5c64 	mvnsne.w	ip, r4, asr #21
 8007b7a:	ea7f 5c65 	mvnsne.w	ip, r5, asr #21
 8007b7e:	f000 80e2 	beq.w	8007d46 <__adddf3+0x1ee>
 8007b82:	ea4f 5454 	mov.w	r4, r4, lsr #21
 8007b86:	ebd4 5555 	rsbs	r5, r4, r5, lsr #21
 8007b8a:	bfb8      	it	lt
 8007b8c:	426d      	neglt	r5, r5
 8007b8e:	dd0c      	ble.n	8007baa <__adddf3+0x52>
 8007b90:	442c      	add	r4, r5
 8007b92:	ea80 0202 	eor.w	r2, r0, r2
 8007b96:	ea81 0303 	eor.w	r3, r1, r3
 8007b9a:	ea82 0000 	eor.w	r0, r2, r0
 8007b9e:	ea83 0101 	eor.w	r1, r3, r1
 8007ba2:	ea80 0202 	eor.w	r2, r0, r2
 8007ba6:	ea81 0303 	eor.w	r3, r1, r3
 8007baa:	2d36      	cmp	r5, #54	; 0x36
 8007bac:	bf88      	it	hi
 8007bae:	bd30      	pophi	{r4, r5, pc}
 8007bb0:	f011 4f00 	tst.w	r1, #2147483648	; 0x80000000
 8007bb4:	ea4f 3101 	mov.w	r1, r1, lsl #12
 8007bb8:	f44f 1c80 	mov.w	ip, #1048576	; 0x100000
 8007bbc:	ea4c 3111 	orr.w	r1, ip, r1, lsr #12
 8007bc0:	d002      	beq.n	8007bc8 <__adddf3+0x70>
 8007bc2:	4240      	negs	r0, r0
 8007bc4:	eb61 0141 	sbc.w	r1, r1, r1, lsl #1
 8007bc8:	f013 4f00 	tst.w	r3, #2147483648	; 0x80000000
 8007bcc:	ea4f 3303 	mov.w	r3, r3, lsl #12
 8007bd0:	ea4c 3313 	orr.w	r3, ip, r3, lsr #12
 8007bd4:	d002      	beq.n	8007bdc <__adddf3+0x84>
 8007bd6:	4252      	negs	r2, r2
 8007bd8:	eb63 0343 	sbc.w	r3, r3, r3, lsl #1
 8007bdc:	ea94 0f05 	teq	r4, r5
 8007be0:	f000 80a7 	beq.w	8007d32 <__adddf3+0x1da>
 8007be4:	f1a4 0401 	sub.w	r4, r4, #1
 8007be8:	f1d5 0e20 	rsbs	lr, r5, #32
 8007bec:	db0d      	blt.n	8007c0a <__adddf3+0xb2>
 8007bee:	fa02 fc0e 	lsl.w	ip, r2, lr
 8007bf2:	fa22 f205 	lsr.w	r2, r2, r5
 8007bf6:	1880      	adds	r0, r0, r2
 8007bf8:	f141 0100 	adc.w	r1, r1, #0
 8007bfc:	fa03 f20e 	lsl.w	r2, r3, lr
 8007c00:	1880      	adds	r0, r0, r2
 8007c02:	fa43 f305 	asr.w	r3, r3, r5
 8007c06:	4159      	adcs	r1, r3
 8007c08:	e00e      	b.n	8007c28 <__adddf3+0xd0>
 8007c0a:	f1a5 0520 	sub.w	r5, r5, #32
 8007c0e:	f10e 0e20 	add.w	lr, lr, #32
 8007c12:	2a01      	cmp	r2, #1
 8007c14:	fa03 fc0e 	lsl.w	ip, r3, lr
 8007c18:	bf28      	it	cs
 8007c1a:	f04c 0c02 	orrcs.w	ip, ip, #2
 8007c1e:	fa43 f305 	asr.w	r3, r3, r5
 8007c22:	18c0      	adds	r0, r0, r3
 8007c24:	eb51 71e3 	adcs.w	r1, r1, r3, asr #31
 8007c28:	f001 4500 	and.w	r5, r1, #2147483648	; 0x80000000
 8007c2c:	d507      	bpl.n	8007c3e <__adddf3+0xe6>
 8007c2e:	f04f 0e00 	mov.w	lr, #0
 8007c32:	f1dc 0c00 	rsbs	ip, ip, #0
 8007c36:	eb7e 0000 	sbcs.w	r0, lr, r0
 8007c3a:	eb6e 0101 	sbc.w	r1, lr, r1
 8007c3e:	f5b1 1f80 	cmp.w	r1, #1048576	; 0x100000
 8007c42:	d31b      	bcc.n	8007c7c <__adddf3+0x124>
 8007c44:	f5b1 1f00 	cmp.w	r1, #2097152	; 0x200000
 8007c48:	d30c      	bcc.n	8007c64 <__adddf3+0x10c>
 8007c4a:	0849      	lsrs	r1, r1, #1
 8007c4c:	ea5f 0030 	movs.w	r0, r0, rrx
 8007c50:	ea4f 0c3c 	mov.w	ip, ip, rrx
 8007c54:	f104 0401 	add.w	r4, r4, #1
 8007c58:	ea4f 5244 	mov.w	r2, r4, lsl #21
 8007c5c:	f512 0f80 	cmn.w	r2, #4194304	; 0x400000
 8007c60:	f080 809a 	bcs.w	8007d98 <__adddf3+0x240>
 8007c64:	f1bc 4f00 	cmp.w	ip, #2147483648	; 0x80000000
 8007c68:	bf08      	it	eq
 8007c6a:	ea5f 0c50 	movseq.w	ip, r0, lsr #1
 8007c6e:	f150 0000 	adcs.w	r0, r0, #0
 8007c72:	eb41 5104 	adc.w	r1, r1, r4, lsl #20
 8007c76:	ea41 0105 	orr.w	r1, r1, r5
 8007c7a:	bd30      	pop	{r4, r5, pc}
 8007c7c:	ea5f 0c4c 	movs.w	ip, ip, lsl #1
 8007c80:	4140      	adcs	r0, r0
 8007c82:	eb41 0101 	adc.w	r1, r1, r1
 8007c86:	3c01      	subs	r4, #1
 8007c88:	bf28      	it	cs
 8007c8a:	f5b1 1f80 	cmpcs.w	r1, #1048576	; 0x100000
 8007c8e:	d2e9      	bcs.n	8007c64 <__adddf3+0x10c>
 8007c90:	f091 0f00 	teq	r1, #0
 8007c94:	bf04      	itt	eq
 8007c96:	4601      	moveq	r1, r0
 8007c98:	2000      	moveq	r0, #0
 8007c9a:	fab1 f381 	clz	r3, r1
 8007c9e:	bf08      	it	eq
 8007ca0:	3320      	addeq	r3, #32
 8007ca2:	f1a3 030b 	sub.w	r3, r3, #11
 8007ca6:	f1b3 0220 	subs.w	r2, r3, #32
 8007caa:	da0c      	bge.n	8007cc6 <__adddf3+0x16e>
 8007cac:	320c      	adds	r2, #12
 8007cae:	dd08      	ble.n	8007cc2 <__adddf3+0x16a>
 8007cb0:	f102 0c14 	add.w	ip, r2, #20
 8007cb4:	f1c2 020c 	rsb	r2, r2, #12
 8007cb8:	fa01 f00c 	lsl.w	r0, r1, ip
 8007cbc:	fa21 f102 	lsr.w	r1, r1, r2
 8007cc0:	e00c      	b.n	8007cdc <__adddf3+0x184>
 8007cc2:	f102 0214 	add.w	r2, r2, #20
 8007cc6:	bfd8      	it	le
 8007cc8:	f1c2 0c20 	rsble	ip, r2, #32
 8007ccc:	fa01 f102 	lsl.w	r1, r1, r2
 8007cd0:	fa20 fc0c 	lsr.w	ip, r0, ip
 8007cd4:	bfdc      	itt	le
 8007cd6:	ea41 010c 	orrle.w	r1, r1, ip
 8007cda:	4090      	lslle	r0, r2
 8007cdc:	1ae4      	subs	r4, r4, r3
 8007cde:	bfa2      	ittt	ge
 8007ce0:	eb01 5104 	addge.w	r1, r1, r4, lsl #20
 8007ce4:	4329      	orrge	r1, r5
 8007ce6:	bd30      	popge	{r4, r5, pc}
 8007ce8:	ea6f 0404 	mvn.w	r4, r4
 8007cec:	3c1f      	subs	r4, #31
 8007cee:	da1c      	bge.n	8007d2a <__adddf3+0x1d2>
 8007cf0:	340c      	adds	r4, #12
 8007cf2:	dc0e      	bgt.n	8007d12 <__adddf3+0x1ba>
 8007cf4:	f104 0414 	add.w	r4, r4, #20
 8007cf8:	f1c4 0220 	rsb	r2, r4, #32
 8007cfc:	fa20 f004 	lsr.w	r0, r0, r4
 8007d00:	fa01 f302 	lsl.w	r3, r1, r2
 8007d04:	ea40 0003 	orr.w	r0, r0, r3
 8007d08:	fa21 f304 	lsr.w	r3, r1, r4
 8007d0c:	ea45 0103 	orr.w	r1, r5, r3
 8007d10:	bd30      	pop	{r4, r5, pc}
 8007d12:	f1c4 040c 	rsb	r4, r4, #12
 8007d16:	f1c4 0220 	rsb	r2, r4, #32
 8007d1a:	fa20 f002 	lsr.w	r0, r0, r2
 8007d1e:	fa01 f304 	lsl.w	r3, r1, r4
 8007d22:	ea40 0003 	orr.w	r0, r0, r3
 8007d26:	4629      	mov	r1, r5
 8007d28:	bd30      	pop	{r4, r5, pc}
 8007d2a:	fa21 f004 	lsr.w	r0, r1, r4
 8007d2e:	4629      	mov	r1, r5
 8007d30:	bd30      	pop	{r4, r5, pc}
 8007d32:	f094 0f00 	teq	r4, #0
 8007d36:	f483 1380 	eor.w	r3, r3, #1048576	; 0x100000
 8007d3a:	bf06      	itte	eq
 8007d3c:	f481 1180 	eoreq.w	r1, r1, #1048576	; 0x100000
 8007d40:	3401      	addeq	r4, #1
 8007d42:	3d01      	subne	r5, #1
 8007d44:	e74e      	b.n	8007be4 <__adddf3+0x8c>
 8007d46:	ea7f 5c64 	mvns.w	ip, r4, asr #21
 8007d4a:	bf18      	it	ne
 8007d4c:	ea7f 5c65 	mvnsne.w	ip, r5, asr #21
 8007d50:	d029      	beq.n	8007da6 <__adddf3+0x24e>
 8007d52:	ea94 0f05 	teq	r4, r5
 8007d56:	bf08      	it	eq
 8007d58:	ea90 0f02 	teqeq	r0, r2
 8007d5c:	d005      	beq.n	8007d6a <__adddf3+0x212>
 8007d5e:	ea54 0c00 	orrs.w	ip, r4, r0
 8007d62:	bf04      	itt	eq
 8007d64:	4619      	moveq	r1, r3
 8007d66:	4610      	moveq	r0, r2
 8007d68:	bd30      	pop	{r4, r5, pc}
 8007d6a:	ea91 0f03 	teq	r1, r3
 8007d6e:	bf1e      	ittt	ne
 8007d70:	2100      	movne	r1, #0
 8007d72:	2000      	movne	r0, #0
 8007d74:	bd30      	popne	{r4, r5, pc}
 8007d76:	ea5f 5c54 	movs.w	ip, r4, lsr #21
 8007d7a:	d105      	bne.n	8007d88 <__adddf3+0x230>
 8007d7c:	0040      	lsls	r0, r0, #1
 8007d7e:	4149      	adcs	r1, r1
 8007d80:	bf28      	it	cs
 8007d82:	f041 4100 	orrcs.w	r1, r1, #2147483648	; 0x80000000
 8007d86:	bd30      	pop	{r4, r5, pc}
 8007d88:	f514 0480 	adds.w	r4, r4, #4194304	; 0x400000
 8007d8c:	bf3c      	itt	cc
 8007d8e:	f501 1180 	addcc.w	r1, r1, #1048576	; 0x100000
 8007d92:	bd30      	popcc	{r4, r5, pc}
 8007d94:	f001 4500 	and.w	r5, r1, #2147483648	; 0x80000000
 8007d98:	f045 41fe 	orr.w	r1, r5, #2130706432	; 0x7f000000
 8007d9c:	f441 0170 	orr.w	r1, r1, #15728640	; 0xf00000
 8007da0:	f04f 0000 	mov.w	r0, #0
 8007da4:	bd30      	pop	{r4, r5, pc}
 8007da6:	ea7f 5c64 	mvns.w	ip, r4, asr #21
 8007daa:	bf1a      	itte	ne
 8007dac:	4619      	movne	r1, r3
 8007dae:	4610      	movne	r0, r2
 8007db0:	ea7f 5c65 	mvnseq.w	ip, r5, asr #21
 8007db4:	bf1c      	itt	ne
 8007db6:	460b      	movne	r3, r1
 8007db8:	4602      	movne	r2, r0
 8007dba:	ea50 3401 	orrs.w	r4, r0, r1, lsl #12
 8007dbe:	bf06      	itte	eq
 8007dc0:	ea52 3503 	orrseq.w	r5, r2, r3, lsl #12
 8007dc4:	ea91 0f03 	teqeq	r1, r3
 8007dc8:	f441 2100 	orrne.w	r1, r1, #524288	; 0x80000
 8007dcc:	bd30      	pop	{r4, r5, pc}
 8007dce:	bf00      	nop

08007dd0 <__aeabi_ui2d>:
 8007dd0:	f090 0f00 	teq	r0, #0
 8007dd4:	bf04      	itt	eq
 8007dd6:	2100      	moveq	r1, #0
 8007dd8:	4770      	bxeq	lr
 8007dda:	b530      	push	{r4, r5, lr}
 8007ddc:	f44f 6480 	mov.w	r4, #1024	; 0x400
 8007de0:	f104 0432 	add.w	r4, r4, #50	; 0x32
 8007de4:	f04f 0500 	mov.w	r5, #0
 8007de8:	f04f 0100 	mov.w	r1, #0
 8007dec:	e750      	b.n	8007c90 <__adddf3+0x138>
 8007dee:	bf00      	nop

08007df0 <__aeabi_i2d>:
 8007df0:	f090 0f00 	teq	r0, #0
 8007df4:	bf04      	itt	eq
 8007df6:	2100      	moveq	r1, #0
 8007df8:	4770      	bxeq	lr
 8007dfa:	b530      	push	{r4, r5, lr}
 8007dfc:	f44f 6480 	mov.w	r4, #1024	; 0x400
 8007e00:	f104 0432 	add.w	r4, r4, #50	; 0x32
 8007e04:	f010 4500 	ands.w	r5, r0, #2147483648	; 0x80000000
 8007e08:	bf48      	it	mi
 8007e0a:	4240      	negmi	r0, r0
 8007e0c:	f04f 0100 	mov.w	r1, #0
 8007e10:	e73e      	b.n	8007c90 <__adddf3+0x138>
 8007e12:	bf00      	nop

08007e14 <__aeabi_f2d>:
 8007e14:	0042      	lsls	r2, r0, #1
 8007e16:	ea4f 01e2 	mov.w	r1, r2, asr #3
 8007e1a:	ea4f 0131 	mov.w	r1, r1, rrx
 8007e1e:	ea4f 7002 	mov.w	r0, r2, lsl #28
 8007e22:	bf1f      	itttt	ne
 8007e24:	f012 437f 	andsne.w	r3, r2, #4278190080	; 0xff000000
 8007e28:	f093 4f7f 	teqne	r3, #4278190080	; 0xff000000
 8007e2c:	f081 5160 	eorne.w	r1, r1, #939524096	; 0x38000000
 8007e30:	4770      	bxne	lr
 8007e32:	f032 427f 	bics.w	r2, r2, #4278190080	; 0xff000000
 8007e36:	bf08      	it	eq
 8007e38:	4770      	bxeq	lr
 8007e3a:	f093 4f7f 	teq	r3, #4278190080	; 0xff000000
 8007e3e:	bf04      	itt	eq
 8007e40:	f441 2100 	orreq.w	r1, r1, #524288	; 0x80000
 8007e44:	4770      	bxeq	lr
 8007e46:	b530      	push	{r4, r5, lr}
 8007e48:	f44f 7460 	mov.w	r4, #896	; 0x380
 8007e4c:	f001 4500 	and.w	r5, r1, #2147483648	; 0x80000000
 8007e50:	f021 4100 	bic.w	r1, r1, #2147483648	; 0x80000000
 8007e54:	e71c      	b.n	8007c90 <__adddf3+0x138>
 8007e56:	bf00      	nop

08007e58 <__aeabi_ul2d>:
 8007e58:	ea50 0201 	orrs.w	r2, r0, r1
 8007e5c:	bf08      	it	eq
 8007e5e:	4770      	bxeq	lr
 8007e60:	b530      	push	{r4, r5, lr}
 8007e62:	f04f 0500 	mov.w	r5, #0
 8007e66:	e00a      	b.n	8007e7e <__aeabi_l2d+0x16>

08007e68 <__aeabi_l2d>:
 8007e68:	ea50 0201 	orrs.w	r2, r0, r1
 8007e6c:	bf08      	it	eq
 8007e6e:	4770      	bxeq	lr
 8007e70:	b530      	push	{r4, r5, lr}
 8007e72:	f011 4500 	ands.w	r5, r1, #2147483648	; 0x80000000
 8007e76:	d502      	bpl.n	8007e7e <__aeabi_l2d+0x16>
 8007e78:	4240      	negs	r0, r0
 8007e7a:	eb61 0141 	sbc.w	r1, r1, r1, lsl #1
 8007e7e:	f44f 6480 	mov.w	r4, #1024	; 0x400
 8007e82:	f104 0432 	add.w	r4, r4, #50	; 0x32
 8007e86:	ea5f 5c91 	movs.w	ip, r1, lsr #22
 8007e8a:	f43f aed8 	beq.w	8007c3e <__adddf3+0xe6>
 8007e8e:	f04f 0203 	mov.w	r2, #3
 8007e92:	ea5f 0cdc 	movs.w	ip, ip, lsr #3
 8007e96:	bf18      	it	ne
 8007e98:	3203      	addne	r2, #3
 8007e9a:	ea5f 0cdc 	movs.w	ip, ip, lsr #3
 8007e9e:	bf18      	it	ne
 8007ea0:	3203      	addne	r2, #3
 8007ea2:	eb02 02dc 	add.w	r2, r2, ip, lsr #3
 8007ea6:	f1c2 0320 	rsb	r3, r2, #32
 8007eaa:	fa00 fc03 	lsl.w	ip, r0, r3
 8007eae:	fa20 f002 	lsr.w	r0, r0, r2
 8007eb2:	fa01 fe03 	lsl.w	lr, r1, r3
 8007eb6:	ea40 000e 	orr.w	r0, r0, lr
 8007eba:	fa21 f102 	lsr.w	r1, r1, r2
 8007ebe:	4414      	add	r4, r2
 8007ec0:	e6bd      	b.n	8007c3e <__adddf3+0xe6>
 8007ec2:	bf00      	nop

08007ec4 <__aeabi_d2uiz>:
 8007ec4:	004a      	lsls	r2, r1, #1
 8007ec6:	d211      	bcs.n	8007eec <__aeabi_d2uiz+0x28>
 8007ec8:	f512 1200 	adds.w	r2, r2, #2097152	; 0x200000
 8007ecc:	d211      	bcs.n	8007ef2 <__aeabi_d2uiz+0x2e>
 8007ece:	d50d      	bpl.n	8007eec <__aeabi_d2uiz+0x28>
 8007ed0:	f46f 7378 	mvn.w	r3, #992	; 0x3e0
 8007ed4:	ebb3 5262 	subs.w	r2, r3, r2, asr #21
 8007ed8:	d40e      	bmi.n	8007ef8 <__aeabi_d2uiz+0x34>
 8007eda:	ea4f 23c1 	mov.w	r3, r1, lsl #11
 8007ede:	f043 4300 	orr.w	r3, r3, #2147483648	; 0x80000000
 8007ee2:	ea43 5350 	orr.w	r3, r3, r0, lsr #21
 8007ee6:	fa23 f002 	lsr.w	r0, r3, r2
 8007eea:	4770      	bx	lr
 8007eec:	f04f 0000 	mov.w	r0, #0
 8007ef0:	4770      	bx	lr
 8007ef2:	ea50 3001 	orrs.w	r0, r0, r1, lsl #12
 8007ef6:	d102      	bne.n	8007efe <__aeabi_d2uiz+0x3a>
 8007ef8:	f04f 30ff 	mov.w	r0, #4294967295	; 0xffffffff
 8007efc:	4770      	bx	lr
 8007efe:	f04f 0000 	mov.w	r0, #0
 8007f02:	4770      	bx	lr

08007f04 <main>:
 8007f04:	4945      	ldr	r1, [pc, #276]	; (800801c <main+0x118>)
 8007f06:	4b46      	ldr	r3, [pc, #280]	; (8008020 <main+0x11c>)
 8007f08:	68ca      	ldr	r2, [r1, #12]
 8007f0a:	e92d 4880 	stmdb	sp!, {r7, fp, lr}
 8007f0e:	f64f 00ff 	movw	r0, #63743	; 0xf8ff
 8007f12:	4002      	ands	r2, r0
 8007f14:	4313      	orrs	r3, r2
 8007f16:	b0d1      	sub	sp, #324	; 0x144
 8007f18:	60cb      	str	r3, [r1, #12]
 8007f1a:	200f      	movs	r0, #15
 8007f1c:	f7fa fb2e 	bl	800257c <HAL_InitTick>
 8007f20:	2800      	cmp	r0, #0
 8007f22:	f000 8301 	beq.w	8008528 <main+0x624>
 8007f26:	4a3f      	ldr	r2, [pc, #252]	; (8008024 <main+0x120>)
 8007f28:	6813      	ldr	r3, [r2, #0]
 8007f2a:	f403 63c0 	and.w	r3, r3, #1536	; 0x600
 8007f2e:	f5b3 7f00 	cmp.w	r3, #512	; 0x200
 8007f32:	d01e      	beq.n	8007f72 <main+0x6e>
 8007f34:	6813      	ldr	r3, [r2, #0]
 8007f36:	493c      	ldr	r1, [pc, #240]	; (8008028 <main+0x124>)
 8007f38:	483c      	ldr	r0, [pc, #240]	; (800802c <main+0x128>)
 8007f3a:	f423 63c0 	bic.w	r3, r3, #1536	; 0x600
 8007f3e:	f443 7300 	orr.w	r3, r3, #512	; 0x200
 8007f42:	6013      	str	r3, [r2, #0]
 8007f44:	680c      	ldr	r4, [r1, #0]
 8007f46:	6951      	ldr	r1, [r2, #20]
 8007f48:	2332      	movs	r3, #50	; 0x32
 8007f4a:	fb03 f304 	mul.w	r3, r3, r4
 8007f4e:	fbb3 f3f0 	udiv	r3, r3, r0
 8007f52:	0548      	lsls	r0, r1, #21
 8007f54:	f103 0301 	add.w	r3, r3, #1
 8007f58:	d506      	bpl.n	8007f68 <main+0x64>
 8007f5a:	e000      	b.n	8007f5e <main+0x5a>
 8007f5c:	b123      	cbz	r3, 8007f68 <main+0x64>
 8007f5e:	6951      	ldr	r1, [r2, #20]
 8007f60:	0549      	lsls	r1, r1, #21
 8007f62:	f103 33ff 	add.w	r3, r3, #4294967295	; 0xffffffff
 8007f66:	d4f9      	bmi.n	8007f5c <main+0x58>
 8007f68:	4b2e      	ldr	r3, [pc, #184]	; (8008024 <main+0x120>)
 8007f6a:	695b      	ldr	r3, [r3, #20]
 8007f6c:	055f      	lsls	r7, r3, #21
 8007f6e:	f100 82d9 	bmi.w	8008524 <main+0x620>
 8007f72:	4b2f      	ldr	r3, [pc, #188]	; (8008030 <main+0x12c>)
 8007f74:	6899      	ldr	r1, [r3, #8]
 8007f76:	68db      	ldr	r3, [r3, #12]
 8007f78:	f001 010c 	and.w	r1, r1, #12
 8007f7c:	2904      	cmp	r1, #4
 8007f7e:	f000 82ec 	beq.w	800855a <main+0x656>
 8007f82:	290c      	cmp	r1, #12
 8007f84:	f000 82e4 	beq.w	8008550 <main+0x64c>
 8007f88:	4b29      	ldr	r3, [pc, #164]	; (8008030 <main+0x12c>)
 8007f8a:	4c2a      	ldr	r4, [pc, #168]	; (8008034 <main+0x130>)
 8007f8c:	681a      	ldr	r2, [r3, #0]
 8007f8e:	f442 7280 	orr.w	r2, r2, #256	; 0x100
 8007f92:	601a      	str	r2, [r3, #0]
 8007f94:	6820      	ldr	r0, [r4, #0]
 8007f96:	e004      	b.n	8007fa2 <main+0x9e>
 8007f98:	6822      	ldr	r2, [r4, #0]
 8007f9a:	1a12      	subs	r2, r2, r0
 8007f9c:	2a02      	cmp	r2, #2
 8007f9e:	f200 82c1 	bhi.w	8008524 <main+0x620>
 8007fa2:	681a      	ldr	r2, [r3, #0]
 8007fa4:	0556      	lsls	r6, r2, #21
 8007fa6:	d5f7      	bpl.n	8007f98 <main+0x94>
 8007fa8:	685a      	ldr	r2, [r3, #4]
 8007faa:	f022 52f8 	bic.w	r2, r2, #520093696	; 0x1f000000
 8007fae:	f042 5280 	orr.w	r2, r2, #268435456	; 0x10000000
 8007fb2:	605a      	str	r2, [r3, #4]
 8007fb4:	e2da      	b.n	800856c <main+0x668>
 8007fb6:	f402 40fe 	and.w	r0, r2, #32512	; 0x7f00
 8007fba:	f5b0 6f20 	cmp.w	r0, #2560	; 0xa00
 8007fbe:	f040 82ec 	bne.w	800859a <main+0x696>
 8007fc2:	f002 4078 	and.w	r0, r2, #4160749568	; 0xf8000000
 8007fc6:	f1b0 5f60 	cmp.w	r0, #939524096	; 0x38000000
 8007fca:	f040 82e6 	bne.w	800859a <main+0x696>
 8007fce:	481a      	ldr	r0, [pc, #104]	; (8008038 <main+0x134>)
 8007fd0:	4202      	tst	r2, r0
 8007fd2:	f040 82e2 	bne.w	800859a <main+0x696>
 8007fd6:	681a      	ldr	r2, [r3, #0]
 8007fd8:	0195      	lsls	r5, r2, #6
 8007fda:	f140 8331 	bpl.w	8008640 <main+0x73c>
 8007fde:	4a17      	ldr	r2, [pc, #92]	; (800803c <main+0x138>)
 8007fe0:	6813      	ldr	r3, [r2, #0]
 8007fe2:	0759      	lsls	r1, r3, #29
 8007fe4:	d40b      	bmi.n	8007ffe <main+0xfa>
 8007fe6:	6813      	ldr	r3, [r2, #0]
 8007fe8:	f023 0307 	bic.w	r3, r3, #7
 8007fec:	f043 0304 	orr.w	r3, r3, #4
 8007ff0:	6013      	str	r3, [r2, #0]
 8007ff2:	6813      	ldr	r3, [r2, #0]
 8007ff4:	f003 0307 	and.w	r3, r3, #7
 8007ff8:	2b04      	cmp	r3, #4
 8007ffa:	f040 8293 	bne.w	8008524 <main+0x620>
 8007ffe:	4b0c      	ldr	r3, [pc, #48]	; (8008030 <main+0x12c>)
 8008000:	689a      	ldr	r2, [r3, #8]
 8008002:	681a      	ldr	r2, [r3, #0]
 8008004:	0192      	lsls	r2, r2, #6
 8008006:	f140 828d 	bpl.w	8008524 <main+0x620>
 800800a:	689a      	ldr	r2, [r3, #8]
 800800c:	f042 0203 	orr.w	r2, r2, #3
 8008010:	609a      	str	r2, [r3, #8]
 8008012:	6820      	ldr	r0, [r4, #0]
 8008014:	f241 3188 	movw	r1, #5000	; 0x1388
 8008018:	e017      	b.n	800804a <main+0x146>
 800801a:	bf00      	nop
 800801c:	e000ed00 	.word	0xe000ed00
 8008020:	05fa0300 	.word	0x05fa0300
 8008024:	40007000 	.word	0x40007000
 8008028:	20000000 	.word	0x20000000
 800802c:	000f4240 	.word	0x000f4240
 8008030:	40021000 	.word	0x40021000
 8008034:	200000ac 	.word	0x200000ac
 8008038:	06600070 	.word	0x06600070
 800803c:	40022000 	.word	0x40022000
 8008040:	6822      	ldr	r2, [r4, #0]
 8008042:	1a12      	subs	r2, r2, r0
 8008044:	428a      	cmp	r2, r1
 8008046:	f200 826d 	bhi.w	8008524 <main+0x620>
 800804a:	689a      	ldr	r2, [r3, #8]
 800804c:	f002 020c 	and.w	r2, r2, #12
 8008050:	2a0c      	cmp	r2, #12
 8008052:	d1f5      	bne.n	8008040 <main+0x13c>
 8008054:	689a      	ldr	r2, [r3, #8]
 8008056:	f012 0ff0 	tst.w	r2, #240	; 0xf0
 800805a:	d003      	beq.n	8008064 <main+0x160>
 800805c:	689a      	ldr	r2, [r3, #8]
 800805e:	f022 02f0 	bic.w	r2, r2, #240	; 0xf0
 8008062:	609a      	str	r2, [r3, #8]
 8008064:	4a9b      	ldr	r2, [pc, #620]	; (80082d4 <main+0x3d0>)
 8008066:	6813      	ldr	r3, [r2, #0]
 8008068:	f003 0307 	and.w	r3, r3, #7
 800806c:	2b04      	cmp	r3, #4
 800806e:	d90b      	bls.n	8008088 <main+0x184>
 8008070:	6813      	ldr	r3, [r2, #0]
 8008072:	f023 0307 	bic.w	r3, r3, #7
 8008076:	f043 0304 	orr.w	r3, r3, #4
 800807a:	6013      	str	r3, [r2, #0]
 800807c:	6813      	ldr	r3, [r2, #0]
 800807e:	f003 0307 	and.w	r3, r3, #7
 8008082:	2b04      	cmp	r3, #4
 8008084:	f040 824e 	bne.w	8008524 <main+0x620>
 8008088:	4d93      	ldr	r5, [pc, #588]	; (80082d8 <main+0x3d4>)
 800808a:	4e94      	ldr	r6, [pc, #592]	; (80082dc <main+0x3d8>)
 800808c:	68ab      	ldr	r3, [r5, #8]
 800808e:	f423 63e0 	bic.w	r3, r3, #1792	; 0x700
 8008092:	60ab      	str	r3, [r5, #8]
 8008094:	68ab      	ldr	r3, [r5, #8]
 8008096:	f423 5360 	bic.w	r3, r3, #14336	; 0x3800
 800809a:	60ab      	str	r3, [r5, #8]
 800809c:	f7fa f88c 	bl	80021b8 <HAL_RCC_GetSysClockFreq>
 80080a0:	68a9      	ldr	r1, [r5, #8]
 80080a2:	4a8f      	ldr	r2, [pc, #572]	; (80082e0 <main+0x3dc>)
 80080a4:	f3c1 1103 	ubfx	r1, r1, #4, #4
 80080a8:	440a      	add	r2, r1
 80080aa:	4603      	mov	r3, r0
 80080ac:	f892 2d74 	ldrb.w	r2, [r2, #3444]	; 0xd74
 80080b0:	6870      	ldr	r0, [r6, #4]
 80080b2:	f002 021f 	and.w	r2, r2, #31
 80080b6:	40d3      	lsrs	r3, r2
 80080b8:	6033      	str	r3, [r6, #0]
 80080ba:	f7fa fa5f 	bl	800257c <HAL_InitTick>
 80080be:	4606      	mov	r6, r0
 80080c0:	2800      	cmp	r0, #0
 80080c2:	f040 822f 	bne.w	8008524 <main+0x620>
 80080c6:	e9cd 003c 	strd	r0, r0, [sp, #240]	; 0xf0
 80080ca:	6cea      	ldr	r2, [r5, #76]	; 0x4c
 80080cc:	4b85      	ldr	r3, [pc, #532]	; (80082e4 <main+0x3e0>)
 80080ce:	f042 0202 	orr.w	r2, r2, #2
 80080d2:	64ea      	str	r2, [r5, #76]	; 0x4c
 80080d4:	6cea      	ldr	r2, [r5, #76]	; 0x4c
 80080d6:	f002 0202 	and.w	r2, r2, #2
 80080da:	9206      	str	r2, [sp, #24]
 80080dc:	9a06      	ldr	r2, [sp, #24]
 80080de:	6cea      	ldr	r2, [r5, #76]	; 0x4c
 80080e0:	f042 0280 	orr.w	r2, r2, #128	; 0x80
 80080e4:	64ea      	str	r2, [r5, #76]	; 0x4c
 80080e6:	6cea      	ldr	r2, [r5, #76]	; 0x4c
 80080e8:	f002 0280 	and.w	r2, r2, #128	; 0x80
 80080ec:	9205      	str	r2, [sp, #20]
 80080ee:	9a05      	ldr	r2, [sp, #20]
 80080f0:	6cea      	ldr	r2, [r5, #76]	; 0x4c
 80080f2:	f042 0201 	orr.w	r2, r2, #1
 80080f6:	64ea      	str	r2, [r5, #76]	; 0x4c
 80080f8:	6cea      	ldr	r2, [r5, #76]	; 0x4c
 80080fa:	f002 0201 	and.w	r2, r2, #1
 80080fe:	9204      	str	r2, [sp, #16]
 8008100:	f04f 4a90 	mov.w	sl, #1207959552	; 0x48000000
 8008104:	9a04      	ldr	r2, [sp, #16]
 8008106:	f04f 0810 	mov.w	r8, #16
 800810a:	f241 2201 	movw	r2, #4609	; 0x1201
 800810e:	629a      	str	r2, [r3, #40]	; 0x28
 8008110:	2702      	movs	r7, #2
 8008112:	f44f 1288 	mov.w	r2, #1114112	; 0x110000
 8008116:	4618      	mov	r0, r3
 8008118:	f8ca 8028 	str.w	r8, [sl, #40]	; 0x28
 800811c:	2308      	movs	r3, #8
 800811e:	a939      	add	r1, sp, #228	; 0xe4
 8008120:	e9cd 3239 	strd	r3, r2, [sp, #228]	; 0xe4
 8008124:	f04f 0b09 	mov.w	fp, #9
 8008128:	973b      	str	r7, [sp, #236]	; 0xec
 800812a:	f7fa f89b 	bl	8002264 <HAL_GPIO_Init>
 800812e:	486e      	ldr	r0, [pc, #440]	; (80082e8 <main+0x3e4>)
 8008130:	f8cd b0e4 	str.w	fp, [sp, #228]	; 0xe4
 8008134:	a939      	add	r1, sp, #228	; 0xe4
 8008136:	e9cd 673a 	strd	r6, r7, [sp, #232]	; 0xe8
 800813a:	f7fa f893 	bl	8002264 <HAL_GPIO_Init>
 800813e:	f44f 1244 	mov.w	r2, #3211264	; 0x310000
 8008142:	f44f 6c00 	mov.w	ip, #2048	; 0x800
 8008146:	a939      	add	r1, sp, #228	; 0xe4
 8008148:	4650      	mov	r0, sl
 800814a:	e9cd c239 	strd	ip, r2, [sp, #228]	; 0xe4
 800814e:	973b      	str	r7, [sp, #236]	; 0xec
 8008150:	f7fa f888 	bl	8002264 <HAL_GPIO_Init>
 8008154:	4b63      	ldr	r3, [pc, #396]	; (80082e4 <main+0x3e0>)
 8008156:	4618      	mov	r0, r3
 8008158:	f241 2301 	movw	r3, #4609	; 0x1201
 800815c:	f04f 0901 	mov.w	r9, #1
 8008160:	a939      	add	r1, sp, #228	; 0xe4
 8008162:	9339      	str	r3, [sp, #228]	; 0xe4
 8008164:	2303      	movs	r3, #3
 8008166:	933c      	str	r3, [sp, #240]	; 0xf0
 8008168:	e9cd 963a 	strd	r9, r6, [sp, #232]	; 0xe8
 800816c:	f7fa f87a 	bl	8002264 <HAL_GPIO_Init>
 8008170:	4b5c      	ldr	r3, [pc, #368]	; (80082e4 <main+0x3e0>)
 8008172:	9739      	str	r7, [sp, #228]	; 0xe4
 8008174:	4618      	mov	r0, r3
 8008176:	a939      	add	r1, sp, #228	; 0xe4
 8008178:	e9cd 673a 	strd	r6, r7, [sp, #232]	; 0xe8
 800817c:	f7fa f872 	bl	8002264 <HAL_GPIO_Init>
 8008180:	2303      	movs	r3, #3
 8008182:	a939      	add	r1, sp, #228	; 0xe4
 8008184:	4650      	mov	r0, sl
 8008186:	933c      	str	r3, [sp, #240]	; 0xf0
 8008188:	e9cd 8939 	strd	r8, r9, [sp, #228]	; 0xe4
 800818c:	973b      	str	r7, [sp, #236]	; 0xec
 800818e:	f7fa f869 	bl	8002264 <HAL_GPIO_Init>
 8008192:	4631      	mov	r1, r6
 8008194:	4658      	mov	r0, fp
 8008196:	f7f8 f83d 	bl	8000214 <HAL_NVIC_SetPriority.constprop.0>
 800819a:	4658      	mov	r0, fp
 800819c:	f7fa f9e2 	bl	8002564 <HAL_NVIC_EnableIRQ.part.0>
 80081a0:	4631      	mov	r1, r6
 80081a2:	2028      	movs	r0, #40	; 0x28
 80081a4:	f7f8 f836 	bl	8000214 <HAL_NVIC_SetPriority.constprop.0>
 80081a8:	2028      	movs	r0, #40	; 0x28
 80081aa:	f7fa f9db 	bl	8002564 <HAL_NVIC_EnableIRQ.part.0>
 80081ae:	6cab      	ldr	r3, [r5, #72]	; 0x48
 80081b0:	ea43 0309 	orr.w	r3, r3, r9
 80081b4:	64ab      	str	r3, [r5, #72]	; 0x48
 80081b6:	6cab      	ldr	r3, [r5, #72]	; 0x48
 80081b8:	ea03 0309 	and.w	r3, r3, r9
 80081bc:	4631      	mov	r1, r6
 80081be:	9303      	str	r3, [sp, #12]
 80081c0:	200c      	movs	r0, #12
 80081c2:	9b03      	ldr	r3, [sp, #12]
 80081c4:	f7f8 f826 	bl	8000214 <HAL_NVIC_SetPriority.constprop.0>
 80081c8:	200c      	movs	r0, #12
 80081ca:	f7fa f9cb 	bl	8002564 <HAL_NVIC_EnableIRQ.part.0>
 80081ce:	4631      	mov	r1, r6
 80081d0:	200d      	movs	r0, #13
 80081d2:	f7f8 f81f 	bl	8000214 <HAL_NVIC_SetPriority.constprop.0>
 80081d6:	200d      	movs	r0, #13
 80081d8:	f7fa f9c4 	bl	8002564 <HAL_NVIC_EnableIRQ.part.0>
 80081dc:	4631      	mov	r1, r6
 80081de:	4640      	mov	r0, r8
 80081e0:	f7f8 f818 	bl	8000214 <HAL_NVIC_SetPriority.constprop.0>
 80081e4:	4640      	mov	r0, r8
 80081e6:	f7fa f9bd 	bl	8002564 <HAL_NVIC_EnableIRQ.part.0>
 80081ea:	4631      	mov	r1, r6
 80081ec:	2011      	movs	r0, #17
 80081ee:	f7f8 f811 	bl	8000214 <HAL_NVIC_SetPriority.constprop.0>
 80081f2:	2011      	movs	r0, #17
 80081f4:	f7fa f9b6 	bl	8002564 <HAL_NVIC_EnableIRQ.part.0>
 80081f8:	f8df e100 	ldr.w	lr, [pc, #256]	; 80082fc <main+0x3f8>
 80081fc:	483b      	ldr	r0, [pc, #236]	; (80082ec <main+0x3e8>)
 80081fe:	f8c4 614c 	str.w	r6, [r4, #332]	; 0x14c
 8008202:	f44f 32e1 	mov.w	r2, #115200	; 0x1c200
 8008206:	210c      	movs	r1, #12
 8008208:	f44f 7340 	mov.w	r3, #768	; 0x300
 800820c:	e9c4 6654 	strd	r6, r6, [r4, #336]	; 0x150
 8008210:	e9c4 6658 	strd	r6, r6, [r4, #352]	; 0x160
 8008214:	e9c4 e251 	strd	lr, r2, [r4, #324]	; 0x144
 8008218:	e9c4 1356 	strd	r1, r3, [r4, #344]	; 0x158
 800821c:	f8c4 6168 	str.w	r6, [r4, #360]	; 0x168
 8008220:	f7fa fa8c 	bl	800273c <HAL_UART_Init.constprop.0>
 8008224:	2800      	cmp	r0, #0
 8008226:	f040 817d 	bne.w	8008524 <main+0x620>
 800822a:	f44f 6670 	mov.w	r6, #3840	; 0xf00
 800822e:	2208      	movs	r2, #8
 8008230:	f894 3135 	ldrb.w	r3, [r4, #309]	; 0x135
 8008234:	492e      	ldr	r1, [pc, #184]	; (80082f0 <main+0x3ec>)
 8008236:	f8c4 210c 	str.w	r2, [r4, #268]	; 0x10c
 800823a:	f44f 7c82 	mov.w	ip, #260	; 0x104
 800823e:	f44f 7200 	mov.w	r2, #512	; 0x200
 8008242:	f8c4 60e4 	str.w	r6, [r4, #228]	; 0xe4
 8008246:	2607      	movs	r6, #7
 8008248:	e9c4 003a 	strd	r0, r0, [r4, #232]	; 0xe8
 800824c:	e9c4 003d 	strd	r0, r0, [r4, #244]	; 0xf4
 8008250:	e9c4 003f 	strd	r0, r0, [r4, #252]	; 0xfc
 8008254:	e9c4 1c36 	strd	r1, ip, [r4, #216]	; 0xd8
 8008258:	f8c4 00e0 	str.w	r0, [r4, #224]	; 0xe0
 800825c:	f8c4 0108 	str.w	r0, [r4, #264]	; 0x108
 8008260:	f003 0bff 	and.w	fp, r3, #255	; 0xff
 8008264:	f8c4 20f0 	str.w	r2, [r4, #240]	; 0xf0
 8008268:	f8c4 6104 	str.w	r6, [r4, #260]	; 0x104
 800826c:	2b00      	cmp	r3, #0
 800826e:	f000 8271 	beq.w	8008754 <main+0x850>
 8008272:	f884 7135 	strb.w	r7, [r4, #309]	; 0x135
 8008276:	680b      	ldr	r3, [r1, #0]
 8008278:	f023 0340 	bic.w	r3, r3, #64	; 0x40
 800827c:	600b      	str	r3, [r1, #0]
 800827e:	460f      	mov	r7, r1
 8008280:	f640 7208 	movw	r2, #3848	; 0xf08
 8008284:	f44f 7341 	mov.w	r3, #772	; 0x304
 8008288:	f8d4 1100 	ldr.w	r1, [r4, #256]	; 0x100
 800828c:	f401 5100 	and.w	r1, r1, #8192	; 0x2000
 8008290:	4310      	orrs	r0, r2
 8008292:	4319      	orrs	r1, r3
 8008294:	2601      	movs	r6, #1
 8008296:	2300      	movs	r3, #0
 8008298:	6039      	str	r1, [r7, #0]
 800829a:	6078      	str	r0, [r7, #4]
 800829c:	f8c4 3138 	str.w	r3, [r4, #312]	; 0x138
 80082a0:	f884 6135 	strb.w	r6, [r4, #309]	; 0x135
 80082a4:	f894 2209 	ldrb.w	r2, [r4, #521]	; 0x209
 80082a8:	4912      	ldr	r1, [pc, #72]	; (80082f4 <main+0x3f0>)
 80082aa:	4813      	ldr	r0, [pc, #76]	; (80082f8 <main+0x3f4>)
 80082ac:	f8c4 31e8 	str.w	r3, [r4, #488]	; 0x1e8
 80082b0:	e9c4 3376 	strd	r3, r3, [r4, #472]	; 0x1d8
 80082b4:	e9c4 3378 	strd	r3, r3, [r4, #480]	; 0x1e0
 80082b8:	23a4      	movs	r3, #164	; 0xa4
 80082ba:	e9c4 1373 	strd	r1, r3, [r4, #460]	; 0x1cc
 80082be:	f8c4 61d4 	str.w	r6, [r4, #468]	; 0x1d4
 80082c2:	f002 05ff 	and.w	r5, r2, #255	; 0xff
 80082c6:	f8c4 01c8 	str.w	r0, [r4, #456]	; 0x1c8
 80082ca:	2a00      	cmp	r2, #0
 80082cc:	f000 8203 	beq.w	80086d6 <main+0x7d2>
 80082d0:	e016      	b.n	8008300 <main+0x3fc>
 80082d2:	bf00      	nop
 80082d4:	40022000 	.word	0x40022000
 80082d8:	40021000 	.word	0x40021000
 80082dc:	20000000 	.word	0x20000000
 80082e0:	0800b5e0 	.word	0x0800b5e0
 80082e4:	48000400 	.word	0x48000400
 80082e8:	48001c00 	.word	0x48001c00
 80082ec:	200001f0 	.word	0x200001f0
 80082f0:	40013000 	.word	0x40013000
 80082f4:	10909cec 	.word	0x10909cec
 80082f8:	40005800 	.word	0x40005800
 80082fc:	40004400 	.word	0x40004400
 8008300:	f8d4 31c8 	ldr.w	r3, [r4, #456]	; 0x1c8
 8008304:	f8d4 01d4 	ldr.w	r0, [r4, #468]	; 0x1d4
 8008308:	2224      	movs	r2, #36	; 0x24
 800830a:	f884 2209 	strb.w	r2, [r4, #521]	; 0x209
 800830e:	6819      	ldr	r1, [r3, #0]
 8008310:	f8d4 21cc 	ldr.w	r2, [r4, #460]	; 0x1cc
 8008314:	f021 0101 	bic.w	r1, r1, #1
 8008318:	f022 6270 	bic.w	r2, r2, #251658240	; 0xf000000
 800831c:	6019      	str	r1, [r3, #0]
 800831e:	611a      	str	r2, [r3, #16]
 8008320:	689a      	ldr	r2, [r3, #8]
 8008322:	2801      	cmp	r0, #1
 8008324:	f422 4200 	bic.w	r2, r2, #32768	; 0x8000
 8008328:	609a      	str	r2, [r3, #8]
 800832a:	f8d4 21d0 	ldr.w	r2, [r4, #464]	; 0x1d0
 800832e:	f000 82bb 	beq.w	80088a8 <main+0x9a4>
 8008332:	f442 4204 	orr.w	r2, r2, #33792	; 0x8400
 8008336:	2802      	cmp	r0, #2
 8008338:	609a      	str	r2, [r3, #8]
 800833a:	bf04      	itt	eq
 800833c:	f44f 6200 	moveq.w	r2, #2048	; 0x800
 8008340:	605a      	streq	r2, [r3, #4]
 8008342:	6859      	ldr	r1, [r3, #4]
 8008344:	f8d4 51e0 	ldr.w	r5, [r4, #480]	; 0x1e0
 8008348:	e9d4 2676 	ldrd	r2, r6, [r4, #472]	; 0x1d8
 800834c:	f041 7100 	orr.w	r1, r1, #33554432	; 0x2000000
 8008350:	f441 4100 	orr.w	r1, r1, #32768	; 0x8000
 8008354:	6059      	str	r1, [r3, #4]
 8008356:	4332      	orrs	r2, r6
 8008358:	68d8      	ldr	r0, [r3, #12]
 800835a:	f8d4 11e4 	ldr.w	r1, [r4, #484]	; 0x1e4
 800835e:	ea42 2205 	orr.w	r2, r2, r5, lsl #8
 8008362:	f8d4 51e8 	ldr.w	r5, [r4, #488]	; 0x1e8
 8008366:	f420 4000 	bic.w	r0, r0, #32768	; 0x8000
 800836a:	4329      	orrs	r1, r5
 800836c:	60d8      	str	r0, [r3, #12]
 800836e:	60da      	str	r2, [r3, #12]
 8008370:	6019      	str	r1, [r3, #0]
 8008372:	6819      	ldr	r1, [r3, #0]
 8008374:	2200      	movs	r2, #0
 8008376:	f041 0101 	orr.w	r1, r1, #1
 800837a:	2020      	movs	r0, #32
 800837c:	6019      	str	r1, [r3, #0]
 800837e:	f8c4 220c 	str.w	r2, [r4, #524]	; 0x20c
 8008382:	f884 0209 	strb.w	r0, [r4, #521]	; 0x209
 8008386:	f8c4 21f8 	str.w	r2, [r4, #504]	; 0x1f8
 800838a:	f884 220a 	strb.w	r2, [r4, #522]	; 0x20a
 800838e:	f894 1209 	ldrb.w	r1, [r4, #521]	; 0x209
 8008392:	4281      	cmp	r1, r0
 8008394:	b2cd      	uxtb	r5, r1
 8008396:	f040 80c5 	bne.w	8008524 <main+0x620>
 800839a:	f894 1208 	ldrb.w	r1, [r4, #520]	; 0x208
 800839e:	2901      	cmp	r1, #1
 80083a0:	f000 80c0 	beq.w	8008524 <main+0x620>
 80083a4:	2024      	movs	r0, #36	; 0x24
 80083a6:	f884 0209 	strb.w	r0, [r4, #521]	; 0x209
 80083aa:	6819      	ldr	r1, [r3, #0]
 80083ac:	f021 0101 	bic.w	r1, r1, #1
 80083b0:	6019      	str	r1, [r3, #0]
 80083b2:	6819      	ldr	r1, [r3, #0]
 80083b4:	f421 5180 	bic.w	r1, r1, #4096	; 0x1000
 80083b8:	6019      	str	r1, [r3, #0]
 80083ba:	6819      	ldr	r1, [r3, #0]
 80083bc:	6019      	str	r1, [r3, #0]
 80083be:	6819      	ldr	r1, [r3, #0]
 80083c0:	f041 0101 	orr.w	r1, r1, #1
 80083c4:	6019      	str	r1, [r3, #0]
 80083c6:	f884 5209 	strb.w	r5, [r4, #521]	; 0x209
 80083ca:	f894 1209 	ldrb.w	r1, [r4, #521]	; 0x209
 80083ce:	f884 2208 	strb.w	r2, [r4, #520]	; 0x208
 80083d2:	2920      	cmp	r1, #32
 80083d4:	b2ce      	uxtb	r6, r1
 80083d6:	f040 80a5 	bne.w	8008524 <main+0x620>
 80083da:	f884 0209 	strb.w	r0, [r4, #521]	; 0x209
 80083de:	6819      	ldr	r1, [r3, #0]
 80083e0:	48a1      	ldr	r0, [pc, #644]	; (8008668 <main+0x764>)
 80083e2:	4da2      	ldr	r5, [pc, #648]	; (800866c <main+0x768>)
 80083e4:	f021 0101 	bic.w	r1, r1, #1
 80083e8:	6019      	str	r1, [r3, #0]
 80083ea:	6819      	ldr	r1, [r3, #0]
 80083ec:	f421 6170 	bic.w	r1, r1, #3840	; 0xf00
 80083f0:	6019      	str	r1, [r3, #0]
 80083f2:	6819      	ldr	r1, [r3, #0]
 80083f4:	f041 0101 	orr.w	r1, r1, #1
 80083f8:	6019      	str	r1, [r3, #0]
 80083fa:	f44f 2161 	mov.w	r1, #921600	; 0xe1000
 80083fe:	230c      	movs	r3, #12
 8008400:	e9c0 5100 	strd	r5, r1, [r0]
 8008404:	e9c0 2202 	strd	r2, r2, [r0, #8]
 8008408:	e9c0 2206 	strd	r2, r2, [r0, #24]
 800840c:	e9c0 2208 	strd	r2, r2, [r0, #32]
 8008410:	f884 6209 	strb.w	r6, [r4, #521]	; 0x209
 8008414:	f884 2208 	strb.w	r2, [r4, #520]	; 0x208
 8008418:	6102      	str	r2, [r0, #16]
 800841a:	6143      	str	r3, [r0, #20]
 800841c:	f7fa f98e 	bl	800273c <HAL_UART_Init.constprop.0>
 8008420:	4605      	mov	r5, r0
 8008422:	2800      	cmp	r0, #0
 8008424:	d17e      	bne.n	8008524 <main+0x620>
 8008426:	222c      	movs	r2, #44	; 0x2c
 8008428:	4629      	mov	r1, r5
 800842a:	a817      	add	r0, sp, #92	; 0x5c
 800842c:	f001 fca9 	bl	8009d82 <memset>
 8008430:	f894 3025 	ldrb.w	r3, [r4, #37]	; 0x25
 8008434:	4e8e      	ldr	r6, [pc, #568]	; (8008670 <main+0x76c>)
 8008436:	60a5      	str	r5, [r4, #8]
 8008438:	201f      	movs	r0, #31
 800843a:	f240 32e7 	movw	r2, #999	; 0x3e7
 800843e:	e9c4 5505 	strd	r5, r5, [r4, #20]
 8008442:	e9c4 5507 	strd	r5, r5, [r4, #28]
 8008446:	e9c4 0203 	strd	r0, r2, [r4, #12]
 800844a:	f003 01ff 	and.w	r1, r3, #255	; 0xff
 800844e:	6066      	str	r6, [r4, #4]
 8008450:	2b00      	cmp	r3, #0
 8008452:	f000 8117 	beq.w	8008684 <main+0x780>
 8008456:	6863      	ldr	r3, [r4, #4]
 8008458:	f04f 0802 	mov.w	r8, #2
 800845c:	27ca      	movs	r7, #202	; 0xca
 800845e:	2653      	movs	r6, #83	; 0x53
 8008460:	f884 8025 	strb.w	r8, [r4, #37]	; 0x25
 8008464:	625f      	str	r7, [r3, #36]	; 0x24
 8008466:	625e      	str	r6, [r3, #36]	; 0x24
 8008468:	f7f8 f8ba 	bl	80005e0 <RTC_EnterInitMode.constprop.0>
 800846c:	2800      	cmp	r0, #0
 800846e:	d159      	bne.n	8008524 <main+0x620>
 8008470:	e9d4 1301 	ldrd	r1, r3, [r4, #4]
 8008474:	688a      	ldr	r2, [r1, #8]
 8008476:	6965      	ldr	r5, [r4, #20]
 8008478:	69e0      	ldr	r0, [r4, #28]
 800847a:	f422 02e0 	bic.w	r2, r2, #7340032	; 0x700000
 800847e:	f022 0240 	bic.w	r2, r2, #64	; 0x40
 8008482:	608a      	str	r2, [r1, #8]
 8008484:	688a      	ldr	r2, [r1, #8]
 8008486:	432b      	orrs	r3, r5
 8008488:	4303      	orrs	r3, r0
 800848a:	4313      	orrs	r3, r2
 800848c:	6922      	ldr	r2, [r4, #16]
 800848e:	608b      	str	r3, [r1, #8]
 8008490:	610a      	str	r2, [r1, #16]
 8008492:	690b      	ldr	r3, [r1, #16]
 8008494:	68e2      	ldr	r2, [r4, #12]
 8008496:	ea43 4302 	orr.w	r3, r3, r2, lsl #16
 800849a:	610b      	str	r3, [r1, #16]
 800849c:	f7f8 f878 	bl	8000590 <RTC_ExitInitMode.constprop.0>
 80084a0:	2800      	cmp	r0, #0
 80084a2:	d13f      	bne.n	8008524 <main+0x620>
 80084a4:	6860      	ldr	r0, [r4, #4]
 80084a6:	6a23      	ldr	r3, [r4, #32]
 80084a8:	6cc2      	ldr	r2, [r0, #76]	; 0x4c
 80084aa:	69a1      	ldr	r1, [r4, #24]
 80084ac:	f894 c024 	ldrb.w	ip, [r4, #36]	; 0x24
 80084b0:	f022 0203 	bic.w	r2, r2, #3
 80084b4:	64c2      	str	r2, [r0, #76]	; 0x4c
 80084b6:	6cc2      	ldr	r2, [r0, #76]	; 0x4c
 80084b8:	2501      	movs	r5, #1
 80084ba:	430b      	orrs	r3, r1
 80084bc:	4313      	orrs	r3, r2
 80084be:	f04f 09ff 	mov.w	r9, #255	; 0xff
 80084c2:	45ac      	cmp	ip, r5
 80084c4:	64c3      	str	r3, [r0, #76]	; 0x4c
 80084c6:	f8c0 9024 	str.w	r9, [r0, #36]	; 0x24
 80084ca:	f884 5025 	strb.w	r5, [r4, #37]	; 0x25
 80084ce:	d029      	beq.n	8008524 <main+0x620>
 80084d0:	f884 8025 	strb.w	r8, [r4, #37]	; 0x25
 80084d4:	6247      	str	r7, [r0, #36]	; 0x24
 80084d6:	6246      	str	r6, [r0, #36]	; 0x24
 80084d8:	f884 5024 	strb.w	r5, [r4, #36]	; 0x24
 80084dc:	f7f8 f880 	bl	80005e0 <RTC_EnterInitMode.constprop.0>
 80084e0:	6863      	ldr	r3, [r4, #4]
 80084e2:	b9d0      	cbnz	r0, 800851a <main+0x616>
 80084e4:	689a      	ldr	r2, [r3, #8]
 80084e6:	6018      	str	r0, [r3, #0]
 80084e8:	689a      	ldr	r2, [r3, #8]
 80084ea:	f422 2280 	bic.w	r2, r2, #262144	; 0x40000
 80084ee:	609a      	str	r2, [r3, #8]
 80084f0:	689a      	ldr	r2, [r3, #8]
 80084f2:	609a      	str	r2, [r3, #8]
 80084f4:	f7f8 f84c 	bl	8000590 <RTC_ExitInitMode.constprop.0>
 80084f8:	6863      	ldr	r3, [r4, #4]
 80084fa:	f8c3 9024 	str.w	r9, [r3, #36]	; 0x24
 80084fe:	b970      	cbnz	r0, 800851e <main+0x61a>
 8008500:	f884 5025 	strb.w	r5, [r4, #37]	; 0x25
 8008504:	f884 8025 	strb.w	r8, [r4, #37]	; 0x25
 8008508:	625f      	str	r7, [r3, #36]	; 0x24
 800850a:	625e      	str	r6, [r3, #36]	; 0x24
 800850c:	f884 5024 	strb.w	r5, [r4, #36]	; 0x24
 8008510:	f7f8 f866 	bl	80005e0 <RTC_EnterInitMode.constprop.0>
 8008514:	6863      	ldr	r3, [r4, #4]
 8008516:	2800      	cmp	r0, #0
 8008518:	d06b      	beq.n	80085f2 <main+0x6ee>
 800851a:	f8c3 9024 	str.w	r9, [r3, #36]	; 0x24
 800851e:	2300      	movs	r3, #0
 8008520:	f884 3024 	strb.w	r3, [r4, #36]	; 0x24
 8008524:	f7fa f854 	bl	80025d0 <__NVIC_SystemReset>
 8008528:	4b52      	ldr	r3, [pc, #328]	; (8008674 <main+0x770>)
 800852a:	6e1a      	ldr	r2, [r3, #96]	; 0x60
 800852c:	f042 0201 	orr.w	r2, r2, #1
 8008530:	661a      	str	r2, [r3, #96]	; 0x60
 8008532:	6e1a      	ldr	r2, [r3, #96]	; 0x60
 8008534:	f002 0201 	and.w	r2, r2, #1
 8008538:	9208      	str	r2, [sp, #32]
 800853a:	9a08      	ldr	r2, [sp, #32]
 800853c:	6d9a      	ldr	r2, [r3, #88]	; 0x58
 800853e:	f042 5280 	orr.w	r2, r2, #268435456	; 0x10000000
 8008542:	659a      	str	r2, [r3, #88]	; 0x58
 8008544:	6d9b      	ldr	r3, [r3, #88]	; 0x58
 8008546:	f003 5380 	and.w	r3, r3, #268435456	; 0x10000000
 800854a:	9307      	str	r3, [sp, #28]
 800854c:	9b07      	ldr	r3, [sp, #28]
 800854e:	e4ea      	b.n	8007f26 <main+0x22>
 8008550:	f003 0303 	and.w	r3, r3, #3
 8008554:	2b02      	cmp	r3, #2
 8008556:	f47f ad17 	bne.w	8007f88 <main+0x84>
 800855a:	4a46      	ldr	r2, [pc, #280]	; (8008674 <main+0x770>)
 800855c:	4c46      	ldr	r4, [pc, #280]	; (8008678 <main+0x774>)
 800855e:	6813      	ldr	r3, [r2, #0]
 8008560:	6853      	ldr	r3, [r2, #4]
 8008562:	f023 53f8 	bic.w	r3, r3, #520093696	; 0x1f000000
 8008566:	f043 5380 	orr.w	r3, r3, #268435456	; 0x10000000
 800856a:	6053      	str	r3, [r2, #4]
 800856c:	4b41      	ldr	r3, [pc, #260]	; (8008674 <main+0x770>)
 800856e:	f8d3 2094 	ldr.w	r2, [r3, #148]	; 0x94
 8008572:	f042 0201 	orr.w	r2, r2, #1
 8008576:	f8c3 2094 	str.w	r2, [r3, #148]	; 0x94
 800857a:	6820      	ldr	r0, [r4, #0]
 800857c:	e003      	b.n	8008586 <main+0x682>
 800857e:	6822      	ldr	r2, [r4, #0]
 8008580:	1a12      	subs	r2, r2, r0
 8008582:	2a02      	cmp	r2, #2
 8008584:	d8ce      	bhi.n	8008524 <main+0x620>
 8008586:	f8d3 2094 	ldr.w	r2, [r3, #148]	; 0x94
 800858a:	0795      	lsls	r5, r2, #30
 800858c:	d5f7      	bpl.n	800857e <main+0x67a>
 800858e:	68da      	ldr	r2, [r3, #12]
 8008590:	f002 0003 	and.w	r0, r2, #3
 8008594:	2802      	cmp	r0, #2
 8008596:	f43f ad0e 	beq.w	8007fb6 <main+0xb2>
 800859a:	290c      	cmp	r1, #12
 800859c:	d0c2      	beq.n	8008524 <main+0x620>
 800859e:	4b35      	ldr	r3, [pc, #212]	; (8008674 <main+0x770>)
 80085a0:	681a      	ldr	r2, [r3, #0]
 80085a2:	0152      	lsls	r2, r2, #5
 80085a4:	d4be      	bmi.n	8008524 <main+0x620>
 80085a6:	681a      	ldr	r2, [r3, #0]
 80085a8:	f022 7280 	bic.w	r2, r2, #16777216	; 0x1000000
 80085ac:	601a      	str	r2, [r3, #0]
 80085ae:	6821      	ldr	r1, [r4, #0]
 80085b0:	e003      	b.n	80085ba <main+0x6b6>
 80085b2:	6822      	ldr	r2, [r4, #0]
 80085b4:	1a52      	subs	r2, r2, r1
 80085b6:	2a02      	cmp	r2, #2
 80085b8:	d8b4      	bhi.n	8008524 <main+0x620>
 80085ba:	681a      	ldr	r2, [r3, #0]
 80085bc:	0197      	lsls	r7, r2, #6
 80085be:	d4f8      	bmi.n	80085b2 <main+0x6ae>
 80085c0:	68d8      	ldr	r0, [r3, #12]
 80085c2:	492e      	ldr	r1, [pc, #184]	; (800867c <main+0x778>)
 80085c4:	4a2e      	ldr	r2, [pc, #184]	; (8008680 <main+0x77c>)
 80085c6:	4d2b      	ldr	r5, [pc, #172]	; (8008674 <main+0x770>)
 80085c8:	4001      	ands	r1, r0
 80085ca:	430a      	orrs	r2, r1
 80085cc:	60da      	str	r2, [r3, #12]
 80085ce:	681a      	ldr	r2, [r3, #0]
 80085d0:	f042 7280 	orr.w	r2, r2, #16777216	; 0x1000000
 80085d4:	601a      	str	r2, [r3, #0]
 80085d6:	68da      	ldr	r2, [r3, #12]
 80085d8:	f042 7280 	orr.w	r2, r2, #16777216	; 0x1000000
 80085dc:	60da      	str	r2, [r3, #12]
 80085de:	6822      	ldr	r2, [r4, #0]
 80085e0:	682b      	ldr	r3, [r5, #0]
 80085e2:	019e      	lsls	r6, r3, #6
 80085e4:	f53f acfb 	bmi.w	8007fde <main+0xda>
 80085e8:	6823      	ldr	r3, [r4, #0]
 80085ea:	1a9b      	subs	r3, r3, r2
 80085ec:	2b02      	cmp	r3, #2
 80085ee:	d9f7      	bls.n	80085e0 <main+0x6dc>
 80085f0:	e798      	b.n	8008524 <main+0x620>
 80085f2:	f242 1201 	movw	r2, #8449	; 0x2101
 80085f6:	605a      	str	r2, [r3, #4]
 80085f8:	f7f7 ffca 	bl	8000590 <RTC_ExitInitMode.constprop.0>
 80085fc:	6862      	ldr	r2, [r4, #4]
 80085fe:	4603      	mov	r3, r0
 8008600:	f8c2 9024 	str.w	r9, [r2, #36]	; 0x24
 8008604:	2800      	cmp	r0, #0
 8008606:	d18a      	bne.n	800851e <main+0x61a>
 8008608:	f44f 7280 	mov.w	r2, #256	; 0x100
 800860c:	a817      	add	r0, sp, #92	; 0x5c
 800860e:	e9cd 331a 	strd	r3, r3, [sp, #104]	; 0x68
 8008612:	e9cd 331e 	strd	r3, r3, [sp, #120]	; 0x78
 8008616:	f884 5025 	strb.w	r5, [r4, #37]	; 0x25
 800861a:	f884 3024 	strb.w	r3, [r4, #36]	; 0x24
 800861e:	f8ad 305c 	strh.w	r3, [sp, #92]	; 0x5c
 8008622:	f88d 305e 	strb.w	r3, [sp, #94]	; 0x5e
 8008626:	9318      	str	r3, [sp, #96]	; 0x60
 8008628:	931c      	str	r3, [sp, #112]	; 0x70
 800862a:	f88d 5080 	strb.w	r5, [sp, #128]	; 0x80
 800862e:	9221      	str	r2, [sp, #132]	; 0x84
 8008630:	f7f7 fec6 	bl	80003c0 <HAL_RTC_SetAlarm_IT.constprop.0>
 8008634:	2800      	cmp	r0, #0
 8008636:	f47f af75 	bne.w	8008524 <main+0x620>
 800863a:	f7fd fc11 	bl	8005e60 <acconeer_main.constprop.0>
 800863e:	e7fe      	b.n	800863e <main+0x73a>
 8008640:	681a      	ldr	r2, [r3, #0]
 8008642:	490c      	ldr	r1, [pc, #48]	; (8008674 <main+0x770>)
 8008644:	f042 7280 	orr.w	r2, r2, #16777216	; 0x1000000
 8008648:	601a      	str	r2, [r3, #0]
 800864a:	68da      	ldr	r2, [r3, #12]
 800864c:	f042 7280 	orr.w	r2, r2, #16777216	; 0x1000000
 8008650:	60da      	str	r2, [r3, #12]
 8008652:	6822      	ldr	r2, [r4, #0]
 8008654:	680b      	ldr	r3, [r1, #0]
 8008656:	0198      	lsls	r0, r3, #6
 8008658:	f53f acc1 	bmi.w	8007fde <main+0xda>
 800865c:	6823      	ldr	r3, [r4, #0]
 800865e:	1a9b      	subs	r3, r3, r2
 8008660:	2b02      	cmp	r3, #2
 8008662:	d9f7      	bls.n	8008654 <main+0x750>
 8008664:	e75e      	b.n	8008524 <main+0x620>
 8008666:	bf00      	nop
 8008668:	20000364 	.word	0x20000364
 800866c:	40013800 	.word	0x40013800
 8008670:	40002800 	.word	0x40002800
 8008674:	40021000 	.word	0x40021000
 8008678:	200000ac 	.word	0x200000ac
 800867c:	019d808c 	.word	0x019d808c
 8008680:	38000a02 	.word	0x38000a02
 8008684:	2254      	movs	r2, #84	; 0x54
 8008686:	a83a      	add	r0, sp, #232	; 0xe8
 8008688:	f884 1024 	strb.w	r1, [r4, #36]	; 0x24
 800868c:	f001 fb79 	bl	8009d82 <memset>
 8008690:	f44f 3200 	mov.w	r2, #131072	; 0x20000
 8008694:	f44f 7300 	mov.w	r3, #512	; 0x200
 8008698:	a839      	add	r0, sp, #228	; 0xe4
 800869a:	9239      	str	r2, [sp, #228]	; 0xe4
 800869c:	934f      	str	r3, [sp, #316]	; 0x13c
 800869e:	f7f9 fbcb 	bl	8001e38 <HAL_RCCEx_PeriphCLKConfig>
 80086a2:	4601      	mov	r1, r0
 80086a4:	2800      	cmp	r0, #0
 80086a6:	f47f af3d 	bne.w	8008524 <main+0x620>
 80086aa:	4a83      	ldr	r2, [pc, #524]	; (80088b8 <main+0x9b4>)
 80086ac:	f8d2 3090 	ldr.w	r3, [r2, #144]	; 0x90
 80086b0:	f443 4300 	orr.w	r3, r3, #32768	; 0x8000
 80086b4:	f8c2 3090 	str.w	r3, [r2, #144]	; 0x90
 80086b8:	9001      	str	r0, [sp, #4]
 80086ba:	2003      	movs	r0, #3
 80086bc:	f7f7 fdaa 	bl	8000214 <HAL_NVIC_SetPriority.constprop.0>
 80086c0:	2003      	movs	r0, #3
 80086c2:	f7f9 ff4f 	bl	8002564 <HAL_NVIC_EnableIRQ.part.0>
 80086c6:	9901      	ldr	r1, [sp, #4]
 80086c8:	2029      	movs	r0, #41	; 0x29
 80086ca:	f7f7 fda3 	bl	8000214 <HAL_NVIC_SetPriority.constprop.0>
 80086ce:	2029      	movs	r0, #41	; 0x29
 80086d0:	f7f9 ff48 	bl	8002564 <HAL_NVIC_EnableIRQ.part.0>
 80086d4:	e6bf      	b.n	8008456 <main+0x552>
 80086d6:	4629      	mov	r1, r5
 80086d8:	2258      	movs	r2, #88	; 0x58
 80086da:	a823      	add	r0, sp, #140	; 0x8c
 80086dc:	e9cd 5512 	strd	r5, r5, [sp, #72]	; 0x48
 80086e0:	e9cd 5514 	strd	r5, r5, [sp, #80]	; 0x50
 80086e4:	f884 5208 	strb.w	r5, [r4, #520]	; 0x208
 80086e8:	9516      	str	r5, [sp, #88]	; 0x58
 80086ea:	f001 fb4a 	bl	8009d82 <memset>
 80086ee:	2380      	movs	r3, #128	; 0x80
 80086f0:	a822      	add	r0, sp, #136	; 0x88
 80086f2:	952f      	str	r5, [sp, #188]	; 0xbc
 80086f4:	9322      	str	r3, [sp, #136]	; 0x88
 80086f6:	f7f9 fb9f 	bl	8001e38 <HAL_RCCEx_PeriphCLKConfig>
 80086fa:	4605      	mov	r5, r0
 80086fc:	2800      	cmp	r0, #0
 80086fe:	f47f af11 	bne.w	8008524 <main+0x620>
 8008702:	4f6d      	ldr	r7, [pc, #436]	; (80088b8 <main+0x9b4>)
 8008704:	486d      	ldr	r0, [pc, #436]	; (80088bc <main+0x9b8>)
 8008706:	6cfb      	ldr	r3, [r7, #76]	; 0x4c
 8008708:	f043 0302 	orr.w	r3, r3, #2
 800870c:	64fb      	str	r3, [r7, #76]	; 0x4c
 800870e:	6cfb      	ldr	r3, [r7, #76]	; 0x4c
 8008710:	9614      	str	r6, [sp, #80]	; 0x50
 8008712:	f003 0302 	and.w	r3, r3, #2
 8008716:	930c      	str	r3, [sp, #48]	; 0x30
 8008718:	f44f 6340 	mov.w	r3, #3072	; 0xc00
 800871c:	9312      	str	r3, [sp, #72]	; 0x48
 800871e:	2312      	movs	r3, #18
 8008720:	9a0c      	ldr	r2, [sp, #48]	; 0x30
 8008722:	9313      	str	r3, [sp, #76]	; 0x4c
 8008724:	2203      	movs	r2, #3
 8008726:	a912      	add	r1, sp, #72	; 0x48
 8008728:	2304      	movs	r3, #4
 800872a:	e9cd 2315 	strd	r2, r3, [sp, #84]	; 0x54
 800872e:	f7f9 fd99 	bl	8002264 <HAL_GPIO_Init>
 8008732:	6dbb      	ldr	r3, [r7, #88]	; 0x58
 8008734:	f443 0380 	orr.w	r3, r3, #4194304	; 0x400000
 8008738:	65bb      	str	r3, [r7, #88]	; 0x58
 800873a:	6dbb      	ldr	r3, [r7, #88]	; 0x58
 800873c:	f403 0380 	and.w	r3, r3, #4194304	; 0x400000
 8008740:	930b      	str	r3, [sp, #44]	; 0x2c
 8008742:	4629      	mov	r1, r5
 8008744:	2021      	movs	r0, #33	; 0x21
 8008746:	9b0b      	ldr	r3, [sp, #44]	; 0x2c
 8008748:	f7f7 fd64 	bl	8000214 <HAL_NVIC_SetPriority.constprop.0>
 800874c:	2021      	movs	r0, #33	; 0x21
 800874e:	f7f9 ff09 	bl	8002564 <HAL_NVIC_EnableIRQ.part.0>
 8008752:	e5d5      	b.n	8008300 <main+0x3fc>
 8008754:	f884 b134 	strb.w	fp, [r4, #308]	; 0x134
 8008758:	6e2b      	ldr	r3, [r5, #96]	; 0x60
 800875a:	4e59      	ldr	r6, [pc, #356]	; (80088c0 <main+0x9bc>)
 800875c:	f443 5380 	orr.w	r3, r3, #4096	; 0x1000
 8008760:	662b      	str	r3, [r5, #96]	; 0x60
 8008762:	6e2b      	ldr	r3, [r5, #96]	; 0x60
 8008764:	f403 5380 	and.w	r3, r3, #4096	; 0x1000
 8008768:	930a      	str	r3, [sp, #40]	; 0x28
 800876a:	9b0a      	ldr	r3, [sp, #40]	; 0x28
 800876c:	6ceb      	ldr	r3, [r5, #76]	; 0x4c
 800876e:	f043 0301 	orr.w	r3, r3, #1
 8008772:	64eb      	str	r3, [r5, #76]	; 0x4c
 8008774:	6ceb      	ldr	r3, [r5, #76]	; 0x4c
 8008776:	970e      	str	r7, [sp, #56]	; 0x38
 8008778:	f003 0301 	and.w	r3, r3, #1
 800877c:	9309      	str	r3, [sp, #36]	; 0x24
 800877e:	2203      	movs	r2, #3
 8008780:	9b09      	ldr	r3, [sp, #36]	; 0x24
 8008782:	9210      	str	r2, [sp, #64]	; 0x40
 8008784:	2305      	movs	r3, #5
 8008786:	4650      	mov	r0, sl
 8008788:	25e0      	movs	r5, #224	; 0xe0
 800878a:	a90d      	add	r1, sp, #52	; 0x34
 800878c:	950d      	str	r5, [sp, #52]	; 0x34
 800878e:	9311      	str	r3, [sp, #68]	; 0x44
 8008790:	f8cd b03c 	str.w	fp, [sp, #60]	; 0x3c
 8008794:	2580      	movs	r5, #128	; 0x80
 8008796:	f7f9 fd65 	bl	8002264 <HAL_GPIO_Init>
 800879a:	494a      	ldr	r1, [pc, #296]	; (80088c4 <main+0x9c0>)
 800879c:	f8c4 1264 	str.w	r1, [r4, #612]	; 0x264
 80087a0:	f44f 7280 	mov.w	r2, #256	; 0x100
 80087a4:	f44f 6380 	mov.w	r3, #1024	; 0x400
 80087a8:	4630      	mov	r0, r6
 80087aa:	e9c4 bb9b 	strd	fp, fp, [r4, #620]	; 0x26c
 80087ae:	e9c4 bba0 	strd	fp, fp, [r4, #640]	; 0x280
 80087b2:	e9c4 529d 	strd	r5, r2, [r4, #628]	; 0x274
 80087b6:	f8c4 9268 	str.w	r9, [r4, #616]	; 0x268
 80087ba:	f8c4 327c 	str.w	r3, [r4, #636]	; 0x27c
 80087be:	f7f7 fdad 	bl	800031c <HAL_DMA_Init.constprop.0>
 80087c2:	4601      	mov	r1, r0
 80087c4:	2800      	cmp	r0, #0
 80087c6:	f47f aead 	bne.w	8008524 <main+0x620>
 80087ca:	f1a6 0a48 	sub.w	sl, r6, #72	; 0x48
 80087ce:	f8df c0f8 	ldr.w	ip, [pc, #248]	; 80088c8 <main+0x9c4>
 80087d2:	f8c4 6130 	str.w	r6, [r4, #304]	; 0x130
 80087d6:	f44f 7280 	mov.w	r2, #256	; 0x100
 80087da:	f5a6 76c6 	sub.w	r6, r6, #396	; 0x18c
 80087de:	f44f 6380 	mov.w	r3, #1024	; 0x400
 80087e2:	4650      	mov	r0, sl
 80087e4:	e9c4 158a 	strd	r1, r5, [r4, #552]	; 0x228
 80087e8:	e9c4 238c 	strd	r2, r3, [r4, #560]	; 0x230
 80087ec:	e9c4 118e 	strd	r1, r1, [r4, #568]	; 0x238
 80087f0:	f8c4 9220 	str.w	r9, [r4, #544]	; 0x220
 80087f4:	f8c4 8224 	str.w	r8, [r4, #548]	; 0x224
 80087f8:	f8c4 628c 	str.w	r6, [r4, #652]	; 0x28c
 80087fc:	f8c4 c21c 	str.w	ip, [r4, #540]	; 0x21c
 8008800:	f7f7 fd8c 	bl	800031c <HAL_DMA_Init.constprop.0>
 8008804:	2800      	cmp	r0, #0
 8008806:	f47f ae8d 	bne.w	8008524 <main+0x620>
 800880a:	e9d4 3137 	ldrd	r3, r1, [r4, #220]	; 0xdc
 800880e:	f8d4 20e8 	ldr.w	r2, [r4, #232]	; 0xe8
 8008812:	f8d4 c0f0 	ldr.w	ip, [r4, #240]	; 0xf0
 8008816:	f8c4 6244 	str.w	r6, [r4, #580]	; 0x244
 800881a:	f401 4504 	and.w	r5, r1, #33792	; 0x8400
 800881e:	f403 7382 	and.w	r3, r3, #260	; 0x104
 8008822:	f8d4 10ec 	ldr.w	r1, [r4, #236]	; 0xec
 8008826:	f8d4 610c 	ldr.w	r6, [r4, #268]	; 0x10c
 800882a:	f884 7135 	strb.w	r7, [r4, #309]	; 0x135
 800882e:	432b      	orrs	r3, r5
 8008830:	f002 0202 	and.w	r2, r2, #2
 8008834:	4313      	orrs	r3, r2
 8008836:	f001 0101 	and.w	r1, r1, #1
 800883a:	430b      	orrs	r3, r1
 800883c:	f40c 7100 	and.w	r1, ip, #512	; 0x200
 8008840:	ea43 0e01 	orr.w	lr, r3, r1
 8008844:	f8d4 30f4 	ldr.w	r3, [r4, #244]	; 0xf4
 8008848:	f8d4 50fc 	ldr.w	r5, [r4, #252]	; 0xfc
 800884c:	f8d4 70d8 	ldr.w	r7, [r4, #216]	; 0xd8
 8008850:	f8c4 a12c 	str.w	sl, [r4, #300]	; 0x12c
 8008854:	ea4f 411c 	mov.w	r1, ip, lsr #16
 8008858:	f003 0c38 	and.w	ip, r3, #56	; 0x38
 800885c:	f8d4 30f8 	ldr.w	r3, [r4, #248]	; 0xf8
 8008860:	f005 0210 	and.w	r2, r5, #16
 8008864:	f006 0608 	and.w	r6, r6, #8
 8008868:	f8d4 50e4 	ldr.w	r5, [r4, #228]	; 0xe4
 800886c:	4332      	orrs	r2, r6
 800886e:	ea4e 0e0c 	orr.w	lr, lr, ip
 8008872:	683e      	ldr	r6, [r7, #0]
 8008874:	f003 0c80 	and.w	ip, r3, #128	; 0x80
 8008878:	ea4e 030c 	orr.w	r3, lr, ip
 800887c:	f405 6c70 	and.w	ip, r5, #3840	; 0xf00
 8008880:	f001 0104 	and.w	r1, r1, #4
 8008884:	f026 0640 	bic.w	r6, r6, #64	; 0x40
 8008888:	ea42 020c 	orr.w	r2, r2, ip
 800888c:	f5b5 6fe0 	cmp.w	r5, #1792	; 0x700
 8008890:	ea42 0201 	orr.w	r2, r2, r1
 8008894:	603e      	str	r6, [r7, #0]
 8008896:	d80b      	bhi.n	80088b0 <main+0x9ac>
 8008898:	f44f 5080 	mov.w	r0, #4096	; 0x1000
 800889c:	f43f acf4 	beq.w	8008288 <main+0x384>
 80088a0:	2100      	movs	r1, #0
 80088a2:	f8c4 1100 	str.w	r1, [r4, #256]	; 0x100
 80088a6:	e4ef      	b.n	8008288 <main+0x384>
 80088a8:	f442 4200 	orr.w	r2, r2, #32768	; 0x8000
 80088ac:	609a      	str	r2, [r3, #8]
 80088ae:	e548      	b.n	8008342 <main+0x43e>
 80088b0:	f5b5 6f70 	cmp.w	r5, #3840	; 0xf00
 80088b4:	d1f4      	bne.n	80088a0 <main+0x99c>
 80088b6:	e4e7      	b.n	8008288 <main+0x384>
 80088b8:	40021000 	.word	0x40021000
 80088bc:	48000400 	.word	0x48000400
 80088c0:	20000310 	.word	0x20000310
 80088c4:	4002001c 	.word	0x4002001c
 80088c8:	40020030 	.word	0x40020030

080088cc <_fstat>:

int _fstat(int file, struct stat *st)
{
	(void)file;

	st->st_mode = S_IFCHR;
 80088cc:	f44f 5300 	mov.w	r3, #8192	; 0x2000
 80088d0:	604b      	str	r3, [r1, #4]
	return 0;
}
 80088d2:	2000      	movs	r0, #0
 80088d4:	4770      	bx	lr
 80088d6:	bf00      	nop

080088d8 <_close>:
int _close(int file)
{
	(void)file;

	return -1;
}
 80088d8:	f04f 30ff 	mov.w	r0, #4294967295	; 0xffffffff
 80088dc:	4770      	bx	lr
 80088de:	bf00      	nop

080088e0 <_getpid>:


int _getpid(void)
{
	return 1;
}
 80088e0:	2001      	movs	r0, #1
 80088e2:	4770      	bx	lr

080088e4 <_isatty>:
int _isatty(int file)
{
	(void)file;

	return 1;
}
 80088e4:	2001      	movs	r0, #1
 80088e6:	4770      	bx	lr

080088e8 <_lseek>:
	(void)file;
	(void)ptr;
	(void)dir;

	return 0;
}
 80088e8:	2000      	movs	r0, #0
 80088ea:	4770      	bx	lr

080088ec <_kill>:


int _kill(int pid, int sig)
{
 80088ec:	b508      	push	{r3, lr}
	(void)pid;
	(void)sig;

	errno = EINVAL;
 80088ee:	f001 f83f 	bl	8009970 <__errno>
 80088f2:	2316      	movs	r3, #22
 80088f4:	6003      	str	r3, [r0, #0]
	return -1;
}
 80088f6:	f04f 30ff 	mov.w	r0, #4294967295	; 0xffffffff
 80088fa:	bd08      	pop	{r3, pc}

080088fc <_read>:
	(void)file;
	(void)ptr;
	(void)len;

	return -1;
}
 80088fc:	f04f 30ff 	mov.w	r0, #4294967295	; 0xffffffff
 8008900:	4770      	bx	lr
 8008902:	bf00      	nop

08008904 <_write>:


int _write(int file, char *ptr, int len)
{
 8008904:	b510      	push	{r4, lr}
	(void)file;
	HAL_UART_Transmit(&DEBUG_UART_HANDLE, (uint8_t *)ptr, len, 0xFFFF);
 8008906:	f64f 73ff 	movw	r3, #65535	; 0xffff
{
 800890a:	4614      	mov	r4, r2
	HAL_UART_Transmit(&DEBUG_UART_HANDLE, (uint8_t *)ptr, len, 0xFFFF);
 800890c:	4802      	ldr	r0, [pc, #8]	; (8008918 <_write+0x14>)
 800890e:	b292      	uxth	r2, r2
 8008910:	f7fe fb1a 	bl	8006f48 <HAL_UART_Transmit>
	return len;
}
 8008914:	4620      	mov	r0, r4
 8008916:	bd10      	pop	{r4, pc}
 8008918:	20000364 	.word	0x20000364

0800891c <Reset_Handler>:
 800891c:	f8df d034 	ldr.w	sp, [pc, #52]	; 8008954 <LoopForever+0x2>
 8008920:	f7fe fb74 	bl	800700c <SystemInit>
 8008924:	480c      	ldr	r0, [pc, #48]	; (8008958 <LoopForever+0x6>)
 8008926:	490d      	ldr	r1, [pc, #52]	; (800895c <LoopForever+0xa>)
 8008928:	4a0d      	ldr	r2, [pc, #52]	; (8008960 <LoopForever+0xe>)
 800892a:	2300      	movs	r3, #0
 800892c:	e002      	b.n	8008934 <LoopCopyDataInit>

0800892e <CopyDataInit>:
 800892e:	58d4      	ldr	r4, [r2, r3]
 8008930:	50c4      	str	r4, [r0, r3]
 8008932:	3304      	adds	r3, #4

08008934 <LoopCopyDataInit>:
 8008934:	18c4      	adds	r4, r0, r3
 8008936:	428c      	cmp	r4, r1
 8008938:	d3f9      	bcc.n	800892e <CopyDataInit>
 800893a:	4a0a      	ldr	r2, [pc, #40]	; (8008964 <LoopForever+0x12>)
 800893c:	4c0a      	ldr	r4, [pc, #40]	; (8008968 <LoopForever+0x16>)
 800893e:	2300      	movs	r3, #0
 8008940:	e001      	b.n	8008946 <LoopFillZerobss>

08008942 <FillZerobss>:
 8008942:	6013      	str	r3, [r2, #0]
 8008944:	3204      	adds	r2, #4

08008946 <LoopFillZerobss>:
 8008946:	42a2      	cmp	r2, r4
 8008948:	d3fb      	bcc.n	8008942 <FillZerobss>
 800894a:	f001 f9f3 	bl	8009d34 <__libc_init_array>
 800894e:	f7ff fad9 	bl	8007f04 <main>

08008952 <LoopForever>:
 8008952:	e7fe      	b.n	8008952 <LoopForever>
 8008954:	20010000 	.word	0x20010000
 8008958:	20000000 	.word	0x20000000
 800895c:	20000090 	.word	0x20000090
 8008960:	08010af8 	.word	0x08010af8
 8008964:	20000090 	.word	0x20000090
 8008968:	200003f8 	.word	0x200003f8

0800896c <ADC1_IRQHandler>:
 800896c:	e7fe      	b.n	800896c <ADC1_IRQHandler>
	...

08008970 <_sbrk>:
  const uint32_t stack_limit = (uint32_t)&_estack - (uint32_t)&_Min_Stack_Size;
  const uint8_t *max_heap = (uint8_t *)stack_limit;
  uint8_t *prev_heap_end;

  /* Initalize heap end at first call */
  if (NULL == __sbrk_heap_end)
 8008970:	490c      	ldr	r1, [pc, #48]	; (80089a4 <_sbrk+0x34>)
  const uint32_t stack_limit = (uint32_t)&_estack - (uint32_t)&_Min_Stack_Size;
 8008972:	4a0d      	ldr	r2, [pc, #52]	; (80089a8 <_sbrk+0x38>)
  if (NULL == __sbrk_heap_end)
 8008974:	680b      	ldr	r3, [r1, #0]
{
 8008976:	b510      	push	{r4, lr}
  const uint32_t stack_limit = (uint32_t)&_estack - (uint32_t)&_Min_Stack_Size;
 8008978:	4c0c      	ldr	r4, [pc, #48]	; (80089ac <_sbrk+0x3c>)
 800897a:	1b12      	subs	r2, r2, r4
  if (NULL == __sbrk_heap_end)
 800897c:	b12b      	cbz	r3, 800898a <_sbrk+0x1a>
  {
    __sbrk_heap_end = &_end;
  }

  /* Protect heap from growing into the reserved MSP stack */
  if (__sbrk_heap_end + incr > max_heap)
 800897e:	4418      	add	r0, r3
 8008980:	4290      	cmp	r0, r2
 8008982:	d807      	bhi.n	8008994 <_sbrk+0x24>
    errno = ENOMEM;
    return (void *)-1;
  }

  prev_heap_end = __sbrk_heap_end;
  __sbrk_heap_end += incr;
 8008984:	6008      	str	r0, [r1, #0]

  return (void *)prev_heap_end;
}
 8008986:	4618      	mov	r0, r3
 8008988:	bd10      	pop	{r4, pc}
    __sbrk_heap_end = &_end;
 800898a:	4b09      	ldr	r3, [pc, #36]	; (80089b0 <_sbrk+0x40>)
 800898c:	600b      	str	r3, [r1, #0]
  if (__sbrk_heap_end + incr > max_heap)
 800898e:	4418      	add	r0, r3
 8008990:	4290      	cmp	r0, r2
 8008992:	d9f7      	bls.n	8008984 <_sbrk+0x14>
    errno = ENOMEM;
 8008994:	f000 ffec 	bl	8009970 <__errno>
 8008998:	230c      	movs	r3, #12
 800899a:	6003      	str	r3, [r0, #0]
    return (void *)-1;
 800899c:	f04f 33ff 	mov.w	r3, #4294967295	; 0xffffffff
}
 80089a0:	4618      	mov	r0, r3
 80089a2:	bd10      	pop	{r4, pc}
 80089a4:	20000358 	.word	0x20000358
 80089a8:	20010000 	.word	0x20010000
 80089ac:	00001400 	.word	0x00001400
 80089b0:	200003f8 	.word	0x200003f8

080089b4 <cosf>:
 80089b4:	b500      	push	{lr}
 80089b6:	ee10 3a10 	vmov	r3, s0
 80089ba:	4a20      	ldr	r2, [pc, #128]	; (8008a3c <cosf+0x88>)
 80089bc:	f023 4300 	bic.w	r3, r3, #2147483648	; 0x80000000
 80089c0:	4293      	cmp	r3, r2
 80089c2:	b083      	sub	sp, #12
 80089c4:	dd19      	ble.n	80089fa <cosf+0x46>
 80089c6:	f1b3 4fff 	cmp.w	r3, #2139095040	; 0x7f800000
 80089ca:	db04      	blt.n	80089d6 <cosf+0x22>
 80089cc:	ee30 0a40 	vsub.f32	s0, s0, s0
 80089d0:	b003      	add	sp, #12
 80089d2:	f85d fb04 	ldr.w	pc, [sp], #4
 80089d6:	4668      	mov	r0, sp
 80089d8:	f000 f8a4 	bl	8008b24 <__ieee754_rem_pio2f>
 80089dc:	f000 0003 	and.w	r0, r0, #3
 80089e0:	2801      	cmp	r0, #1
 80089e2:	d011      	beq.n	8008a08 <cosf+0x54>
 80089e4:	2802      	cmp	r0, #2
 80089e6:	d01f      	beq.n	8008a28 <cosf+0x74>
 80089e8:	b1b8      	cbz	r0, 8008a1a <cosf+0x66>
 80089ea:	eddd 0a01 	vldr	s1, [sp, #4]
 80089ee:	ed9d 0a00 	vldr	s0, [sp]
 80089f2:	2001      	movs	r0, #1
 80089f4:	f000 fd9c 	bl	8009530 <__kernel_sinf>
 80089f8:	e7ea      	b.n	80089d0 <cosf+0x1c>
 80089fa:	eddf 0a11 	vldr	s1, [pc, #68]	; 8008a40 <cosf+0x8c>
 80089fe:	f000 f9df 	bl	8008dc0 <__kernel_cosf>
 8008a02:	b003      	add	sp, #12
 8008a04:	f85d fb04 	ldr.w	pc, [sp], #4
 8008a08:	eddd 0a01 	vldr	s1, [sp, #4]
 8008a0c:	ed9d 0a00 	vldr	s0, [sp]
 8008a10:	f000 fd8e 	bl	8009530 <__kernel_sinf>
 8008a14:	eeb1 0a40 	vneg.f32	s0, s0
 8008a18:	e7da      	b.n	80089d0 <cosf+0x1c>
 8008a1a:	eddd 0a01 	vldr	s1, [sp, #4]
 8008a1e:	ed9d 0a00 	vldr	s0, [sp]
 8008a22:	f000 f9cd 	bl	8008dc0 <__kernel_cosf>
 8008a26:	e7d3      	b.n	80089d0 <cosf+0x1c>
 8008a28:	eddd 0a01 	vldr	s1, [sp, #4]
 8008a2c:	ed9d 0a00 	vldr	s0, [sp]
 8008a30:	f000 f9c6 	bl	8008dc0 <__kernel_cosf>
 8008a34:	eeb1 0a40 	vneg.f32	s0, s0
 8008a38:	e7ca      	b.n	80089d0 <cosf+0x1c>
 8008a3a:	bf00      	nop
 8008a3c:	3f490fd8 	.word	0x3f490fd8
 8008a40:	00000000 	.word	0x00000000

08008a44 <roundf>:
 8008a44:	ee10 3a10 	vmov	r3, s0
 8008a48:	f3c3 52c7 	ubfx	r2, r3, #23, #8
 8008a4c:	3a7f      	subs	r2, #127	; 0x7f
 8008a4e:	2a16      	cmp	r2, #22
 8008a50:	ee10 1a10 	vmov	r1, s0
 8008a54:	dc0e      	bgt.n	8008a74 <roundf+0x30>
 8008a56:	2a00      	cmp	r2, #0
 8008a58:	db11      	blt.n	8008a7e <roundf+0x3a>
 8008a5a:	480c      	ldr	r0, [pc, #48]	; (8008a8c <roundf+0x48>)
 8008a5c:	4110      	asrs	r0, r2
 8008a5e:	4203      	tst	r3, r0
 8008a60:	d005      	beq.n	8008a6e <roundf+0x2a>
 8008a62:	f44f 0380 	mov.w	r3, #4194304	; 0x400000
 8008a66:	4113      	asrs	r3, r2
 8008a68:	440b      	add	r3, r1
 8008a6a:	ea23 0300 	bic.w	r3, r3, r0
 8008a6e:	ee00 3a10 	vmov	s0, r3
 8008a72:	4770      	bx	lr
 8008a74:	2a80      	cmp	r2, #128	; 0x80
 8008a76:	d1fa      	bne.n	8008a6e <roundf+0x2a>
 8008a78:	ee30 0a00 	vadd.f32	s0, s0, s0
 8008a7c:	4770      	bx	lr
 8008a7e:	3201      	adds	r2, #1
 8008a80:	f003 4300 	and.w	r3, r3, #2147483648	; 0x80000000
 8008a84:	d1f3      	bne.n	8008a6e <roundf+0x2a>
 8008a86:	f043 537e 	orr.w	r3, r3, #1065353216	; 0x3f800000
 8008a8a:	e7f0      	b.n	8008a6e <roundf+0x2a>
 8008a8c:	007fffff 	.word	0x007fffff

08008a90 <sinf>:
 8008a90:	b500      	push	{lr}
 8008a92:	ee10 3a10 	vmov	r3, s0
 8008a96:	4a21      	ldr	r2, [pc, #132]	; (8008b1c <sinf+0x8c>)
 8008a98:	f023 4300 	bic.w	r3, r3, #2147483648	; 0x80000000
 8008a9c:	4293      	cmp	r3, r2
 8008a9e:	b083      	sub	sp, #12
 8008aa0:	dd1a      	ble.n	8008ad8 <sinf+0x48>
 8008aa2:	f1b3 4fff 	cmp.w	r3, #2139095040	; 0x7f800000
 8008aa6:	db04      	blt.n	8008ab2 <sinf+0x22>
 8008aa8:	ee30 0a40 	vsub.f32	s0, s0, s0
 8008aac:	b003      	add	sp, #12
 8008aae:	f85d fb04 	ldr.w	pc, [sp], #4
 8008ab2:	4668      	mov	r0, sp
 8008ab4:	f000 f836 	bl	8008b24 <__ieee754_rem_pio2f>
 8008ab8:	f000 0003 	and.w	r0, r0, #3
 8008abc:	2801      	cmp	r0, #1
 8008abe:	d013      	beq.n	8008ae8 <sinf+0x58>
 8008ac0:	2802      	cmp	r0, #2
 8008ac2:	d020      	beq.n	8008b06 <sinf+0x76>
 8008ac4:	b1b8      	cbz	r0, 8008af6 <sinf+0x66>
 8008ac6:	eddd 0a01 	vldr	s1, [sp, #4]
 8008aca:	ed9d 0a00 	vldr	s0, [sp]
 8008ace:	f000 f977 	bl	8008dc0 <__kernel_cosf>
 8008ad2:	eeb1 0a40 	vneg.f32	s0, s0
 8008ad6:	e7e9      	b.n	8008aac <sinf+0x1c>
 8008ad8:	eddf 0a11 	vldr	s1, [pc, #68]	; 8008b20 <sinf+0x90>
 8008adc:	2000      	movs	r0, #0
 8008ade:	f000 fd27 	bl	8009530 <__kernel_sinf>
 8008ae2:	b003      	add	sp, #12
 8008ae4:	f85d fb04 	ldr.w	pc, [sp], #4
 8008ae8:	eddd 0a01 	vldr	s1, [sp, #4]
 8008aec:	ed9d 0a00 	vldr	s0, [sp]
 8008af0:	f000 f966 	bl	8008dc0 <__kernel_cosf>
 8008af4:	e7da      	b.n	8008aac <sinf+0x1c>
 8008af6:	eddd 0a01 	vldr	s1, [sp, #4]
 8008afa:	ed9d 0a00 	vldr	s0, [sp]
 8008afe:	2001      	movs	r0, #1
 8008b00:	f000 fd16 	bl	8009530 <__kernel_sinf>
 8008b04:	e7d2      	b.n	8008aac <sinf+0x1c>
 8008b06:	eddd 0a01 	vldr	s1, [sp, #4]
 8008b0a:	ed9d 0a00 	vldr	s0, [sp]
 8008b0e:	2001      	movs	r0, #1
 8008b10:	f000 fd0e 	bl	8009530 <__kernel_sinf>
 8008b14:	eeb1 0a40 	vneg.f32	s0, s0
 8008b18:	e7c8      	b.n	8008aac <sinf+0x1c>
 8008b1a:	bf00      	nop
 8008b1c:	3f490fd8 	.word	0x3f490fd8
 8008b20:	00000000 	.word	0x00000000

08008b24 <__ieee754_rem_pio2f>:
 8008b24:	b570      	push	{r4, r5, r6, lr}
 8008b26:	ee10 3a10 	vmov	r3, s0
 8008b2a:	4a95      	ldr	r2, [pc, #596]	; (8008d80 <__ieee754_rem_pio2f+0x25c>)
 8008b2c:	f023 4400 	bic.w	r4, r3, #2147483648	; 0x80000000
 8008b30:	4294      	cmp	r4, r2
 8008b32:	b086      	sub	sp, #24
 8008b34:	4605      	mov	r5, r0
 8008b36:	dd68      	ble.n	8008c0a <__ieee754_rem_pio2f+0xe6>
 8008b38:	4a92      	ldr	r2, [pc, #584]	; (8008d84 <__ieee754_rem_pio2f+0x260>)
 8008b3a:	4294      	cmp	r4, r2
 8008b3c:	ee10 6a10 	vmov	r6, s0
 8008b40:	dc1a      	bgt.n	8008b78 <__ieee754_rem_pio2f+0x54>
 8008b42:	2b00      	cmp	r3, #0
 8008b44:	eddf 7a90 	vldr	s15, [pc, #576]	; 8008d88 <__ieee754_rem_pio2f+0x264>
 8008b48:	4a90      	ldr	r2, [pc, #576]	; (8008d8c <__ieee754_rem_pio2f+0x268>)
 8008b4a:	f024 040f 	bic.w	r4, r4, #15
 8008b4e:	f340 80f1 	ble.w	8008d34 <__ieee754_rem_pio2f+0x210>
 8008b52:	4294      	cmp	r4, r2
 8008b54:	ee70 7a67 	vsub.f32	s15, s0, s15
 8008b58:	d066      	beq.n	8008c28 <__ieee754_rem_pio2f+0x104>
 8008b5a:	ed9f 7a8d 	vldr	s14, [pc, #564]	; 8008d90 <__ieee754_rem_pio2f+0x26c>
 8008b5e:	ee77 6ac7 	vsub.f32	s13, s15, s14
 8008b62:	2001      	movs	r0, #1
 8008b64:	ee77 7ae6 	vsub.f32	s15, s15, s13
 8008b68:	edc5 6a00 	vstr	s13, [r5]
 8008b6c:	ee77 7ac7 	vsub.f32	s15, s15, s14
 8008b70:	edc5 7a01 	vstr	s15, [r5, #4]
 8008b74:	b006      	add	sp, #24
 8008b76:	bd70      	pop	{r4, r5, r6, pc}
 8008b78:	4a86      	ldr	r2, [pc, #536]	; (8008d94 <__ieee754_rem_pio2f+0x270>)
 8008b7a:	4294      	cmp	r4, r2
 8008b7c:	dd67      	ble.n	8008c4e <__ieee754_rem_pio2f+0x12a>
 8008b7e:	f1b4 4fff 	cmp.w	r4, #2139095040	; 0x7f800000
 8008b82:	da49      	bge.n	8008c18 <__ieee754_rem_pio2f+0xf4>
 8008b84:	15e2      	asrs	r2, r4, #23
 8008b86:	3a86      	subs	r2, #134	; 0x86
 8008b88:	eba4 53c2 	sub.w	r3, r4, r2, lsl #23
 8008b8c:	ee07 3a90 	vmov	s15, r3
 8008b90:	eebd 7ae7 	vcvt.s32.f32	s14, s15
 8008b94:	eddf 6a80 	vldr	s13, [pc, #512]	; 8008d98 <__ieee754_rem_pio2f+0x274>
 8008b98:	eeb8 7ac7 	vcvt.f32.s32	s14, s14
 8008b9c:	ee77 7ac7 	vsub.f32	s15, s15, s14
 8008ba0:	ed8d 7a03 	vstr	s14, [sp, #12]
 8008ba4:	ee67 7aa6 	vmul.f32	s15, s15, s13
 8008ba8:	eebd 7ae7 	vcvt.s32.f32	s14, s15
 8008bac:	eeb8 7ac7 	vcvt.f32.s32	s14, s14
 8008bb0:	ee77 7ac7 	vsub.f32	s15, s15, s14
 8008bb4:	ed8d 7a04 	vstr	s14, [sp, #16]
 8008bb8:	ee67 7aa6 	vmul.f32	s15, s15, s13
 8008bbc:	eef5 7a40 	vcmp.f32	s15, #0.0
 8008bc0:	eef1 fa10 	vmrs	APSR_nzcv, fpscr
 8008bc4:	edcd 7a05 	vstr	s15, [sp, #20]
 8008bc8:	f040 80a3 	bne.w	8008d12 <__ieee754_rem_pio2f+0x1ee>
 8008bcc:	eeb5 7a40 	vcmp.f32	s14, #0.0
 8008bd0:	eef1 fa10 	vmrs	APSR_nzcv, fpscr
 8008bd4:	bf14      	ite	ne
 8008bd6:	2302      	movne	r3, #2
 8008bd8:	2301      	moveq	r3, #1
 8008bda:	4970      	ldr	r1, [pc, #448]	; (8008d9c <__ieee754_rem_pio2f+0x278>)
 8008bdc:	9101      	str	r1, [sp, #4]
 8008bde:	2102      	movs	r1, #2
 8008be0:	9100      	str	r1, [sp, #0]
 8008be2:	a803      	add	r0, sp, #12
 8008be4:	4629      	mov	r1, r5
 8008be6:	f000 f96d 	bl	8008ec4 <__kernel_rem_pio2f>
 8008bea:	2e00      	cmp	r6, #0
 8008bec:	dac2      	bge.n	8008b74 <__ieee754_rem_pio2f+0x50>
 8008bee:	ed95 7a00 	vldr	s14, [r5]
 8008bf2:	edd5 7a01 	vldr	s15, [r5, #4]
 8008bf6:	eeb1 7a47 	vneg.f32	s14, s14
 8008bfa:	eef1 7a67 	vneg.f32	s15, s15
 8008bfe:	4240      	negs	r0, r0
 8008c00:	ed85 7a00 	vstr	s14, [r5]
 8008c04:	edc5 7a01 	vstr	s15, [r5, #4]
 8008c08:	e7b4      	b.n	8008b74 <__ieee754_rem_pio2f+0x50>
 8008c0a:	2200      	movs	r2, #0
 8008c0c:	ed85 0a00 	vstr	s0, [r5]
 8008c10:	6042      	str	r2, [r0, #4]
 8008c12:	2000      	movs	r0, #0
 8008c14:	b006      	add	sp, #24
 8008c16:	bd70      	pop	{r4, r5, r6, pc}
 8008c18:	ee70 7a40 	vsub.f32	s15, s0, s0
 8008c1c:	2000      	movs	r0, #0
 8008c1e:	edc5 7a01 	vstr	s15, [r5, #4]
 8008c22:	edc5 7a00 	vstr	s15, [r5]
 8008c26:	e7a5      	b.n	8008b74 <__ieee754_rem_pio2f+0x50>
 8008c28:	eddf 6a5d 	vldr	s13, [pc, #372]	; 8008da0 <__ieee754_rem_pio2f+0x27c>
 8008c2c:	ed9f 7a5d 	vldr	s14, [pc, #372]	; 8008da4 <__ieee754_rem_pio2f+0x280>
 8008c30:	ee77 7ae6 	vsub.f32	s15, s15, s13
 8008c34:	2001      	movs	r0, #1
 8008c36:	ee77 6ac7 	vsub.f32	s13, s15, s14
 8008c3a:	ee77 7ae6 	vsub.f32	s15, s15, s13
 8008c3e:	edc5 6a00 	vstr	s13, [r5]
 8008c42:	ee77 7ac7 	vsub.f32	s15, s15, s14
 8008c46:	edc5 7a01 	vstr	s15, [r5, #4]
 8008c4a:	b006      	add	sp, #24
 8008c4c:	bd70      	pop	{r4, r5, r6, pc}
 8008c4e:	f000 fcb7 	bl	80095c0 <fabsf>
 8008c52:	eddf 6a55 	vldr	s13, [pc, #340]	; 8008da8 <__ieee754_rem_pio2f+0x284>
 8008c56:	ed9f 6a4c 	vldr	s12, [pc, #304]	; 8008d88 <__ieee754_rem_pio2f+0x264>
 8008c5a:	ed9f 7a4d 	vldr	s14, [pc, #308]	; 8008d90 <__ieee754_rem_pio2f+0x26c>
 8008c5e:	eef6 7a00 	vmov.f32	s15, #96	; 0x3f000000  0.5
 8008c62:	eee0 7a26 	vfma.f32	s15, s0, s13
 8008c66:	eefd 7ae7 	vcvt.s32.f32	s15, s15
 8008c6a:	ee17 0a90 	vmov	r0, s15
 8008c6e:	eef8 6ae7 	vcvt.f32.s32	s13, s15
 8008c72:	281f      	cmp	r0, #31
 8008c74:	eea6 0ac6 	vfms.f32	s0, s13, s12
 8008c78:	ee66 7a87 	vmul.f32	s15, s13, s14
 8008c7c:	eeb1 6a66 	vneg.f32	s12, s13
 8008c80:	dc1e      	bgt.n	8008cc0 <__ieee754_rem_pio2f+0x19c>
 8008c82:	4a4a      	ldr	r2, [pc, #296]	; (8008dac <__ieee754_rem_pio2f+0x288>)
 8008c84:	1e41      	subs	r1, r0, #1
 8008c86:	f024 03ff 	bic.w	r3, r4, #255	; 0xff
 8008c8a:	f852 2021 	ldr.w	r2, [r2, r1, lsl #2]
 8008c8e:	4293      	cmp	r3, r2
 8008c90:	d016      	beq.n	8008cc0 <__ieee754_rem_pio2f+0x19c>
 8008c92:	ee30 7a67 	vsub.f32	s14, s0, s15
 8008c96:	ed85 7a00 	vstr	s14, [r5]
 8008c9a:	ee30 0a47 	vsub.f32	s0, s0, s14
 8008c9e:	2e00      	cmp	r6, #0
 8008ca0:	ee30 0a67 	vsub.f32	s0, s0, s15
 8008ca4:	ed85 0a01 	vstr	s0, [r5, #4]
 8008ca8:	f6bf af64 	bge.w	8008b74 <__ieee754_rem_pio2f+0x50>
 8008cac:	eeb1 7a47 	vneg.f32	s14, s14
 8008cb0:	eeb1 0a40 	vneg.f32	s0, s0
 8008cb4:	ed85 7a00 	vstr	s14, [r5]
 8008cb8:	ed85 0a01 	vstr	s0, [r5, #4]
 8008cbc:	4240      	negs	r0, r0
 8008cbe:	e759      	b.n	8008b74 <__ieee754_rem_pio2f+0x50>
 8008cc0:	ee30 7a67 	vsub.f32	s14, s0, s15
 8008cc4:	15e2      	asrs	r2, r4, #23
 8008cc6:	ee17 3a10 	vmov	r3, s14
 8008cca:	f3c3 53c7 	ubfx	r3, r3, #23, #8
 8008cce:	ebc3 54d4 	rsb	r4, r3, r4, lsr #23
 8008cd2:	2c08      	cmp	r4, #8
 8008cd4:	dddf      	ble.n	8008c96 <__ieee754_rem_pio2f+0x172>
 8008cd6:	eddf 7a32 	vldr	s15, [pc, #200]	; 8008da0 <__ieee754_rem_pio2f+0x27c>
 8008cda:	ed9f 7a32 	vldr	s14, [pc, #200]	; 8008da4 <__ieee754_rem_pio2f+0x280>
 8008cde:	eef0 5a40 	vmov.f32	s11, s0
 8008ce2:	eee6 5a27 	vfma.f32	s11, s12, s15
 8008ce6:	ee30 0a65 	vsub.f32	s0, s0, s11
 8008cea:	eea6 0a27 	vfma.f32	s0, s12, s15
 8008cee:	eef0 7a40 	vmov.f32	s15, s0
 8008cf2:	eed6 7a87 	vfnms.f32	s15, s13, s14
 8008cf6:	ee35 7ae7 	vsub.f32	s14, s11, s15
 8008cfa:	ee17 3a10 	vmov	r3, s14
 8008cfe:	f3c3 53c7 	ubfx	r3, r3, #23, #8
 8008d02:	1ad2      	subs	r2, r2, r3
 8008d04:	2a19      	cmp	r2, #25
 8008d06:	dc06      	bgt.n	8008d16 <__ieee754_rem_pio2f+0x1f2>
 8008d08:	ed85 7a00 	vstr	s14, [r5]
 8008d0c:	eeb0 0a65 	vmov.f32	s0, s11
 8008d10:	e7c3      	b.n	8008c9a <__ieee754_rem_pio2f+0x176>
 8008d12:	2303      	movs	r3, #3
 8008d14:	e761      	b.n	8008bda <__ieee754_rem_pio2f+0xb6>
 8008d16:	ed9f 7a26 	vldr	s14, [pc, #152]	; 8008db0 <__ieee754_rem_pio2f+0x28c>
 8008d1a:	ed9f 5a26 	vldr	s10, [pc, #152]	; 8008db4 <__ieee754_rem_pio2f+0x290>
 8008d1e:	eeb0 0a65 	vmov.f32	s0, s11
 8008d22:	eea6 0a07 	vfma.f32	s0, s12, s14
 8008d26:	ee75 7ac0 	vsub.f32	s15, s11, s0
 8008d2a:	eee6 7a07 	vfma.f32	s15, s12, s14
 8008d2e:	eed6 7a85 	vfnms.f32	s15, s13, s10
 8008d32:	e7ae      	b.n	8008c92 <__ieee754_rem_pio2f+0x16e>
 8008d34:	4294      	cmp	r4, r2
 8008d36:	ee70 7a27 	vadd.f32	s15, s0, s15
 8008d3a:	d00e      	beq.n	8008d5a <__ieee754_rem_pio2f+0x236>
 8008d3c:	ed9f 7a14 	vldr	s14, [pc, #80]	; 8008d90 <__ieee754_rem_pio2f+0x26c>
 8008d40:	ee77 6a87 	vadd.f32	s13, s15, s14
 8008d44:	f04f 30ff 	mov.w	r0, #4294967295	; 0xffffffff
 8008d48:	ee77 7ae6 	vsub.f32	s15, s15, s13
 8008d4c:	edc5 6a00 	vstr	s13, [r5]
 8008d50:	ee77 7a87 	vadd.f32	s15, s15, s14
 8008d54:	edc5 7a01 	vstr	s15, [r5, #4]
 8008d58:	e70c      	b.n	8008b74 <__ieee754_rem_pio2f+0x50>
 8008d5a:	eddf 6a11 	vldr	s13, [pc, #68]	; 8008da0 <__ieee754_rem_pio2f+0x27c>
 8008d5e:	ed9f 7a11 	vldr	s14, [pc, #68]	; 8008da4 <__ieee754_rem_pio2f+0x280>
 8008d62:	ee77 7aa6 	vadd.f32	s15, s15, s13
 8008d66:	f04f 30ff 	mov.w	r0, #4294967295	; 0xffffffff
 8008d6a:	ee77 6a87 	vadd.f32	s13, s15, s14
 8008d6e:	ee77 7ae6 	vsub.f32	s15, s15, s13
 8008d72:	edc5 6a00 	vstr	s13, [r5]
 8008d76:	ee77 7a87 	vadd.f32	s15, s15, s14
 8008d7a:	edc5 7a01 	vstr	s15, [r5, #4]
 8008d7e:	e6f9      	b.n	8008b74 <__ieee754_rem_pio2f+0x50>
 8008d80:	3f490fd8 	.word	0x3f490fd8
 8008d84:	4016cbe3 	.word	0x4016cbe3
 8008d88:	3fc90f80 	.word	0x3fc90f80
 8008d8c:	3fc90fd0 	.word	0x3fc90fd0
 8008d90:	37354443 	.word	0x37354443
 8008d94:	43490f80 	.word	0x43490f80
 8008d98:	43800000 	.word	0x43800000
 8008d9c:	080106bc 	.word	0x080106bc
 8008da0:	37354400 	.word	0x37354400
 8008da4:	2e85a308 	.word	0x2e85a308
 8008da8:	3f22f984 	.word	0x3f22f984
 8008dac:	0801063c 	.word	0x0801063c
 8008db0:	2e85a300 	.word	0x2e85a300
 8008db4:	248d3132 	.word	0x248d3132

08008db8 <__ieee754_sqrtf>:
 8008db8:	eeb1 0ac0 	vsqrt.f32	s0, s0
 8008dbc:	4770      	bx	lr
 8008dbe:	bf00      	nop

08008dc0 <__kernel_cosf>:
 8008dc0:	ee10 3a10 	vmov	r3, s0
 8008dc4:	f023 4300 	bic.w	r3, r3, #2147483648	; 0x80000000
 8008dc8:	f1b3 5f48 	cmp.w	r3, #838860800	; 0x32000000
 8008dcc:	da2c      	bge.n	8008e28 <__kernel_cosf+0x68>
 8008dce:	eefd 7ac0 	vcvt.s32.f32	s15, s0
 8008dd2:	ee17 3a90 	vmov	r3, s15
 8008dd6:	2b00      	cmp	r3, #0
 8008dd8:	d060      	beq.n	8008e9c <__kernel_cosf+0xdc>
 8008dda:	ee20 7a00 	vmul.f32	s14, s0, s0
 8008dde:	eddf 4a31 	vldr	s9, [pc, #196]	; 8008ea4 <__kernel_cosf+0xe4>
 8008de2:	ed9f 5a31 	vldr	s10, [pc, #196]	; 8008ea8 <__kernel_cosf+0xe8>
 8008de6:	eddf 5a31 	vldr	s11, [pc, #196]	; 8008eac <__kernel_cosf+0xec>
 8008dea:	ed9f 6a31 	vldr	s12, [pc, #196]	; 8008eb0 <__kernel_cosf+0xf0>
 8008dee:	eddf 7a31 	vldr	s15, [pc, #196]	; 8008eb4 <__kernel_cosf+0xf4>
 8008df2:	eddf 6a31 	vldr	s13, [pc, #196]	; 8008eb8 <__kernel_cosf+0xf8>
 8008df6:	eea7 5a24 	vfma.f32	s10, s14, s9
 8008dfa:	eee7 5a05 	vfma.f32	s11, s14, s10
 8008dfe:	eea7 6a25 	vfma.f32	s12, s14, s11
 8008e02:	eee7 7a06 	vfma.f32	s15, s14, s12
 8008e06:	eee7 6a27 	vfma.f32	s13, s14, s15
 8008e0a:	ee67 6a26 	vmul.f32	s13, s14, s13
 8008e0e:	ee60 0ac0 	vnmul.f32	s1, s1, s0
 8008e12:	eef6 7a00 	vmov.f32	s15, #96	; 0x3f000000  0.5
 8008e16:	eee7 0a26 	vfma.f32	s1, s14, s13
 8008e1a:	eeb7 0a00 	vmov.f32	s0, #112	; 0x3f800000  1.0
 8008e1e:	eed7 0a27 	vfnms.f32	s1, s14, s15
 8008e22:	ee30 0a60 	vsub.f32	s0, s0, s1
 8008e26:	4770      	bx	lr
 8008e28:	ee20 7a00 	vmul.f32	s14, s0, s0
 8008e2c:	eddf 4a1d 	vldr	s9, [pc, #116]	; 8008ea4 <__kernel_cosf+0xe4>
 8008e30:	ed9f 5a1d 	vldr	s10, [pc, #116]	; 8008ea8 <__kernel_cosf+0xe8>
 8008e34:	eddf 5a1d 	vldr	s11, [pc, #116]	; 8008eac <__kernel_cosf+0xec>
 8008e38:	ed9f 6a1d 	vldr	s12, [pc, #116]	; 8008eb0 <__kernel_cosf+0xf0>
 8008e3c:	eddf 7a1d 	vldr	s15, [pc, #116]	; 8008eb4 <__kernel_cosf+0xf4>
 8008e40:	eddf 6a1d 	vldr	s13, [pc, #116]	; 8008eb8 <__kernel_cosf+0xf8>
 8008e44:	4a1d      	ldr	r2, [pc, #116]	; (8008ebc <__kernel_cosf+0xfc>)
 8008e46:	eea7 5a24 	vfma.f32	s10, s14, s9
 8008e4a:	4293      	cmp	r3, r2
 8008e4c:	eee5 5a07 	vfma.f32	s11, s10, s14
 8008e50:	eea5 6a87 	vfma.f32	s12, s11, s14
 8008e54:	eee6 7a07 	vfma.f32	s15, s12, s14
 8008e58:	eee7 6a87 	vfma.f32	s13, s15, s14
 8008e5c:	ee66 6a87 	vmul.f32	s13, s13, s14
 8008e60:	ddd5      	ble.n	8008e0e <__kernel_cosf+0x4e>
 8008e62:	4a17      	ldr	r2, [pc, #92]	; (8008ec0 <__kernel_cosf+0x100>)
 8008e64:	4293      	cmp	r3, r2
 8008e66:	dc14      	bgt.n	8008e92 <__kernel_cosf+0xd2>
 8008e68:	f103 437f 	add.w	r3, r3, #4278190080	; 0xff000000
 8008e6c:	ee07 3a90 	vmov	s15, r3
 8008e70:	eeb7 6a00 	vmov.f32	s12, #112	; 0x3f800000  1.0
 8008e74:	ee36 6a67 	vsub.f32	s12, s12, s15
 8008e78:	ee60 0ac0 	vnmul.f32	s1, s1, s0
 8008e7c:	eef6 5a00 	vmov.f32	s11, #96	; 0x3f000000  0.5
 8008e80:	eee7 0a26 	vfma.f32	s1, s14, s13
 8008e84:	eed7 7a25 	vfnms.f32	s15, s14, s11
 8008e88:	ee77 0ae0 	vsub.f32	s1, s15, s1
 8008e8c:	ee36 0a60 	vsub.f32	s0, s12, s1
 8008e90:	4770      	bx	lr
 8008e92:	eeb6 6a07 	vmov.f32	s12, #103	; 0x3f380000  0.7187500
 8008e96:	eef5 7a02 	vmov.f32	s15, #82	; 0x3e900000  0.2812500
 8008e9a:	e7ed      	b.n	8008e78 <__kernel_cosf+0xb8>
 8008e9c:	eeb7 0a00 	vmov.f32	s0, #112	; 0x3f800000  1.0
 8008ea0:	4770      	bx	lr
 8008ea2:	bf00      	nop
 8008ea4:	ad47d74e 	.word	0xad47d74e
 8008ea8:	310f74f6 	.word	0x310f74f6
 8008eac:	b493f27c 	.word	0xb493f27c
 8008eb0:	37d00d01 	.word	0x37d00d01
 8008eb4:	bab60b61 	.word	0xbab60b61
 8008eb8:	3d2aaaab 	.word	0x3d2aaaab
 8008ebc:	3e999999 	.word	0x3e999999
 8008ec0:	3f480000 	.word	0x3f480000

08008ec4 <__kernel_rem_pio2f>:
 8008ec4:	e92d 4ff0 	stmdb	sp!, {r4, r5, r6, r7, r8, r9, sl, fp, lr}
 8008ec8:	ed2d 8b04 	vpush	{d8-d9}
 8008ecc:	b0db      	sub	sp, #364	; 0x16c
 8008ece:	4cd7      	ldr	r4, [pc, #860]	; (800922c <__kernel_rem_pio2f+0x368>)
 8008ed0:	9d68      	ldr	r5, [sp, #416]	; 0x1a0
 8008ed2:	9107      	str	r1, [sp, #28]
 8008ed4:	1d11      	adds	r1, r2, #4
 8008ed6:	f854 6025 	ldr.w	r6, [r4, r5, lsl #2]
 8008eda:	9304      	str	r3, [sp, #16]
 8008edc:	9209      	str	r2, [sp, #36]	; 0x24
 8008ede:	4683      	mov	fp, r0
 8008ee0:	f103 39ff 	add.w	r9, r3, #4294967295	; 0xffffffff
 8008ee4:	f2c0 829d 	blt.w	8009422 <__kernel_rem_pio2f+0x55e>
 8008ee8:	1ed3      	subs	r3, r2, #3
 8008eea:	bf44      	itt	mi
 8008eec:	4613      	movmi	r3, r2
 8008eee:	3304      	addmi	r3, #4
 8008ef0:	10db      	asrs	r3, r3, #3
 8008ef2:	9303      	str	r3, [sp, #12]
 8008ef4:	3301      	adds	r3, #1
 8008ef6:	00db      	lsls	r3, r3, #3
 8008ef8:	9308      	str	r3, [sp, #32]
 8008efa:	e9dd 2308 	ldrd	r2, r3, [sp, #32]
 8008efe:	1a9b      	subs	r3, r3, r2
 8008f00:	9306      	str	r3, [sp, #24]
 8008f02:	9b03      	ldr	r3, [sp, #12]
 8008f04:	eb16 0109 	adds.w	r1, r6, r9
 8008f08:	eba3 0309 	sub.w	r3, r3, r9
 8008f0c:	d416      	bmi.n	8008f3c <__kernel_rem_pio2f+0x78>
 8008f0e:	3101      	adds	r1, #1
 8008f10:	ed9f 7ac7 	vldr	s14, [pc, #796]	; 8009230 <__kernel_rem_pio2f+0x36c>
 8008f14:	9869      	ldr	r0, [sp, #420]	; 0x1a4
 8008f16:	4419      	add	r1, r3
 8008f18:	aa1e      	add	r2, sp, #120	; 0x78
 8008f1a:	2b00      	cmp	r3, #0
 8008f1c:	bfa4      	itt	ge
 8008f1e:	f850 4023 	ldrge.w	r4, [r0, r3, lsl #2]
 8008f22:	ee07 4a90 	vmovge	s15, r4
 8008f26:	f103 0301 	add.w	r3, r3, #1
 8008f2a:	bfac      	ite	ge
 8008f2c:	eef8 7ae7 	vcvtge.f32.s32	s15, s15
 8008f30:	eef0 7a47 	vmovlt.f32	s15, s14
 8008f34:	428b      	cmp	r3, r1
 8008f36:	ece2 7a01 	vstmia	r2!, {s15}
 8008f3a:	d1ee      	bne.n	8008f1a <__kernel_rem_pio2f+0x56>
 8008f3c:	2e00      	cmp	r6, #0
 8008f3e:	f2c0 82e0 	blt.w	8009502 <__kernel_rem_pio2f+0x63e>
 8008f42:	9b04      	ldr	r3, [sp, #16]
 8008f44:	a91e      	add	r1, sp, #120	; 0x78
 8008f46:	eb01 0483 	add.w	r4, r1, r3, lsl #2
 8008f4a:	ad46      	add	r5, sp, #280	; 0x118
 8008f4c:	ea4f 0c83 	mov.w	ip, r3, lsl #2
 8008f50:	4648      	mov	r0, r9
 8008f52:	18f7      	adds	r7, r6, r3
 8008f54:	eb0b 0183 	add.w	r1, fp, r3, lsl #2
 8008f58:	f1b9 0f00 	cmp.w	r9, #0
 8008f5c:	eddf 7ab4 	vldr	s15, [pc, #720]	; 8009230 <__kernel_rem_pio2f+0x36c>
 8008f60:	db09      	blt.n	8008f76 <__kernel_rem_pio2f+0xb2>
 8008f62:	4622      	mov	r2, r4
 8008f64:	465b      	mov	r3, fp
 8008f66:	ecf3 6a01 	vldmia	r3!, {s13}
 8008f6a:	ed32 7a01 	vldmdb	r2!, {s14}
 8008f6e:	428b      	cmp	r3, r1
 8008f70:	eee6 7a87 	vfma.f32	s15, s13, s14
 8008f74:	d1f7      	bne.n	8008f66 <__kernel_rem_pio2f+0xa2>
 8008f76:	3001      	adds	r0, #1
 8008f78:	42b8      	cmp	r0, r7
 8008f7a:	ece5 7a01 	vstmia	r5!, {s15}
 8008f7e:	f104 0404 	add.w	r4, r4, #4
 8008f82:	d1e9      	bne.n	8008f58 <__kernel_rem_pio2f+0x94>
 8008f84:	f10d 0828 	add.w	r8, sp, #40	; 0x28
 8008f88:	eb08 0386 	add.w	r3, r8, r6, lsl #2
 8008f8c:	3b08      	subs	r3, #8
 8008f8e:	9305      	str	r3, [sp, #20]
 8008f90:	ed9f 9aa9 	vldr	s18, [pc, #676]	; 8009238 <__kernel_rem_pio2f+0x374>
 8008f94:	eddf 8aa7 	vldr	s17, [pc, #668]	; 8009234 <__kernel_rem_pio2f+0x370>
 8008f98:	9806      	ldr	r0, [sp, #24]
 8008f9a:	9600      	str	r6, [sp, #0]
 8008f9c:	ab09      	add	r3, sp, #36	; 0x24
 8008f9e:	eb03 0a86 	add.w	sl, r3, r6, lsl #2
 8008fa2:	eb0b 040c 	add.w	r4, fp, ip
 8008fa6:	af46      	add	r7, sp, #280	; 0x118
 8008fa8:	465b      	mov	r3, fp
 8008faa:	aa5a      	add	r2, sp, #360	; 0x168
 8008fac:	eb02 0286 	add.w	r2, r2, r6, lsl #2
 8008fb0:	2e00      	cmp	r6, #0
 8008fb2:	ed12 0a14 	vldr	s0, [r2, #-80]	; 0xffffffb0
 8008fb6:	ea4f 0b86 	mov.w	fp, r6, lsl #2
 8008fba:	dd16      	ble.n	8008fea <__kernel_rem_pio2f+0x126>
 8008fbc:	eb07 0286 	add.w	r2, r7, r6, lsl #2
 8008fc0:	4641      	mov	r1, r8
 8008fc2:	ee60 7a09 	vmul.f32	s15, s0, s18
 8008fc6:	eeb0 7a40 	vmov.f32	s14, s0
 8008fca:	eefd 7ae7 	vcvt.s32.f32	s15, s15
 8008fce:	ed72 6a01 	vldmdb	r2!, {s13}
 8008fd2:	eef8 7ae7 	vcvt.f32.s32	s15, s15
 8008fd6:	42ba      	cmp	r2, r7
 8008fd8:	eea7 7ae8 	vfms.f32	s14, s15, s17
 8008fdc:	ee37 0aa6 	vadd.f32	s0, s15, s13
 8008fe0:	eebd 7ac7 	vcvt.s32.f32	s14, s14
 8008fe4:	eca1 7a01 	vstmia	r1!, {s14}
 8008fe8:	d1eb      	bne.n	8008fc2 <__kernel_rem_pio2f+0xfe>
 8008fea:	e9cd 0301 	strd	r0, r3, [sp, #4]
 8008fee:	f000 fb43 	bl	8009678 <scalbnf>
 8008ff2:	eeb0 8a40 	vmov.f32	s16, s0
 8008ff6:	eeb4 0a00 	vmov.f32	s0, #64	; 0x3e000000  0.125
 8008ffa:	ee28 0a00 	vmul.f32	s0, s16, s0
 8008ffe:	f000 faf5 	bl	80095ec <floorf>
 8009002:	eef2 7a00 	vmov.f32	s15, #32	; 0x41000000  8.0
 8009006:	eea0 8a67 	vfms.f32	s16, s0, s15
 800900a:	9801      	ldr	r0, [sp, #4]
 800900c:	9b02      	ldr	r3, [sp, #8]
 800900e:	eefd 9ac8 	vcvt.s32.f32	s19, s16
 8009012:	2800      	cmp	r0, #0
 8009014:	eef8 7ae9 	vcvt.f32.s32	s15, s19
 8009018:	ee38 8a67 	vsub.f32	s16, s16, s15
 800901c:	dd78      	ble.n	8009110 <__kernel_rem_pio2f+0x24c>
 800901e:	f106 3cff 	add.w	ip, r6, #4294967295	; 0xffffffff
 8009022:	f1c0 0208 	rsb	r2, r0, #8
 8009026:	f858 502c 	ldr.w	r5, [r8, ip, lsl #2]
 800902a:	fa45 f102 	asr.w	r1, r5, r2
 800902e:	fa01 f202 	lsl.w	r2, r1, r2
 8009032:	1aaa      	subs	r2, r5, r2
 8009034:	f848 202c 	str.w	r2, [r8, ip, lsl #2]
 8009038:	f1c0 0507 	rsb	r5, r0, #7
 800903c:	ee19 ca90 	vmov	ip, s19
 8009040:	fa42 f505 	asr.w	r5, r2, r5
 8009044:	448c      	add	ip, r1
 8009046:	2d00      	cmp	r5, #0
 8009048:	ee09 ca90 	vmov	s19, ip
 800904c:	dc68      	bgt.n	8009120 <__kernel_rem_pio2f+0x25c>
 800904e:	eeb5 8a40 	vcmp.f32	s16, #0.0
 8009052:	eef1 fa10 	vmrs	APSR_nzcv, fpscr
 8009056:	f040 80b6 	bne.w	80091c6 <__kernel_rem_pio2f+0x302>
 800905a:	9a00      	ldr	r2, [sp, #0]
 800905c:	f106 3eff 	add.w	lr, r6, #4294967295	; 0xffffffff
 8009060:	4572      	cmp	r2, lr
 8009062:	dc10      	bgt.n	8009086 <__kernel_rem_pio2f+0x1c2>
 8009064:	f106 4280 	add.w	r2, r6, #1073741824	; 0x40000000
 8009068:	3a01      	subs	r2, #1
 800906a:	eb08 0282 	add.w	r2, r8, r2, lsl #2
 800906e:	2100      	movs	r1, #0
 8009070:	469c      	mov	ip, r3
 8009072:	f852 3904 	ldr.w	r3, [r2], #-4
 8009076:	4552      	cmp	r2, sl
 8009078:	ea41 0103 	orr.w	r1, r1, r3
 800907c:	d1f9      	bne.n	8009072 <__kernel_rem_pio2f+0x1ae>
 800907e:	4663      	mov	r3, ip
 8009080:	2900      	cmp	r1, #0
 8009082:	f040 80f2 	bne.w	800926a <__kernel_rem_pio2f+0x3a6>
 8009086:	9a00      	ldr	r2, [sp, #0]
 8009088:	3a01      	subs	r2, #1
 800908a:	f858 2022 	ldr.w	r2, [r8, r2, lsl #2]
 800908e:	2a00      	cmp	r2, #0
 8009090:	f040 80e6 	bne.w	8009260 <__kernel_rem_pio2f+0x39c>
 8009094:	9a05      	ldr	r2, [sp, #20]
 8009096:	f04f 0c01 	mov.w	ip, #1
 800909a:	f852 1904 	ldr.w	r1, [r2], #-4
 800909e:	f10c 0c01 	add.w	ip, ip, #1
 80090a2:	2900      	cmp	r1, #0
 80090a4:	d0f9      	beq.n	800909a <__kernel_rem_pio2f+0x1d6>
 80090a6:	f106 0b01 	add.w	fp, r6, #1
 80090aa:	44b4      	add	ip, r6
 80090ac:	46de      	mov	lr, fp
 80090ae:	9904      	ldr	r1, [sp, #16]
 80090b0:	9a03      	ldr	r2, [sp, #12]
 80090b2:	198d      	adds	r5, r1, r6
 80090b4:	445a      	add	r2, fp
 80090b6:	a91e      	add	r1, sp, #120	; 0x78
 80090b8:	f102 4280 	add.w	r2, r2, #1073741824	; 0x40000000
 80090bc:	eb01 0585 	add.w	r5, r1, r5, lsl #2
 80090c0:	9969      	ldr	r1, [sp, #420]	; 0x1a4
 80090c2:	3a01      	subs	r2, #1
 80090c4:	eb01 0682 	add.w	r6, r1, r2, lsl #2
 80090c8:	eb07 0b8b 	add.w	fp, r7, fp, lsl #2
 80090cc:	edd6 7a01 	vldr	s15, [r6, #4]
 80090d0:	ed9f 7a57 	vldr	s14, [pc, #348]	; 8009230 <__kernel_rem_pio2f+0x36c>
 80090d4:	eef8 7ae7 	vcvt.f32.s32	s15, s15
 80090d8:	f1b9 0f00 	cmp.w	r9, #0
 80090dc:	f106 0604 	add.w	r6, r6, #4
 80090e0:	4629      	mov	r1, r5
 80090e2:	edc5 7a00 	vstr	s15, [r5]
 80090e6:	f105 0504 	add.w	r5, r5, #4
 80090ea:	db09      	blt.n	8009100 <__kernel_rem_pio2f+0x23c>
 80090ec:	461a      	mov	r2, r3
 80090ee:	e001      	b.n	80090f4 <__kernel_rem_pio2f+0x230>
 80090f0:	ed71 7a01 	vldmdb	r1!, {s15}
 80090f4:	ecf2 6a01 	vldmia	r2!, {s13}
 80090f8:	42a2      	cmp	r2, r4
 80090fa:	eea6 7aa7 	vfma.f32	s14, s13, s15
 80090fe:	d1f7      	bne.n	80090f0 <__kernel_rem_pio2f+0x22c>
 8009100:	f10e 0e01 	add.w	lr, lr, #1
 8009104:	45e6      	cmp	lr, ip
 8009106:	ecab 7a01 	vstmia	fp!, {s14}
 800910a:	dddf      	ble.n	80090cc <__kernel_rem_pio2f+0x208>
 800910c:	4666      	mov	r6, ip
 800910e:	e74c      	b.n	8008faa <__kernel_rem_pio2f+0xe6>
 8009110:	f040 809c 	bne.w	800924c <__kernel_rem_pio2f+0x388>
 8009114:	1e72      	subs	r2, r6, #1
 8009116:	f858 5022 	ldr.w	r5, [r8, r2, lsl #2]
 800911a:	122d      	asrs	r5, r5, #8
 800911c:	2d00      	cmp	r5, #0
 800911e:	dd96      	ble.n	800904e <__kernel_rem_pio2f+0x18a>
 8009120:	ee19 2a90 	vmov	r2, s19
 8009124:	2e00      	cmp	r6, #0
 8009126:	f102 0201 	add.w	r2, r2, #1
 800912a:	ee09 2a90 	vmov	s19, r2
 800912e:	f340 818e 	ble.w	800944e <__kernel_rem_pio2f+0x58a>
 8009132:	f8d8 1000 	ldr.w	r1, [r8]
 8009136:	2900      	cmp	r1, #0
 8009138:	d174      	bne.n	8009224 <__kernel_rem_pio2f+0x360>
 800913a:	2e01      	cmp	r6, #1
 800913c:	d01c      	beq.n	8009178 <__kernel_rem_pio2f+0x2b4>
 800913e:	4642      	mov	r2, r8
 8009140:	f04f 0c01 	mov.w	ip, #1
 8009144:	f852 1f04 	ldr.w	r1, [r2, #4]!
 8009148:	2900      	cmp	r1, #0
 800914a:	d079      	beq.n	8009240 <__kernel_rem_pio2f+0x37c>
 800914c:	f10c 0201 	add.w	r2, ip, #1
 8009150:	f5c1 7180 	rsb	r1, r1, #256	; 0x100
 8009154:	4296      	cmp	r6, r2
 8009156:	f848 102c 	str.w	r1, [r8, ip, lsl #2]
 800915a:	dd0c      	ble.n	8009176 <__kernel_rem_pio2f+0x2b2>
 800915c:	f858 1022 	ldr.w	r1, [r8, r2, lsl #2]
 8009160:	44c3      	add	fp, r8
 8009162:	eb08 0282 	add.w	r2, r8, r2, lsl #2
 8009166:	e000      	b.n	800916a <__kernel_rem_pio2f+0x2a6>
 8009168:	6811      	ldr	r1, [r2, #0]
 800916a:	f1c1 01ff 	rsb	r1, r1, #255	; 0xff
 800916e:	f842 1b04 	str.w	r1, [r2], #4
 8009172:	455a      	cmp	r2, fp
 8009174:	d1f8      	bne.n	8009168 <__kernel_rem_pio2f+0x2a4>
 8009176:	2101      	movs	r1, #1
 8009178:	2800      	cmp	r0, #0
 800917a:	dd0c      	ble.n	8009196 <__kernel_rem_pio2f+0x2d2>
 800917c:	2801      	cmp	r0, #1
 800917e:	f000 8147 	beq.w	8009410 <__kernel_rem_pio2f+0x54c>
 8009182:	2802      	cmp	r0, #2
 8009184:	d107      	bne.n	8009196 <__kernel_rem_pio2f+0x2d2>
 8009186:	f106 3cff 	add.w	ip, r6, #4294967295	; 0xffffffff
 800918a:	f858 202c 	ldr.w	r2, [r8, ip, lsl #2]
 800918e:	f002 023f 	and.w	r2, r2, #63	; 0x3f
 8009192:	f848 202c 	str.w	r2, [r8, ip, lsl #2]
 8009196:	2d02      	cmp	r5, #2
 8009198:	f47f af59 	bne.w	800904e <__kernel_rem_pio2f+0x18a>
 800919c:	eeb7 0a00 	vmov.f32	s0, #112	; 0x3f800000  1.0
 80091a0:	ee30 8a48 	vsub.f32	s16, s0, s16
 80091a4:	2900      	cmp	r1, #0
 80091a6:	f43f af52 	beq.w	800904e <__kernel_rem_pio2f+0x18a>
 80091aa:	e9cd 0301 	strd	r0, r3, [sp, #4]
 80091ae:	f000 fa63 	bl	8009678 <scalbnf>
 80091b2:	ee38 8a40 	vsub.f32	s16, s16, s0
 80091b6:	e9dd 0301 	ldrd	r0, r3, [sp, #4]
 80091ba:	eeb5 8a40 	vcmp.f32	s16, #0.0
 80091be:	eef1 fa10 	vmrs	APSR_nzcv, fpscr
 80091c2:	f43f af4a 	beq.w	800905a <__kernel_rem_pio2f+0x196>
 80091c6:	e9dd 3208 	ldrd	r3, r2, [sp, #32]
 80091ca:	eeb0 0a48 	vmov.f32	s0, s16
 80091ce:	1a98      	subs	r0, r3, r2
 80091d0:	9602      	str	r6, [sp, #8]
 80091d2:	9501      	str	r5, [sp, #4]
 80091d4:	9e00      	ldr	r6, [sp, #0]
 80091d6:	f000 fa4f 	bl	8009678 <scalbnf>
 80091da:	ed9f 7a16 	vldr	s14, [pc, #88]	; 8009234 <__kernel_rem_pio2f+0x370>
 80091de:	eeb4 0ac7 	vcmpe.f32	s0, s14
 80091e2:	eef1 fa10 	vmrs	APSR_nzcv, fpscr
 80091e6:	e9dd 2301 	ldrd	r2, r3, [sp, #4]
 80091ea:	f2c0 8157 	blt.w	800949c <__kernel_rem_pio2f+0x5d8>
 80091ee:	eddf 7a12 	vldr	s15, [pc, #72]	; 8009238 <__kernel_rem_pio2f+0x374>
 80091f2:	9906      	ldr	r1, [sp, #24]
 80091f4:	ee60 7a27 	vmul.f32	s15, s0, s15
 80091f8:	3108      	adds	r1, #8
 80091fa:	eefd 7ae7 	vcvt.s32.f32	s15, s15
 80091fe:	9106      	str	r1, [sp, #24]
 8009200:	eef8 7ae7 	vcvt.f32.s32	s15, s15
 8009204:	1c5d      	adds	r5, r3, #1
 8009206:	eea7 0ac7 	vfms.f32	s0, s15, s14
 800920a:	eefd 7ae7 	vcvt.s32.f32	s15, s15
 800920e:	eebd 0ac0 	vcvt.s32.f32	s0, s0
 8009212:	ee10 1a10 	vmov	r1, s0
 8009216:	f848 1023 	str.w	r1, [r8, r3, lsl #2]
 800921a:	ee17 3a90 	vmov	r3, s15
 800921e:	f848 3025 	str.w	r3, [r8, r5, lsl #2]
 8009222:	e039      	b.n	8009298 <__kernel_rem_pio2f+0x3d4>
 8009224:	2201      	movs	r2, #1
 8009226:	f04f 0c00 	mov.w	ip, #0
 800922a:	e791      	b.n	8009150 <__kernel_rem_pio2f+0x28c>
 800922c:	08010a00 	.word	0x08010a00
 8009230:	00000000 	.word	0x00000000
 8009234:	43800000 	.word	0x43800000
 8009238:	3b800000 	.word	0x3b800000
 800923c:	3fc90000 	.word	0x3fc90000
 8009240:	f10c 0c01 	add.w	ip, ip, #1
 8009244:	45b4      	cmp	ip, r6
 8009246:	f47f af7d 	bne.w	8009144 <__kernel_rem_pio2f+0x280>
 800924a:	e795      	b.n	8009178 <__kernel_rem_pio2f+0x2b4>
 800924c:	eef6 7a00 	vmov.f32	s15, #96	; 0x3f000000  0.5
 8009250:	eeb4 8ae7 	vcmpe.f32	s16, s15
 8009254:	eef1 fa10 	vmrs	APSR_nzcv, fpscr
 8009258:	f280 80e8 	bge.w	800942c <__kernel_rem_pio2f+0x568>
 800925c:	2500      	movs	r5, #0
 800925e:	e6f6      	b.n	800904e <__kernel_rem_pio2f+0x18a>
 8009260:	f106 0b01 	add.w	fp, r6, #1
 8009264:	46de      	mov	lr, fp
 8009266:	46dc      	mov	ip, fp
 8009268:	e721      	b.n	80090ae <__kernel_rem_pio2f+0x1ea>
 800926a:	9806      	ldr	r0, [sp, #24]
 800926c:	f858 102e 	ldr.w	r1, [r8, lr, lsl #2]
 8009270:	3808      	subs	r0, #8
 8009272:	4633      	mov	r3, r6
 8009274:	462a      	mov	r2, r5
 8009276:	9e00      	ldr	r6, [sp, #0]
 8009278:	9006      	str	r0, [sp, #24]
 800927a:	4675      	mov	r5, lr
 800927c:	b961      	cbnz	r1, 8009298 <__kernel_rem_pio2f+0x3d4>
 800927e:	f103 4380 	add.w	r3, r3, #1073741824	; 0x40000000
 8009282:	3b02      	subs	r3, #2
 8009284:	eb08 0383 	add.w	r3, r8, r3, lsl #2
 8009288:	4601      	mov	r1, r0
 800928a:	f853 0904 	ldr.w	r0, [r3], #-4
 800928e:	3d01      	subs	r5, #1
 8009290:	3908      	subs	r1, #8
 8009292:	2800      	cmp	r0, #0
 8009294:	d0f9      	beq.n	800928a <__kernel_rem_pio2f+0x3c6>
 8009296:	9106      	str	r1, [sp, #24]
 8009298:	9806      	ldr	r0, [sp, #24]
 800929a:	9200      	str	r2, [sp, #0]
 800929c:	eeb7 0a00 	vmov.f32	s0, #112	; 0x3f800000  1.0
 80092a0:	f000 f9ea 	bl	8009678 <scalbnf>
 80092a4:	2d00      	cmp	r5, #0
 80092a6:	9a00      	ldr	r2, [sp, #0]
 80092a8:	f2c0 811e 	blt.w	80094e8 <__kernel_rem_pio2f+0x624>
 80092ac:	ea4f 0e85 	mov.w	lr, r5, lsl #2
 80092b0:	ab46      	add	r3, sp, #280	; 0x118
 80092b2:	eb03 070e 	add.w	r7, r3, lr
 80092b6:	f10e 0c04 	add.w	ip, lr, #4
 80092ba:	ed1f 7a21 	vldr	s14, [pc, #-132]	; 8009238 <__kernel_rem_pio2f+0x374>
 80092be:	eb08 030c 	add.w	r3, r8, ip
 80092c2:	1d39      	adds	r1, r7, #4
 80092c4:	ed73 7a01 	vldmdb	r3!, {s15}
 80092c8:	eef8 7ae7 	vcvt.f32.s32	s15, s15
 80092cc:	4543      	cmp	r3, r8
 80092ce:	ee67 7a80 	vmul.f32	s15, s15, s0
 80092d2:	ee20 0a07 	vmul.f32	s0, s0, s14
 80092d6:	ed61 7a01 	vstmdb	r1!, {s15}
 80092da:	d1f3      	bne.n	80092c4 <__kernel_rem_pio2f+0x400>
 80092dc:	2e00      	cmp	r6, #0
 80092de:	ed1f 6a29 	vldr	s12, [pc, #-164]	; 800923c <__kernel_rem_pio2f+0x378>
 80092e2:	f04f 0400 	mov.w	r4, #0
 80092e6:	db20      	blt.n	800932a <__kernel_rem_pio2f+0x466>
 80092e8:	488f      	ldr	r0, [pc, #572]	; (8009528 <__kernel_rem_pio2f+0x664>)
 80092ea:	eddf 7a90 	vldr	s15, [pc, #576]	; 800952c <__kernel_rem_pio2f+0x668>
 80092ee:	4639      	mov	r1, r7
 80092f0:	eeb0 7a46 	vmov.f32	s14, s12
 80092f4:	2300      	movs	r3, #0
 80092f6:	e003      	b.n	8009300 <__kernel_rem_pio2f+0x43c>
 80092f8:	429c      	cmp	r4, r3
 80092fa:	db08      	blt.n	800930e <__kernel_rem_pio2f+0x44a>
 80092fc:	ecb0 7a01 	vldmia	r0!, {s14}
 8009300:	ecf1 6a01 	vldmia	r1!, {s13}
 8009304:	3301      	adds	r3, #1
 8009306:	429e      	cmp	r6, r3
 8009308:	eee6 7a87 	vfma.f32	s15, s13, s14
 800930c:	daf4      	bge.n	80092f8 <__kernel_rem_pio2f+0x434>
 800930e:	ab5a      	add	r3, sp, #360	; 0x168
 8009310:	eb03 0384 	add.w	r3, r3, r4, lsl #2
 8009314:	42a5      	cmp	r5, r4
 8009316:	ed43 7a28 	vstr	s15, [r3, #-160]	; 0xffffff60
 800931a:	f1a7 0704 	sub.w	r7, r7, #4
 800931e:	f104 0301 	add.w	r3, r4, #1
 8009322:	d005      	beq.n	8009330 <__kernel_rem_pio2f+0x46c>
 8009324:	2e00      	cmp	r6, #0
 8009326:	461c      	mov	r4, r3
 8009328:	dade      	bge.n	80092e8 <__kernel_rem_pio2f+0x424>
 800932a:	eddf 7a80 	vldr	s15, [pc, #512]	; 800952c <__kernel_rem_pio2f+0x668>
 800932e:	e7ee      	b.n	800930e <__kernel_rem_pio2f+0x44a>
 8009330:	9968      	ldr	r1, [sp, #416]	; 0x1a0
 8009332:	2902      	cmp	r1, #2
 8009334:	dc1c      	bgt.n	8009370 <__kernel_rem_pio2f+0x4ac>
 8009336:	2900      	cmp	r1, #0
 8009338:	f300 808b 	bgt.w	8009452 <__kernel_rem_pio2f+0x58e>
 800933c:	d10f      	bne.n	800935e <__kernel_rem_pio2f+0x49a>
 800933e:	ab32      	add	r3, sp, #200	; 0xc8
 8009340:	eddf 7a7a 	vldr	s15, [pc, #488]	; 800952c <__kernel_rem_pio2f+0x668>
 8009344:	449c      	add	ip, r3
 8009346:	ed3c 7a01 	vldmdb	ip!, {s14}
 800934a:	4563      	cmp	r3, ip
 800934c:	ee77 7a87 	vadd.f32	s15, s15, s14
 8009350:	d1f9      	bne.n	8009346 <__kernel_rem_pio2f+0x482>
 8009352:	b10a      	cbz	r2, 8009358 <__kernel_rem_pio2f+0x494>
 8009354:	eef1 7a67 	vneg.f32	s15, s15
 8009358:	9b07      	ldr	r3, [sp, #28]
 800935a:	edc3 7a00 	vstr	s15, [r3]
 800935e:	ee19 3a90 	vmov	r3, s19
 8009362:	f003 0007 	and.w	r0, r3, #7
 8009366:	b05b      	add	sp, #364	; 0x16c
 8009368:	ecbd 8b04 	vpop	{d8-d9}
 800936c:	e8bd 8ff0 	ldmia.w	sp!, {r4, r5, r6, r7, r8, r9, sl, fp, pc}
 8009370:	9b68      	ldr	r3, [sp, #416]	; 0x1a0
 8009372:	2b03      	cmp	r3, #3
 8009374:	d1f3      	bne.n	800935e <__kernel_rem_pio2f+0x49a>
 8009376:	2d00      	cmp	r5, #0
 8009378:	f000 80cb 	beq.w	8009512 <__kernel_rem_pio2f+0x64e>
 800937c:	ab5a      	add	r3, sp, #360	; 0x168
 800937e:	4473      	add	r3, lr
 8009380:	a932      	add	r1, sp, #200	; 0xc8
 8009382:	ed13 7a28 	vldr	s14, [r3, #-160]	; 0xffffff60
 8009386:	eb01 0385 	add.w	r3, r1, r5, lsl #2
 800938a:	ed73 7a01 	vldmdb	r3!, {s15}
 800938e:	eef0 6a47 	vmov.f32	s13, s14
 8009392:	ee37 7a27 	vadd.f32	s14, s14, s15
 8009396:	4299      	cmp	r1, r3
 8009398:	ee77 7ac7 	vsub.f32	s15, s15, s14
 800939c:	ed83 7a00 	vstr	s14, [r3]
 80093a0:	ee77 7aa6 	vadd.f32	s15, s15, s13
 80093a4:	edc3 7a01 	vstr	s15, [r3, #4]
 80093a8:	d1ef      	bne.n	800938a <__kernel_rem_pio2f+0x4c6>
 80093aa:	2d01      	cmp	r5, #1
 80093ac:	f340 80b1 	ble.w	8009512 <__kernel_rem_pio2f+0x64e>
 80093b0:	f105 4580 	add.w	r5, r5, #1073741824	; 0x40000000
 80093b4:	ab5a      	add	r3, sp, #360	; 0x168
 80093b6:	3d01      	subs	r5, #1
 80093b8:	449e      	add	lr, r3
 80093ba:	00ad      	lsls	r5, r5, #2
 80093bc:	1d2b      	adds	r3, r5, #4
 80093be:	ed1e 7a28 	vldr	s14, [lr, #-160]	; 0xffffff60
 80093c2:	440b      	add	r3, r1
 80093c4:	a833      	add	r0, sp, #204	; 0xcc
 80093c6:	ed73 7a01 	vldmdb	r3!, {s15}
 80093ca:	eef0 6a47 	vmov.f32	s13, s14
 80093ce:	ee37 7a27 	vadd.f32	s14, s14, s15
 80093d2:	4298      	cmp	r0, r3
 80093d4:	ee77 7ac7 	vsub.f32	s15, s15, s14
 80093d8:	ed83 7a00 	vstr	s14, [r3]
 80093dc:	ee77 7aa6 	vadd.f32	s15, s15, s13
 80093e0:	edc3 7a01 	vstr	s15, [r3, #4]
 80093e4:	d1ef      	bne.n	80093c6 <__kernel_rem_pio2f+0x502>
 80093e6:	3508      	adds	r5, #8
 80093e8:	eddf 7a50 	vldr	s15, [pc, #320]	; 800952c <__kernel_rem_pio2f+0x668>
 80093ec:	194b      	adds	r3, r1, r5
 80093ee:	3108      	adds	r1, #8
 80093f0:	ed33 7a01 	vldmdb	r3!, {s14}
 80093f4:	4299      	cmp	r1, r3
 80093f6:	ee77 7a87 	vadd.f32	s15, s15, s14
 80093fa:	d1f9      	bne.n	80093f0 <__kernel_rem_pio2f+0x52c>
 80093fc:	2a00      	cmp	r2, #0
 80093fe:	d155      	bne.n	80094ac <__kernel_rem_pio2f+0x5e8>
 8009400:	9907      	ldr	r1, [sp, #28]
 8009402:	9a32      	ldr	r2, [sp, #200]	; 0xc8
 8009404:	9b33      	ldr	r3, [sp, #204]	; 0xcc
 8009406:	edc1 7a02 	vstr	s15, [r1, #8]
 800940a:	600a      	str	r2, [r1, #0]
 800940c:	604b      	str	r3, [r1, #4]
 800940e:	e7a6      	b.n	800935e <__kernel_rem_pio2f+0x49a>
 8009410:	f106 3cff 	add.w	ip, r6, #4294967295	; 0xffffffff
 8009414:	f858 202c 	ldr.w	r2, [r8, ip, lsl #2]
 8009418:	f002 027f 	and.w	r2, r2, #127	; 0x7f
 800941c:	f848 202c 	str.w	r2, [r8, ip, lsl #2]
 8009420:	e6b9      	b.n	8009196 <__kernel_rem_pio2f+0x2d2>
 8009422:	2308      	movs	r3, #8
 8009424:	9308      	str	r3, [sp, #32]
 8009426:	2300      	movs	r3, #0
 8009428:	9303      	str	r3, [sp, #12]
 800942a:	e566      	b.n	8008efa <__kernel_rem_pio2f+0x36>
 800942c:	ee19 2a90 	vmov	r2, s19
 8009430:	2e00      	cmp	r6, #0
 8009432:	f102 0201 	add.w	r2, r2, #1
 8009436:	ee09 2a90 	vmov	s19, r2
 800943a:	bfc8      	it	gt
 800943c:	2502      	movgt	r5, #2
 800943e:	f73f ae78 	bgt.w	8009132 <__kernel_rem_pio2f+0x26e>
 8009442:	eef7 7a00 	vmov.f32	s15, #112	; 0x3f800000  1.0
 8009446:	ee37 8ac8 	vsub.f32	s16, s15, s16
 800944a:	2502      	movs	r5, #2
 800944c:	e5ff      	b.n	800904e <__kernel_rem_pio2f+0x18a>
 800944e:	2100      	movs	r1, #0
 8009450:	e692      	b.n	8009178 <__kernel_rem_pio2f+0x2b4>
 8009452:	a932      	add	r1, sp, #200	; 0xc8
 8009454:	eddf 7a35 	vldr	s15, [pc, #212]	; 800952c <__kernel_rem_pio2f+0x668>
 8009458:	eb01 0383 	add.w	r3, r1, r3, lsl #2
 800945c:	ed33 7a01 	vldmdb	r3!, {s14}
 8009460:	4299      	cmp	r1, r3
 8009462:	ee77 7a87 	vadd.f32	s15, s15, s14
 8009466:	d1f9      	bne.n	800945c <__kernel_rem_pio2f+0x598>
 8009468:	bb92      	cbnz	r2, 80094d0 <__kernel_rem_pio2f+0x60c>
 800946a:	ed9d 7a32 	vldr	s14, [sp, #200]	; 0xc8
 800946e:	9b07      	ldr	r3, [sp, #28]
 8009470:	2d00      	cmp	r5, #0
 8009472:	edc3 7a00 	vstr	s15, [r3]
 8009476:	ee77 7a67 	vsub.f32	s15, s14, s15
 800947a:	dd0b      	ble.n	8009494 <__kernel_rem_pio2f+0x5d0>
 800947c:	a933      	add	r1, sp, #204	; 0xcc
 800947e:	2301      	movs	r3, #1
 8009480:	ecb1 7a01 	vldmia	r1!, {s14}
 8009484:	3301      	adds	r3, #1
 8009486:	429d      	cmp	r5, r3
 8009488:	ee77 7a87 	vadd.f32	s15, s15, s14
 800948c:	daf8      	bge.n	8009480 <__kernel_rem_pio2f+0x5bc>
 800948e:	b10a      	cbz	r2, 8009494 <__kernel_rem_pio2f+0x5d0>
 8009490:	eef1 7a67 	vneg.f32	s15, s15
 8009494:	9b07      	ldr	r3, [sp, #28]
 8009496:	edc3 7a01 	vstr	s15, [r3, #4]
 800949a:	e760      	b.n	800935e <__kernel_rem_pio2f+0x49a>
 800949c:	eebd 0ac0 	vcvt.s32.f32	s0, s0
 80094a0:	461d      	mov	r5, r3
 80094a2:	ee10 1a10 	vmov	r1, s0
 80094a6:	f848 1023 	str.w	r1, [r8, r3, lsl #2]
 80094aa:	e6f5      	b.n	8009298 <__kernel_rem_pio2f+0x3d4>
 80094ac:	eddd 6a32 	vldr	s13, [sp, #200]	; 0xc8
 80094b0:	ed9d 7a33 	vldr	s14, [sp, #204]	; 0xcc
 80094b4:	9b07      	ldr	r3, [sp, #28]
 80094b6:	eef1 7a67 	vneg.f32	s15, s15
 80094ba:	eef1 6a66 	vneg.f32	s13, s13
 80094be:	eeb1 7a47 	vneg.f32	s14, s14
 80094c2:	edc3 7a02 	vstr	s15, [r3, #8]
 80094c6:	edc3 6a00 	vstr	s13, [r3]
 80094ca:	ed83 7a01 	vstr	s14, [r3, #4]
 80094ce:	e746      	b.n	800935e <__kernel_rem_pio2f+0x49a>
 80094d0:	eddd 6a32 	vldr	s13, [sp, #200]	; 0xc8
 80094d4:	9b07      	ldr	r3, [sp, #28]
 80094d6:	eeb1 7a67 	vneg.f32	s14, s15
 80094da:	2d00      	cmp	r5, #0
 80094dc:	ee76 7ae7 	vsub.f32	s15, s13, s15
 80094e0:	ed83 7a00 	vstr	s14, [r3]
 80094e4:	dcca      	bgt.n	800947c <__kernel_rem_pio2f+0x5b8>
 80094e6:	e7d3      	b.n	8009490 <__kernel_rem_pio2f+0x5cc>
 80094e8:	9b68      	ldr	r3, [sp, #416]	; 0x1a0
 80094ea:	2b02      	cmp	r3, #2
 80094ec:	dc0d      	bgt.n	800950a <__kernel_rem_pio2f+0x646>
 80094ee:	2b00      	cmp	r3, #0
 80094f0:	dc14      	bgt.n	800951c <__kernel_rem_pio2f+0x658>
 80094f2:	f47f af34 	bne.w	800935e <__kernel_rem_pio2f+0x49a>
 80094f6:	eddf 7a0d 	vldr	s15, [pc, #52]	; 800952c <__kernel_rem_pio2f+0x668>
 80094fa:	2a00      	cmp	r2, #0
 80094fc:	f43f af2c 	beq.w	8009358 <__kernel_rem_pio2f+0x494>
 8009500:	e728      	b.n	8009354 <__kernel_rem_pio2f+0x490>
 8009502:	9b04      	ldr	r3, [sp, #16]
 8009504:	ea4f 0c83 	mov.w	ip, r3, lsl #2
 8009508:	e53c      	b.n	8008f84 <__kernel_rem_pio2f+0xc0>
 800950a:	9b68      	ldr	r3, [sp, #416]	; 0x1a0
 800950c:	2b03      	cmp	r3, #3
 800950e:	f47f af26 	bne.w	800935e <__kernel_rem_pio2f+0x49a>
 8009512:	eddf 7a06 	vldr	s15, [pc, #24]	; 800952c <__kernel_rem_pio2f+0x668>
 8009516:	2a00      	cmp	r2, #0
 8009518:	d1c8      	bne.n	80094ac <__kernel_rem_pio2f+0x5e8>
 800951a:	e771      	b.n	8009400 <__kernel_rem_pio2f+0x53c>
 800951c:	eddf 7a03 	vldr	s15, [pc, #12]	; 800952c <__kernel_rem_pio2f+0x668>
 8009520:	2a00      	cmp	r2, #0
 8009522:	d0a2      	beq.n	800946a <__kernel_rem_pio2f+0x5a6>
 8009524:	e7d4      	b.n	80094d0 <__kernel_rem_pio2f+0x60c>
 8009526:	bf00      	nop
 8009528:	080109d8 	.word	0x080109d8
 800952c:	00000000 	.word	0x00000000

08009530 <__kernel_sinf>:
 8009530:	ee10 3a10 	vmov	r3, s0
 8009534:	f023 4300 	bic.w	r3, r3, #2147483648	; 0x80000000
 8009538:	f1b3 5f48 	cmp.w	r3, #838860800	; 0x32000000
 800953c:	da04      	bge.n	8009548 <__kernel_sinf+0x18>
 800953e:	eefd 7ac0 	vcvt.s32.f32	s15, s0
 8009542:	ee17 3a90 	vmov	r3, s15
 8009546:	b35b      	cbz	r3, 80095a0 <__kernel_sinf+0x70>
 8009548:	ee60 7a00 	vmul.f32	s15, s0, s0
 800954c:	ed9f 5a15 	vldr	s10, [pc, #84]	; 80095a4 <__kernel_sinf+0x74>
 8009550:	eddf 5a15 	vldr	s11, [pc, #84]	; 80095a8 <__kernel_sinf+0x78>
 8009554:	ed9f 6a15 	vldr	s12, [pc, #84]	; 80095ac <__kernel_sinf+0x7c>
 8009558:	eddf 6a15 	vldr	s13, [pc, #84]	; 80095b0 <__kernel_sinf+0x80>
 800955c:	ed9f 7a15 	vldr	s14, [pc, #84]	; 80095b4 <__kernel_sinf+0x84>
 8009560:	eee7 5a85 	vfma.f32	s11, s15, s10
 8009564:	ee20 5a27 	vmul.f32	s10, s0, s15
 8009568:	eea5 6aa7 	vfma.f32	s12, s11, s15
 800956c:	eee6 6a27 	vfma.f32	s13, s12, s15
 8009570:	eea6 7aa7 	vfma.f32	s14, s13, s15
 8009574:	b930      	cbnz	r0, 8009584 <__kernel_sinf+0x54>
 8009576:	eddf 6a10 	vldr	s13, [pc, #64]	; 80095b8 <__kernel_sinf+0x88>
 800957a:	eee7 6a87 	vfma.f32	s13, s15, s14
 800957e:	eea6 0a85 	vfma.f32	s0, s13, s10
 8009582:	4770      	bx	lr
 8009584:	ee27 7a45 	vnmul.f32	s14, s14, s10
 8009588:	eef6 6a00 	vmov.f32	s13, #96	; 0x3f000000  0.5
 800958c:	eea0 7aa6 	vfma.f32	s14, s1, s13
 8009590:	eddf 6a0a 	vldr	s13, [pc, #40]	; 80095bc <__kernel_sinf+0x8c>
 8009594:	eed7 0a27 	vfnms.f32	s1, s14, s15
 8009598:	eee5 0a26 	vfma.f32	s1, s10, s13
 800959c:	ee30 0a60 	vsub.f32	s0, s0, s1
 80095a0:	4770      	bx	lr
 80095a2:	bf00      	nop
 80095a4:	2f2ec9d3 	.word	0x2f2ec9d3
 80095a8:	b2d72f34 	.word	0xb2d72f34
 80095ac:	3638ef1b 	.word	0x3638ef1b
 80095b0:	b9500d01 	.word	0xb9500d01
 80095b4:	3c088889 	.word	0x3c088889
 80095b8:	be2aaaab 	.word	0xbe2aaaab
 80095bc:	3e2aaaab 	.word	0x3e2aaaab

080095c0 <fabsf>:
 80095c0:	ee10 3a10 	vmov	r3, s0
 80095c4:	f023 4300 	bic.w	r3, r3, #2147483648	; 0x80000000
 80095c8:	ee00 3a10 	vmov	s0, r3
 80095cc:	4770      	bx	lr
 80095ce:	bf00      	nop

080095d0 <finitef>:
 80095d0:	b082      	sub	sp, #8
 80095d2:	ed8d 0a01 	vstr	s0, [sp, #4]
 80095d6:	9801      	ldr	r0, [sp, #4]
 80095d8:	f020 4000 	bic.w	r0, r0, #2147483648	; 0x80000000
 80095dc:	f1b0 4fff 	cmp.w	r0, #2139095040	; 0x7f800000
 80095e0:	bfac      	ite	ge
 80095e2:	2000      	movge	r0, #0
 80095e4:	2001      	movlt	r0, #1
 80095e6:	b002      	add	sp, #8
 80095e8:	4770      	bx	lr
 80095ea:	bf00      	nop

080095ec <floorf>:
 80095ec:	ee10 2a10 	vmov	r2, s0
 80095f0:	f3c2 53c7 	ubfx	r3, r2, #23, #8
 80095f4:	3b7f      	subs	r3, #127	; 0x7f
 80095f6:	2b16      	cmp	r3, #22
 80095f8:	f022 4100 	bic.w	r1, r2, #2147483648	; 0x80000000
 80095fc:	dc1a      	bgt.n	8009634 <floorf+0x48>
 80095fe:	2b00      	cmp	r3, #0
 8009600:	db1e      	blt.n	8009640 <floorf+0x54>
 8009602:	491a      	ldr	r1, [pc, #104]	; (800966c <floorf+0x80>)
 8009604:	4119      	asrs	r1, r3
 8009606:	420a      	tst	r2, r1
 8009608:	d027      	beq.n	800965a <floorf+0x6e>
 800960a:	eddf 7a19 	vldr	s15, [pc, #100]	; 8009670 <floorf+0x84>
 800960e:	ee70 7a27 	vadd.f32	s15, s0, s15
 8009612:	eef5 7ac0 	vcmpe.f32	s15, #0.0
 8009616:	eef1 fa10 	vmrs	APSR_nzcv, fpscr
 800961a:	dd1e      	ble.n	800965a <floorf+0x6e>
 800961c:	2a00      	cmp	r2, #0
 800961e:	da04      	bge.n	800962a <floorf+0x3e>
 8009620:	f44f 0000 	mov.w	r0, #8388608	; 0x800000
 8009624:	fa40 f303 	asr.w	r3, r0, r3
 8009628:	441a      	add	r2, r3
 800962a:	ea22 0301 	bic.w	r3, r2, r1
 800962e:	ee00 3a10 	vmov	s0, r3
 8009632:	4770      	bx	lr
 8009634:	f1b1 4fff 	cmp.w	r1, #2139095040	; 0x7f800000
 8009638:	d30f      	bcc.n	800965a <floorf+0x6e>
 800963a:	ee30 0a00 	vadd.f32	s0, s0, s0
 800963e:	4770      	bx	lr
 8009640:	eddf 7a0b 	vldr	s15, [pc, #44]	; 8009670 <floorf+0x84>
 8009644:	ee70 7a27 	vadd.f32	s15, s0, s15
 8009648:	eef5 7ac0 	vcmpe.f32	s15, #0.0
 800964c:	eef1 fa10 	vmrs	APSR_nzcv, fpscr
 8009650:	dd03      	ble.n	800965a <floorf+0x6e>
 8009652:	2a00      	cmp	r2, #0
 8009654:	db02      	blt.n	800965c <floorf+0x70>
 8009656:	ed9f 0a07 	vldr	s0, [pc, #28]	; 8009674 <floorf+0x88>
 800965a:	4770      	bx	lr
 800965c:	2900      	cmp	r1, #0
 800965e:	eeff 7a00 	vmov.f32	s15, #240	; 0xbf800000 -1.0
 8009662:	bf18      	it	ne
 8009664:	eeb0 0a67 	vmovne.f32	s0, s15
 8009668:	4770      	bx	lr
 800966a:	bf00      	nop
 800966c:	007fffff 	.word	0x007fffff
 8009670:	7149f2ca 	.word	0x7149f2ca
 8009674:	00000000 	.word	0x00000000

08009678 <scalbnf>:
 8009678:	b082      	sub	sp, #8
 800967a:	ed8d 0a01 	vstr	s0, [sp, #4]
 800967e:	9b01      	ldr	r3, [sp, #4]
 8009680:	f033 4200 	bics.w	r2, r3, #2147483648	; 0x80000000
 8009684:	d02a      	beq.n	80096dc <scalbnf+0x64>
 8009686:	f1b2 4fff 	cmp.w	r2, #2139095040	; 0x7f800000
 800968a:	d223      	bcs.n	80096d4 <scalbnf+0x5c>
 800968c:	f013 4fff 	tst.w	r3, #2139095040	; 0x7f800000
 8009690:	d128      	bne.n	80096e4 <scalbnf+0x6c>
 8009692:	ed9d 7a01 	vldr	s14, [sp, #4]
 8009696:	eddf 7a2a 	vldr	s15, [pc, #168]	; 8009740 <scalbnf+0xc8>
 800969a:	4b2a      	ldr	r3, [pc, #168]	; (8009744 <scalbnf+0xcc>)
 800969c:	ee67 7a27 	vmul.f32	s15, s14, s15
 80096a0:	4298      	cmp	r0, r3
 80096a2:	edcd 7a01 	vstr	s15, [sp, #4]
 80096a6:	db37      	blt.n	8009718 <scalbnf+0xa0>
 80096a8:	9b01      	ldr	r3, [sp, #4]
 80096aa:	f3c3 52c7 	ubfx	r2, r3, #23, #8
 80096ae:	3a19      	subs	r2, #25
 80096b0:	4402      	add	r2, r0
 80096b2:	2afe      	cmp	r2, #254	; 0xfe
 80096b4:	dd1a      	ble.n	80096ec <scalbnf+0x74>
 80096b6:	ed9f 0a24 	vldr	s0, [pc, #144]	; 8009748 <scalbnf+0xd0>
 80096ba:	ed9f 7a24 	vldr	s14, [pc, #144]	; 800974c <scalbnf+0xd4>
 80096be:	9b01      	ldr	r3, [sp, #4]
 80096c0:	2b00      	cmp	r3, #0
 80096c2:	eef0 7a40 	vmov.f32	s15, s0
 80096c6:	bfb8      	it	lt
 80096c8:	eeb0 0a47 	vmovlt.f32	s0, s14
 80096cc:	ee20 0a27 	vmul.f32	s0, s0, s15
 80096d0:	b002      	add	sp, #8
 80096d2:	4770      	bx	lr
 80096d4:	ee30 0a00 	vadd.f32	s0, s0, s0
 80096d8:	b002      	add	sp, #8
 80096da:	4770      	bx	lr
 80096dc:	ed9d 0a01 	vldr	s0, [sp, #4]
 80096e0:	b002      	add	sp, #8
 80096e2:	4770      	bx	lr
 80096e4:	0dd2      	lsrs	r2, r2, #23
 80096e6:	4402      	add	r2, r0
 80096e8:	2afe      	cmp	r2, #254	; 0xfe
 80096ea:	dce4      	bgt.n	80096b6 <scalbnf+0x3e>
 80096ec:	2a00      	cmp	r2, #0
 80096ee:	dc0b      	bgt.n	8009708 <scalbnf+0x90>
 80096f0:	f112 0f16 	cmn.w	r2, #22
 80096f4:	da17      	bge.n	8009726 <scalbnf+0xae>
 80096f6:	f24c 3350 	movw	r3, #50000	; 0xc350
 80096fa:	4298      	cmp	r0, r3
 80096fc:	dcdb      	bgt.n	80096b6 <scalbnf+0x3e>
 80096fe:	ed9f 0a14 	vldr	s0, [pc, #80]	; 8009750 <scalbnf+0xd8>
 8009702:	ed9f 7a14 	vldr	s14, [pc, #80]	; 8009754 <scalbnf+0xdc>
 8009706:	e7da      	b.n	80096be <scalbnf+0x46>
 8009708:	f023 43ff 	bic.w	r3, r3, #2139095040	; 0x7f800000
 800970c:	ea43 53c2 	orr.w	r3, r3, r2, lsl #23
 8009710:	ee00 3a10 	vmov	s0, r3
 8009714:	b002      	add	sp, #8
 8009716:	4770      	bx	lr
 8009718:	ed9f 0a0d 	vldr	s0, [pc, #52]	; 8009750 <scalbnf+0xd8>
 800971c:	eddd 7a01 	vldr	s15, [sp, #4]
 8009720:	ee27 0a80 	vmul.f32	s0, s15, s0
 8009724:	e7d8      	b.n	80096d8 <scalbnf+0x60>
 8009726:	3219      	adds	r2, #25
 8009728:	f023 43ff 	bic.w	r3, r3, #2139095040	; 0x7f800000
 800972c:	ea43 53c2 	orr.w	r3, r3, r2, lsl #23
 8009730:	eddf 7a09 	vldr	s15, [pc, #36]	; 8009758 <scalbnf+0xe0>
 8009734:	ee07 3a10 	vmov	s14, r3
 8009738:	ee27 0a27 	vmul.f32	s0, s14, s15
 800973c:	e7cc      	b.n	80096d8 <scalbnf+0x60>
 800973e:	bf00      	nop
 8009740:	4c000000 	.word	0x4c000000
 8009744:	ffff3cb0 	.word	0xffff3cb0
 8009748:	7149f2ca 	.word	0x7149f2ca
 800974c:	f149f2ca 	.word	0xf149f2ca
 8009750:	0da24260 	.word	0x0da24260
 8009754:	8da24260 	.word	0x8da24260
 8009758:	33000000 	.word	0x33000000

0800975c <cabsf>:
 800975c:	b508      	push	{r3, lr}
 800975e:	ed2d 8b02 	vpush	{d8}
 8009762:	eef0 8a40 	vmov.f32	s17, s0
 8009766:	eeb0 8a60 	vmov.f32	s16, s1
 800976a:	f000 f817 	bl	800979c <crealf>
 800976e:	eef0 0a48 	vmov.f32	s1, s16
 8009772:	eeb0 8a40 	vmov.f32	s16, s0
 8009776:	eeb0 0a68 	vmov.f32	s0, s17
 800977a:	f000 f80b 	bl	8009794 <cimagf>
 800977e:	eef0 0a40 	vmov.f32	s1, s0
 8009782:	eeb0 0a48 	vmov.f32	s0, s16
 8009786:	ecbd 8b02 	vpop	{d8}
 800978a:	e8bd 4008 	ldmia.w	sp!, {r3, lr}
 800978e:	f000 b807 	b.w	80097a0 <hypotf>
 8009792:	bf00      	nop

08009794 <cimagf>:
 8009794:	eeb0 0a60 	vmov.f32	s0, s1
 8009798:	4770      	bx	lr
 800979a:	bf00      	nop

0800979c <crealf>:
 800979c:	4770      	bx	lr
 800979e:	bf00      	nop

080097a0 <hypotf>:
 80097a0:	b508      	push	{r3, lr}
 80097a2:	ed2d 8b04 	vpush	{d8-d9}
 80097a6:	eef0 8a40 	vmov.f32	s17, s0
 80097aa:	eeb0 9a60 	vmov.f32	s18, s1
 80097ae:	f000 f827 	bl	8009800 <__ieee754_hypotf>
 80097b2:	4b11      	ldr	r3, [pc, #68]	; (80097f8 <hypotf+0x58>)
 80097b4:	f993 3000 	ldrsb.w	r3, [r3]
 80097b8:	3301      	adds	r3, #1
 80097ba:	eeb0 8a40 	vmov.f32	s16, s0
 80097be:	d002      	beq.n	80097c6 <hypotf+0x26>
 80097c0:	f7ff ff06 	bl	80095d0 <finitef>
 80097c4:	b120      	cbz	r0, 80097d0 <hypotf+0x30>
 80097c6:	eeb0 0a48 	vmov.f32	s0, s16
 80097ca:	ecbd 8b04 	vpop	{d8-d9}
 80097ce:	bd08      	pop	{r3, pc}
 80097d0:	eeb0 0a68 	vmov.f32	s0, s17
 80097d4:	f7ff fefc 	bl	80095d0 <finitef>
 80097d8:	2800      	cmp	r0, #0
 80097da:	d0f4      	beq.n	80097c6 <hypotf+0x26>
 80097dc:	eeb0 0a49 	vmov.f32	s0, s18
 80097e0:	f7ff fef6 	bl	80095d0 <finitef>
 80097e4:	2800      	cmp	r0, #0
 80097e6:	d0ee      	beq.n	80097c6 <hypotf+0x26>
 80097e8:	f000 f8c2 	bl	8009970 <__errno>
 80097ec:	2322      	movs	r3, #34	; 0x22
 80097ee:	ed9f 8a03 	vldr	s16, [pc, #12]	; 80097fc <hypotf+0x5c>
 80097f2:	6003      	str	r3, [r0, #0]
 80097f4:	e7e7      	b.n	80097c6 <hypotf+0x26>
 80097f6:	bf00      	nop
 80097f8:	20000027 	.word	0x20000027
 80097fc:	7f800000 	.word	0x7f800000

08009800 <__ieee754_hypotf>:
 8009800:	b510      	push	{r4, lr}
 8009802:	b082      	sub	sp, #8
 8009804:	ed8d 0a00 	vstr	s0, [sp]
 8009808:	edcd 0a01 	vstr	s1, [sp, #4]
 800980c:	e9dd 3200 	ldrd	r3, r2, [sp]
 8009810:	f023 4300 	bic.w	r3, r3, #2147483648	; 0x80000000
 8009814:	f022 4200 	bic.w	r2, r2, #2147483648	; 0x80000000
 8009818:	4293      	cmp	r3, r2
 800981a:	da02      	bge.n	8009822 <__ieee754_hypotf+0x22>
 800981c:	4619      	mov	r1, r3
 800981e:	4613      	mov	r3, r2
 8009820:	460a      	mov	r2, r1
 8009822:	1a99      	subs	r1, r3, r2
 8009824:	f1b1 6f70 	cmp.w	r1, #251658240	; 0xf000000
 8009828:	ee00 3a10 	vmov	s0, r3
 800982c:	ee07 2a10 	vmov	s14, r2
 8009830:	dc41      	bgt.n	80098b6 <__ieee754_hypotf+0xb6>
 8009832:	f1b3 4fb1 	cmp.w	r3, #1484783616	; 0x58800000
 8009836:	dc31      	bgt.n	800989c <__ieee754_hypotf+0x9c>
 8009838:	2400      	movs	r4, #0
 800983a:	f1b2 5f1a 	cmp.w	r2, #645922816	; 0x26800000
 800983e:	da0a      	bge.n	8009856 <__ieee754_hypotf+0x56>
 8009840:	b352      	cbz	r2, 8009898 <__ieee754_hypotf+0x98>
 8009842:	f5b2 0f00 	cmp.w	r2, #8388608	; 0x800000
 8009846:	da67      	bge.n	8009918 <__ieee754_hypotf+0x118>
 8009848:	eddf 7a38 	vldr	s15, [pc, #224]	; 800992c <__ieee754_hypotf+0x12c>
 800984c:	ee27 7a27 	vmul.f32	s14, s14, s15
 8009850:	ee20 0a27 	vmul.f32	s0, s0, s15
 8009854:	3c7e      	subs	r4, #126	; 0x7e
 8009856:	ee70 6a47 	vsub.f32	s13, s0, s14
 800985a:	eeb4 7ae6 	vcmpe.f32	s14, s13
 800985e:	eef1 fa10 	vmrs	APSR_nzcv, fpscr
 8009862:	d52c      	bpl.n	80098be <__ieee754_hypotf+0xbe>
 8009864:	f423 637f 	bic.w	r3, r3, #4080	; 0xff0
 8009868:	f023 030f 	bic.w	r3, r3, #15
 800986c:	ee07 3a90 	vmov	s15, r3
 8009870:	ee70 6a27 	vadd.f32	s13, s0, s15
 8009874:	ee30 0a67 	vsub.f32	s0, s0, s15
 8009878:	ee20 0a66 	vnmul.f32	s0, s0, s13
 800987c:	eea7 0a47 	vfms.f32	s0, s14, s14
 8009880:	ee97 0aa7 	vfnms.f32	s0, s15, s15
 8009884:	f7ff fa98 	bl	8008db8 <__ieee754_sqrtf>
 8009888:	b134      	cbz	r4, 8009898 <__ieee754_hypotf+0x98>
 800988a:	05e4      	lsls	r4, r4, #23
 800988c:	f104 547e 	add.w	r4, r4, #1065353216	; 0x3f800000
 8009890:	ee07 4a90 	vmov	s15, r4
 8009894:	ee20 0a27 	vmul.f32	s0, s0, s15
 8009898:	b002      	add	sp, #8
 800989a:	bd10      	pop	{r4, pc}
 800989c:	f1b3 4fff 	cmp.w	r3, #2139095040	; 0x7f800000
 80098a0:	da2c      	bge.n	80098fc <__ieee754_hypotf+0xfc>
 80098a2:	f103 435e 	add.w	r3, r3, #3724541952	; 0xde000000
 80098a6:	f102 425e 	add.w	r2, r2, #3724541952	; 0xde000000
 80098aa:	ee00 3a10 	vmov	s0, r3
 80098ae:	ee07 2a10 	vmov	s14, r2
 80098b2:	2444      	movs	r4, #68	; 0x44
 80098b4:	e7c1      	b.n	800983a <__ieee754_hypotf+0x3a>
 80098b6:	ee30 0a07 	vadd.f32	s0, s0, s14
 80098ba:	b002      	add	sp, #8
 80098bc:	bd10      	pop	{r4, pc}
 80098be:	f503 0300 	add.w	r3, r3, #8388608	; 0x800000
 80098c2:	ee05 3a90 	vmov	s11, r3
 80098c6:	eeb0 6a00 	vmov.f32	s12, #0	; 0x40000000  2.0
 80098ca:	eed0 5a06 	vfnms.f32	s11, s0, s12
 80098ce:	f422 627f 	bic.w	r2, r2, #4080	; 0xff0
 80098d2:	f022 020f 	bic.w	r2, r2, #15
 80098d6:	ee06 2a10 	vmov	s12, r2
 80098da:	ee07 3a90 	vmov	s15, r3
 80098de:	ee37 6a46 	vsub.f32	s12, s14, s12
 80098e2:	ee27 0a25 	vmul.f32	s0, s14, s11
 80098e6:	ee07 2a10 	vmov	s14, r2
 80098ea:	eea6 0a27 	vfma.f32	s0, s12, s15
 80098ee:	ee96 0ae6 	vfnma.f32	s0, s13, s13
 80098f2:	ee97 0a27 	vfnms.f32	s0, s14, s15
 80098f6:	f7ff fa5f 	bl	8008db8 <__ieee754_sqrtf>
 80098fa:	e7c5      	b.n	8009888 <__ieee754_hypotf+0x88>
 80098fc:	bf14      	ite	ne
 80098fe:	ee30 0a07 	vaddne.f32	s0, s0, s14
 8009902:	ed9f 0a0b 	vldreq	s0, [pc, #44]	; 8009930 <__ieee754_hypotf+0x130>
 8009906:	eddf 7a0a 	vldr	s15, [pc, #40]	; 8009930 <__ieee754_hypotf+0x130>
 800990a:	f1b2 4fff 	cmp.w	r2, #2139095040	; 0x7f800000
 800990e:	bf08      	it	eq
 8009910:	eeb0 0a67 	vmoveq.f32	s0, s15
 8009914:	b002      	add	sp, #8
 8009916:	bd10      	pop	{r4, pc}
 8009918:	f103 5308 	add.w	r3, r3, #570425344	; 0x22000000
 800991c:	f102 5208 	add.w	r2, r2, #570425344	; 0x22000000
 8009920:	ee00 3a10 	vmov	s0, r3
 8009924:	ee07 2a10 	vmov	s14, r2
 8009928:	3c44      	subs	r4, #68	; 0x44
 800992a:	e794      	b.n	8009856 <__ieee754_hypotf+0x56>
 800992c:	7e800000 	.word	0x7e800000
 8009930:	7f800000 	.word	0x7f800000

08009934 <__assert_func>:
 8009934:	b51f      	push	{r0, r1, r2, r3, r4, lr}
 8009936:	4614      	mov	r4, r2
 8009938:	461a      	mov	r2, r3
 800993a:	4b09      	ldr	r3, [pc, #36]	; (8009960 <__assert_func+0x2c>)
 800993c:	681b      	ldr	r3, [r3, #0]
 800993e:	4605      	mov	r5, r0
 8009940:	68d8      	ldr	r0, [r3, #12]
 8009942:	b14c      	cbz	r4, 8009958 <__assert_func+0x24>
 8009944:	4b07      	ldr	r3, [pc, #28]	; (8009964 <__assert_func+0x30>)
 8009946:	9100      	str	r1, [sp, #0]
 8009948:	e9cd 3401 	strd	r3, r4, [sp, #4]
 800994c:	4906      	ldr	r1, [pc, #24]	; (8009968 <__assert_func+0x34>)
 800994e:	462b      	mov	r3, r5
 8009950:	f000 f9be 	bl	8009cd0 <fiprintf>
 8009954:	f000 fedc 	bl	800a710 <abort>
 8009958:	4b04      	ldr	r3, [pc, #16]	; (800996c <__assert_func+0x38>)
 800995a:	461c      	mov	r4, r3
 800995c:	e7f3      	b.n	8009946 <__assert_func+0x12>
 800995e:	bf00      	nop
 8009960:	20000028 	.word	0x20000028
 8009964:	08010a0c 	.word	0x08010a0c
 8009968:	08010a19 	.word	0x08010a19
 800996c:	08010a47 	.word	0x08010a47

08009970 <__errno>:
 8009970:	4b01      	ldr	r3, [pc, #4]	; (8009978 <__errno+0x8>)
 8009972:	6818      	ldr	r0, [r3, #0]
 8009974:	4770      	bx	lr
 8009976:	bf00      	nop
 8009978:	20000028 	.word	0x20000028

0800997c <__sflush_r>:
 800997c:	898a      	ldrh	r2, [r1, #12]
 800997e:	e92d 41f0 	stmdb	sp!, {r4, r5, r6, r7, r8, lr}
 8009982:	4605      	mov	r5, r0
 8009984:	0710      	lsls	r0, r2, #28
 8009986:	460c      	mov	r4, r1
 8009988:	d458      	bmi.n	8009a3c <__sflush_r+0xc0>
 800998a:	684b      	ldr	r3, [r1, #4]
 800998c:	2b00      	cmp	r3, #0
 800998e:	dc05      	bgt.n	800999c <__sflush_r+0x20>
 8009990:	6c0b      	ldr	r3, [r1, #64]	; 0x40
 8009992:	2b00      	cmp	r3, #0
 8009994:	dc02      	bgt.n	800999c <__sflush_r+0x20>
 8009996:	2000      	movs	r0, #0
 8009998:	e8bd 81f0 	ldmia.w	sp!, {r4, r5, r6, r7, r8, pc}
 800999c:	6ae6      	ldr	r6, [r4, #44]	; 0x2c
 800999e:	2e00      	cmp	r6, #0
 80099a0:	d0f9      	beq.n	8009996 <__sflush_r+0x1a>
 80099a2:	2300      	movs	r3, #0
 80099a4:	f412 5280 	ands.w	r2, r2, #4096	; 0x1000
 80099a8:	682f      	ldr	r7, [r5, #0]
 80099aa:	602b      	str	r3, [r5, #0]
 80099ac:	d032      	beq.n	8009a14 <__sflush_r+0x98>
 80099ae:	6d60      	ldr	r0, [r4, #84]	; 0x54
 80099b0:	89a3      	ldrh	r3, [r4, #12]
 80099b2:	075a      	lsls	r2, r3, #29
 80099b4:	d505      	bpl.n	80099c2 <__sflush_r+0x46>
 80099b6:	6863      	ldr	r3, [r4, #4]
 80099b8:	1ac0      	subs	r0, r0, r3
 80099ba:	6b63      	ldr	r3, [r4, #52]	; 0x34
 80099bc:	b10b      	cbz	r3, 80099c2 <__sflush_r+0x46>
 80099be:	6c23      	ldr	r3, [r4, #64]	; 0x40
 80099c0:	1ac0      	subs	r0, r0, r3
 80099c2:	2300      	movs	r3, #0
 80099c4:	4602      	mov	r2, r0
 80099c6:	6ae6      	ldr	r6, [r4, #44]	; 0x2c
 80099c8:	6a21      	ldr	r1, [r4, #32]
 80099ca:	4628      	mov	r0, r5
 80099cc:	47b0      	blx	r6
 80099ce:	1c43      	adds	r3, r0, #1
 80099d0:	89a3      	ldrh	r3, [r4, #12]
 80099d2:	d106      	bne.n	80099e2 <__sflush_r+0x66>
 80099d4:	6829      	ldr	r1, [r5, #0]
 80099d6:	291d      	cmp	r1, #29
 80099d8:	d82c      	bhi.n	8009a34 <__sflush_r+0xb8>
 80099da:	4a2a      	ldr	r2, [pc, #168]	; (8009a84 <__sflush_r+0x108>)
 80099dc:	40ca      	lsrs	r2, r1
 80099de:	07d6      	lsls	r6, r2, #31
 80099e0:	d528      	bpl.n	8009a34 <__sflush_r+0xb8>
 80099e2:	2200      	movs	r2, #0
 80099e4:	6062      	str	r2, [r4, #4]
 80099e6:	04d9      	lsls	r1, r3, #19
 80099e8:	6922      	ldr	r2, [r4, #16]
 80099ea:	6022      	str	r2, [r4, #0]
 80099ec:	d504      	bpl.n	80099f8 <__sflush_r+0x7c>
 80099ee:	1c42      	adds	r2, r0, #1
 80099f0:	d101      	bne.n	80099f6 <__sflush_r+0x7a>
 80099f2:	682b      	ldr	r3, [r5, #0]
 80099f4:	b903      	cbnz	r3, 80099f8 <__sflush_r+0x7c>
 80099f6:	6560      	str	r0, [r4, #84]	; 0x54
 80099f8:	6b61      	ldr	r1, [r4, #52]	; 0x34
 80099fa:	602f      	str	r7, [r5, #0]
 80099fc:	2900      	cmp	r1, #0
 80099fe:	d0ca      	beq.n	8009996 <__sflush_r+0x1a>
 8009a00:	f104 0344 	add.w	r3, r4, #68	; 0x44
 8009a04:	4299      	cmp	r1, r3
 8009a06:	d002      	beq.n	8009a0e <__sflush_r+0x92>
 8009a08:	4628      	mov	r0, r5
 8009a0a:	f000 f9c3 	bl	8009d94 <_free_r>
 8009a0e:	2000      	movs	r0, #0
 8009a10:	6360      	str	r0, [r4, #52]	; 0x34
 8009a12:	e7c1      	b.n	8009998 <__sflush_r+0x1c>
 8009a14:	6a21      	ldr	r1, [r4, #32]
 8009a16:	2301      	movs	r3, #1
 8009a18:	4628      	mov	r0, r5
 8009a1a:	47b0      	blx	r6
 8009a1c:	1c41      	adds	r1, r0, #1
 8009a1e:	d1c7      	bne.n	80099b0 <__sflush_r+0x34>
 8009a20:	682b      	ldr	r3, [r5, #0]
 8009a22:	2b00      	cmp	r3, #0
 8009a24:	d0c4      	beq.n	80099b0 <__sflush_r+0x34>
 8009a26:	2b1d      	cmp	r3, #29
 8009a28:	d001      	beq.n	8009a2e <__sflush_r+0xb2>
 8009a2a:	2b16      	cmp	r3, #22
 8009a2c:	d101      	bne.n	8009a32 <__sflush_r+0xb6>
 8009a2e:	602f      	str	r7, [r5, #0]
 8009a30:	e7b1      	b.n	8009996 <__sflush_r+0x1a>
 8009a32:	89a3      	ldrh	r3, [r4, #12]
 8009a34:	f043 0340 	orr.w	r3, r3, #64	; 0x40
 8009a38:	81a3      	strh	r3, [r4, #12]
 8009a3a:	e7ad      	b.n	8009998 <__sflush_r+0x1c>
 8009a3c:	690f      	ldr	r7, [r1, #16]
 8009a3e:	2f00      	cmp	r7, #0
 8009a40:	d0a9      	beq.n	8009996 <__sflush_r+0x1a>
 8009a42:	0793      	lsls	r3, r2, #30
 8009a44:	680e      	ldr	r6, [r1, #0]
 8009a46:	bf08      	it	eq
 8009a48:	694b      	ldreq	r3, [r1, #20]
 8009a4a:	600f      	str	r7, [r1, #0]
 8009a4c:	bf18      	it	ne
 8009a4e:	2300      	movne	r3, #0
 8009a50:	eba6 0807 	sub.w	r8, r6, r7
 8009a54:	608b      	str	r3, [r1, #8]
 8009a56:	f1b8 0f00 	cmp.w	r8, #0
 8009a5a:	dd9c      	ble.n	8009996 <__sflush_r+0x1a>
 8009a5c:	6a21      	ldr	r1, [r4, #32]
 8009a5e:	6aa6      	ldr	r6, [r4, #40]	; 0x28
 8009a60:	4643      	mov	r3, r8
 8009a62:	463a      	mov	r2, r7
 8009a64:	4628      	mov	r0, r5
 8009a66:	47b0      	blx	r6
 8009a68:	2800      	cmp	r0, #0
 8009a6a:	dc06      	bgt.n	8009a7a <__sflush_r+0xfe>
 8009a6c:	89a3      	ldrh	r3, [r4, #12]
 8009a6e:	f043 0340 	orr.w	r3, r3, #64	; 0x40
 8009a72:	81a3      	strh	r3, [r4, #12]
 8009a74:	f04f 30ff 	mov.w	r0, #4294967295	; 0xffffffff
 8009a78:	e78e      	b.n	8009998 <__sflush_r+0x1c>
 8009a7a:	4407      	add	r7, r0
 8009a7c:	eba8 0800 	sub.w	r8, r8, r0
 8009a80:	e7e9      	b.n	8009a56 <__sflush_r+0xda>
 8009a82:	bf00      	nop
 8009a84:	20400001 	.word	0x20400001

08009a88 <_fflush_r>:
 8009a88:	b538      	push	{r3, r4, r5, lr}
 8009a8a:	690b      	ldr	r3, [r1, #16]
 8009a8c:	4605      	mov	r5, r0
 8009a8e:	460c      	mov	r4, r1
 8009a90:	b913      	cbnz	r3, 8009a98 <_fflush_r+0x10>
 8009a92:	2500      	movs	r5, #0
 8009a94:	4628      	mov	r0, r5
 8009a96:	bd38      	pop	{r3, r4, r5, pc}
 8009a98:	b118      	cbz	r0, 8009aa2 <_fflush_r+0x1a>
 8009a9a:	6983      	ldr	r3, [r0, #24]
 8009a9c:	b90b      	cbnz	r3, 8009aa2 <_fflush_r+0x1a>
 8009a9e:	f000 f899 	bl	8009bd4 <__sinit>
 8009aa2:	4b14      	ldr	r3, [pc, #80]	; (8009af4 <_fflush_r+0x6c>)
 8009aa4:	429c      	cmp	r4, r3
 8009aa6:	d11b      	bne.n	8009ae0 <_fflush_r+0x58>
 8009aa8:	686c      	ldr	r4, [r5, #4]
 8009aaa:	f9b4 300c 	ldrsh.w	r3, [r4, #12]
 8009aae:	2b00      	cmp	r3, #0
 8009ab0:	d0ef      	beq.n	8009a92 <_fflush_r+0xa>
 8009ab2:	6e62      	ldr	r2, [r4, #100]	; 0x64
 8009ab4:	07d0      	lsls	r0, r2, #31
 8009ab6:	d404      	bmi.n	8009ac2 <_fflush_r+0x3a>
 8009ab8:	0599      	lsls	r1, r3, #22
 8009aba:	d402      	bmi.n	8009ac2 <_fflush_r+0x3a>
 8009abc:	6da0      	ldr	r0, [r4, #88]	; 0x58
 8009abe:	f000 f95e 	bl	8009d7e <__retarget_lock_acquire_recursive>
 8009ac2:	4628      	mov	r0, r5
 8009ac4:	4621      	mov	r1, r4
 8009ac6:	f7ff ff59 	bl	800997c <__sflush_r>
 8009aca:	6e63      	ldr	r3, [r4, #100]	; 0x64
 8009acc:	07da      	lsls	r2, r3, #31
 8009ace:	4605      	mov	r5, r0
 8009ad0:	d4e0      	bmi.n	8009a94 <_fflush_r+0xc>
 8009ad2:	89a3      	ldrh	r3, [r4, #12]
 8009ad4:	059b      	lsls	r3, r3, #22
 8009ad6:	d4dd      	bmi.n	8009a94 <_fflush_r+0xc>
 8009ad8:	6da0      	ldr	r0, [r4, #88]	; 0x58
 8009ada:	f000 f951 	bl	8009d80 <__retarget_lock_release_recursive>
 8009ade:	e7d9      	b.n	8009a94 <_fflush_r+0xc>
 8009ae0:	4b05      	ldr	r3, [pc, #20]	; (8009af8 <_fflush_r+0x70>)
 8009ae2:	429c      	cmp	r4, r3
 8009ae4:	d101      	bne.n	8009aea <_fflush_r+0x62>
 8009ae6:	68ac      	ldr	r4, [r5, #8]
 8009ae8:	e7df      	b.n	8009aaa <_fflush_r+0x22>
 8009aea:	4b04      	ldr	r3, [pc, #16]	; (8009afc <_fflush_r+0x74>)
 8009aec:	429c      	cmp	r4, r3
 8009aee:	bf08      	it	eq
 8009af0:	68ec      	ldreq	r4, [r5, #12]
 8009af2:	e7da      	b.n	8009aaa <_fflush_r+0x22>
 8009af4:	08010a68 	.word	0x08010a68
 8009af8:	08010a88 	.word	0x08010a88
 8009afc:	08010a48 	.word	0x08010a48

08009b00 <fflush>:
 8009b00:	4601      	mov	r1, r0
 8009b02:	b920      	cbnz	r0, 8009b0e <fflush+0xe>
 8009b04:	4b04      	ldr	r3, [pc, #16]	; (8009b18 <fflush+0x18>)
 8009b06:	4905      	ldr	r1, [pc, #20]	; (8009b1c <fflush+0x1c>)
 8009b08:	6818      	ldr	r0, [r3, #0]
 8009b0a:	f000 b8f3 	b.w	8009cf4 <_fwalk_reent>
 8009b0e:	4b04      	ldr	r3, [pc, #16]	; (8009b20 <fflush+0x20>)
 8009b10:	6818      	ldr	r0, [r3, #0]
 8009b12:	f7ff bfb9 	b.w	8009a88 <_fflush_r>
 8009b16:	bf00      	nop
 8009b18:	08010aa8 	.word	0x08010aa8
 8009b1c:	08009a89 	.word	0x08009a89
 8009b20:	20000028 	.word	0x20000028

08009b24 <std>:
 8009b24:	2300      	movs	r3, #0
 8009b26:	b510      	push	{r4, lr}
 8009b28:	4604      	mov	r4, r0
 8009b2a:	e9c0 3300 	strd	r3, r3, [r0]
 8009b2e:	e9c0 3304 	strd	r3, r3, [r0, #16]
 8009b32:	6083      	str	r3, [r0, #8]
 8009b34:	8181      	strh	r1, [r0, #12]
 8009b36:	6643      	str	r3, [r0, #100]	; 0x64
 8009b38:	81c2      	strh	r2, [r0, #14]
 8009b3a:	6183      	str	r3, [r0, #24]
 8009b3c:	4619      	mov	r1, r3
 8009b3e:	2208      	movs	r2, #8
 8009b40:	305c      	adds	r0, #92	; 0x5c
 8009b42:	f000 f91e 	bl	8009d82 <memset>
 8009b46:	4b05      	ldr	r3, [pc, #20]	; (8009b5c <std+0x38>)
 8009b48:	6263      	str	r3, [r4, #36]	; 0x24
 8009b4a:	4b05      	ldr	r3, [pc, #20]	; (8009b60 <std+0x3c>)
 8009b4c:	62a3      	str	r3, [r4, #40]	; 0x28
 8009b4e:	4b05      	ldr	r3, [pc, #20]	; (8009b64 <std+0x40>)
 8009b50:	62e3      	str	r3, [r4, #44]	; 0x2c
 8009b52:	4b05      	ldr	r3, [pc, #20]	; (8009b68 <std+0x44>)
 8009b54:	6224      	str	r4, [r4, #32]
 8009b56:	6323      	str	r3, [r4, #48]	; 0x30
 8009b58:	bd10      	pop	{r4, pc}
 8009b5a:	bf00      	nop
 8009b5c:	0800a4e5 	.word	0x0800a4e5
 8009b60:	0800a507 	.word	0x0800a507
 8009b64:	0800a53f 	.word	0x0800a53f
 8009b68:	0800a563 	.word	0x0800a563

08009b6c <_cleanup_r>:
 8009b6c:	4901      	ldr	r1, [pc, #4]	; (8009b74 <_cleanup_r+0x8>)
 8009b6e:	f000 b8c1 	b.w	8009cf4 <_fwalk_reent>
 8009b72:	bf00      	nop
 8009b74:	08009a89 	.word	0x08009a89

08009b78 <__sfmoreglue>:
 8009b78:	b570      	push	{r4, r5, r6, lr}
 8009b7a:	1e4a      	subs	r2, r1, #1
 8009b7c:	2568      	movs	r5, #104	; 0x68
 8009b7e:	4355      	muls	r5, r2
 8009b80:	460e      	mov	r6, r1
 8009b82:	f105 0174 	add.w	r1, r5, #116	; 0x74
 8009b86:	f000 f955 	bl	8009e34 <_malloc_r>
 8009b8a:	4604      	mov	r4, r0
 8009b8c:	b140      	cbz	r0, 8009ba0 <__sfmoreglue+0x28>
 8009b8e:	2100      	movs	r1, #0
 8009b90:	e9c0 1600 	strd	r1, r6, [r0]
 8009b94:	300c      	adds	r0, #12
 8009b96:	60a0      	str	r0, [r4, #8]
 8009b98:	f105 0268 	add.w	r2, r5, #104	; 0x68
 8009b9c:	f000 f8f1 	bl	8009d82 <memset>
 8009ba0:	4620      	mov	r0, r4
 8009ba2:	bd70      	pop	{r4, r5, r6, pc}

08009ba4 <__sfp_lock_acquire>:
 8009ba4:	4801      	ldr	r0, [pc, #4]	; (8009bac <__sfp_lock_acquire+0x8>)
 8009ba6:	f000 b8ea 	b.w	8009d7e <__retarget_lock_acquire_recursive>
 8009baa:	bf00      	nop
 8009bac:	200003f0 	.word	0x200003f0

08009bb0 <__sfp_lock_release>:
 8009bb0:	4801      	ldr	r0, [pc, #4]	; (8009bb8 <__sfp_lock_release+0x8>)
 8009bb2:	f000 b8e5 	b.w	8009d80 <__retarget_lock_release_recursive>
 8009bb6:	bf00      	nop
 8009bb8:	200003f0 	.word	0x200003f0

08009bbc <__sinit_lock_acquire>:
 8009bbc:	4801      	ldr	r0, [pc, #4]	; (8009bc4 <__sinit_lock_acquire+0x8>)
 8009bbe:	f000 b8de 	b.w	8009d7e <__retarget_lock_acquire_recursive>
 8009bc2:	bf00      	nop
 8009bc4:	200003eb 	.word	0x200003eb

08009bc8 <__sinit_lock_release>:
 8009bc8:	4801      	ldr	r0, [pc, #4]	; (8009bd0 <__sinit_lock_release+0x8>)
 8009bca:	f000 b8d9 	b.w	8009d80 <__retarget_lock_release_recursive>
 8009bce:	bf00      	nop
 8009bd0:	200003eb 	.word	0x200003eb

08009bd4 <__sinit>:
 8009bd4:	b510      	push	{r4, lr}
 8009bd6:	4604      	mov	r4, r0
 8009bd8:	f7ff fff0 	bl	8009bbc <__sinit_lock_acquire>
 8009bdc:	69a3      	ldr	r3, [r4, #24]
 8009bde:	b11b      	cbz	r3, 8009be8 <__sinit+0x14>
 8009be0:	e8bd 4010 	ldmia.w	sp!, {r4, lr}
 8009be4:	f7ff bff0 	b.w	8009bc8 <__sinit_lock_release>
 8009be8:	e9c4 3312 	strd	r3, r3, [r4, #72]	; 0x48
 8009bec:	6523      	str	r3, [r4, #80]	; 0x50
 8009bee:	4b13      	ldr	r3, [pc, #76]	; (8009c3c <__sinit+0x68>)
 8009bf0:	4a13      	ldr	r2, [pc, #76]	; (8009c40 <__sinit+0x6c>)
 8009bf2:	681b      	ldr	r3, [r3, #0]
 8009bf4:	62a2      	str	r2, [r4, #40]	; 0x28
 8009bf6:	42a3      	cmp	r3, r4
 8009bf8:	bf04      	itt	eq
 8009bfa:	2301      	moveq	r3, #1
 8009bfc:	61a3      	streq	r3, [r4, #24]
 8009bfe:	4620      	mov	r0, r4
 8009c00:	f000 f820 	bl	8009c44 <__sfp>
 8009c04:	6060      	str	r0, [r4, #4]
 8009c06:	4620      	mov	r0, r4
 8009c08:	f000 f81c 	bl	8009c44 <__sfp>
 8009c0c:	60a0      	str	r0, [r4, #8]
 8009c0e:	4620      	mov	r0, r4
 8009c10:	f000 f818 	bl	8009c44 <__sfp>
 8009c14:	2200      	movs	r2, #0
 8009c16:	60e0      	str	r0, [r4, #12]
 8009c18:	2104      	movs	r1, #4
 8009c1a:	6860      	ldr	r0, [r4, #4]
 8009c1c:	f7ff ff82 	bl	8009b24 <std>
 8009c20:	68a0      	ldr	r0, [r4, #8]
 8009c22:	2201      	movs	r2, #1
 8009c24:	2109      	movs	r1, #9
 8009c26:	f7ff ff7d 	bl	8009b24 <std>
 8009c2a:	68e0      	ldr	r0, [r4, #12]
 8009c2c:	2202      	movs	r2, #2
 8009c2e:	2112      	movs	r1, #18
 8009c30:	f7ff ff78 	bl	8009b24 <std>
 8009c34:	2301      	movs	r3, #1
 8009c36:	61a3      	str	r3, [r4, #24]
 8009c38:	e7d2      	b.n	8009be0 <__sinit+0xc>
 8009c3a:	bf00      	nop
 8009c3c:	08010aa8 	.word	0x08010aa8
 8009c40:	08009b6d 	.word	0x08009b6d

08009c44 <__sfp>:
 8009c44:	b5f8      	push	{r3, r4, r5, r6, r7, lr}
 8009c46:	4607      	mov	r7, r0
 8009c48:	f7ff ffac 	bl	8009ba4 <__sfp_lock_acquire>
 8009c4c:	4b1e      	ldr	r3, [pc, #120]	; (8009cc8 <__sfp+0x84>)
 8009c4e:	681e      	ldr	r6, [r3, #0]
 8009c50:	69b3      	ldr	r3, [r6, #24]
 8009c52:	b913      	cbnz	r3, 8009c5a <__sfp+0x16>
 8009c54:	4630      	mov	r0, r6
 8009c56:	f7ff ffbd 	bl	8009bd4 <__sinit>
 8009c5a:	3648      	adds	r6, #72	; 0x48
 8009c5c:	e9d6 3401 	ldrd	r3, r4, [r6, #4]
 8009c60:	3b01      	subs	r3, #1
 8009c62:	d503      	bpl.n	8009c6c <__sfp+0x28>
 8009c64:	6833      	ldr	r3, [r6, #0]
 8009c66:	b30b      	cbz	r3, 8009cac <__sfp+0x68>
 8009c68:	6836      	ldr	r6, [r6, #0]
 8009c6a:	e7f7      	b.n	8009c5c <__sfp+0x18>
 8009c6c:	f9b4 500c 	ldrsh.w	r5, [r4, #12]
 8009c70:	b9d5      	cbnz	r5, 8009ca8 <__sfp+0x64>
 8009c72:	4b16      	ldr	r3, [pc, #88]	; (8009ccc <__sfp+0x88>)
 8009c74:	60e3      	str	r3, [r4, #12]
 8009c76:	f104 0058 	add.w	r0, r4, #88	; 0x58
 8009c7a:	6665      	str	r5, [r4, #100]	; 0x64
 8009c7c:	f000 f87e 	bl	8009d7c <__retarget_lock_init_recursive>
 8009c80:	f7ff ff96 	bl	8009bb0 <__sfp_lock_release>
 8009c84:	e9c4 5501 	strd	r5, r5, [r4, #4]
 8009c88:	e9c4 5504 	strd	r5, r5, [r4, #16]
 8009c8c:	6025      	str	r5, [r4, #0]
 8009c8e:	61a5      	str	r5, [r4, #24]
 8009c90:	2208      	movs	r2, #8
 8009c92:	4629      	mov	r1, r5
 8009c94:	f104 005c 	add.w	r0, r4, #92	; 0x5c
 8009c98:	f000 f873 	bl	8009d82 <memset>
 8009c9c:	e9c4 550d 	strd	r5, r5, [r4, #52]	; 0x34
 8009ca0:	e9c4 5512 	strd	r5, r5, [r4, #72]	; 0x48
 8009ca4:	4620      	mov	r0, r4
 8009ca6:	bdf8      	pop	{r3, r4, r5, r6, r7, pc}
 8009ca8:	3468      	adds	r4, #104	; 0x68
 8009caa:	e7d9      	b.n	8009c60 <__sfp+0x1c>
 8009cac:	2104      	movs	r1, #4
 8009cae:	4638      	mov	r0, r7
 8009cb0:	f7ff ff62 	bl	8009b78 <__sfmoreglue>
 8009cb4:	4604      	mov	r4, r0
 8009cb6:	6030      	str	r0, [r6, #0]
 8009cb8:	2800      	cmp	r0, #0
 8009cba:	d1d5      	bne.n	8009c68 <__sfp+0x24>
 8009cbc:	f7ff ff78 	bl	8009bb0 <__sfp_lock_release>
 8009cc0:	230c      	movs	r3, #12
 8009cc2:	603b      	str	r3, [r7, #0]
 8009cc4:	e7ee      	b.n	8009ca4 <__sfp+0x60>
 8009cc6:	bf00      	nop
 8009cc8:	08010aa8 	.word	0x08010aa8
 8009ccc:	ffff0001 	.word	0xffff0001

08009cd0 <fiprintf>:
 8009cd0:	b40e      	push	{r1, r2, r3}
 8009cd2:	b503      	push	{r0, r1, lr}
 8009cd4:	4601      	mov	r1, r0
 8009cd6:	ab03      	add	r3, sp, #12
 8009cd8:	4805      	ldr	r0, [pc, #20]	; (8009cf0 <fiprintf+0x20>)
 8009cda:	f853 2b04 	ldr.w	r2, [r3], #4
 8009cde:	6800      	ldr	r0, [r0, #0]
 8009ce0:	9301      	str	r3, [sp, #4]
 8009ce2:	f000 f92b 	bl	8009f3c <_vfiprintf_r>
 8009ce6:	b002      	add	sp, #8
 8009ce8:	f85d eb04 	ldr.w	lr, [sp], #4
 8009cec:	b003      	add	sp, #12
 8009cee:	4770      	bx	lr
 8009cf0:	20000028 	.word	0x20000028

08009cf4 <_fwalk_reent>:
 8009cf4:	e92d 43f8 	stmdb	sp!, {r3, r4, r5, r6, r7, r8, r9, lr}
 8009cf8:	4606      	mov	r6, r0
 8009cfa:	4688      	mov	r8, r1
 8009cfc:	f100 0448 	add.w	r4, r0, #72	; 0x48
 8009d00:	2700      	movs	r7, #0
 8009d02:	e9d4 9501 	ldrd	r9, r5, [r4, #4]
 8009d06:	f1b9 0901 	subs.w	r9, r9, #1
 8009d0a:	d505      	bpl.n	8009d18 <_fwalk_reent+0x24>
 8009d0c:	6824      	ldr	r4, [r4, #0]
 8009d0e:	2c00      	cmp	r4, #0
 8009d10:	d1f7      	bne.n	8009d02 <_fwalk_reent+0xe>
 8009d12:	4638      	mov	r0, r7
 8009d14:	e8bd 83f8 	ldmia.w	sp!, {r3, r4, r5, r6, r7, r8, r9, pc}
 8009d18:	89ab      	ldrh	r3, [r5, #12]
 8009d1a:	2b01      	cmp	r3, #1
 8009d1c:	d907      	bls.n	8009d2e <_fwalk_reent+0x3a>
 8009d1e:	f9b5 300e 	ldrsh.w	r3, [r5, #14]
 8009d22:	3301      	adds	r3, #1
 8009d24:	d003      	beq.n	8009d2e <_fwalk_reent+0x3a>
 8009d26:	4629      	mov	r1, r5
 8009d28:	4630      	mov	r0, r6
 8009d2a:	47c0      	blx	r8
 8009d2c:	4307      	orrs	r7, r0
 8009d2e:	3568      	adds	r5, #104	; 0x68
 8009d30:	e7e9      	b.n	8009d06 <_fwalk_reent+0x12>
	...

08009d34 <__libc_init_array>:
 8009d34:	b570      	push	{r4, r5, r6, lr}
 8009d36:	4d0d      	ldr	r5, [pc, #52]	; (8009d6c <__libc_init_array+0x38>)
 8009d38:	4c0d      	ldr	r4, [pc, #52]	; (8009d70 <__libc_init_array+0x3c>)
 8009d3a:	1b64      	subs	r4, r4, r5
 8009d3c:	10a4      	asrs	r4, r4, #2
 8009d3e:	2600      	movs	r6, #0
 8009d40:	42a6      	cmp	r6, r4
 8009d42:	d109      	bne.n	8009d58 <__libc_init_array+0x24>
 8009d44:	4d0b      	ldr	r5, [pc, #44]	; (8009d74 <__libc_init_array+0x40>)
 8009d46:	4c0c      	ldr	r4, [pc, #48]	; (8009d78 <__libc_init_array+0x44>)
 8009d48:	f001 fc3e 	bl	800b5c8 <_init>
 8009d4c:	1b64      	subs	r4, r4, r5
 8009d4e:	10a4      	asrs	r4, r4, #2
 8009d50:	2600      	movs	r6, #0
 8009d52:	42a6      	cmp	r6, r4
 8009d54:	d105      	bne.n	8009d62 <__libc_init_array+0x2e>
 8009d56:	bd70      	pop	{r4, r5, r6, pc}
 8009d58:	f855 3b04 	ldr.w	r3, [r5], #4
 8009d5c:	4798      	blx	r3
 8009d5e:	3601      	adds	r6, #1
 8009d60:	e7ee      	b.n	8009d40 <__libc_init_array+0xc>
 8009d62:	f855 3b04 	ldr.w	r3, [r5], #4
 8009d66:	4798      	blx	r3
 8009d68:	3601      	adds	r6, #1
 8009d6a:	e7f2      	b.n	8009d52 <__libc_init_array+0x1e>
 8009d6c:	08010ae8 	.word	0x08010ae8
 8009d70:	08010ae8 	.word	0x08010ae8
 8009d74:	08010ae8 	.word	0x08010ae8
 8009d78:	08010aec 	.word	0x08010aec

08009d7c <__retarget_lock_init_recursive>:
 8009d7c:	4770      	bx	lr

08009d7e <__retarget_lock_acquire_recursive>:
 8009d7e:	4770      	bx	lr

08009d80 <__retarget_lock_release_recursive>:
 8009d80:	4770      	bx	lr

08009d82 <memset>:
 8009d82:	4402      	add	r2, r0
 8009d84:	4603      	mov	r3, r0
 8009d86:	4293      	cmp	r3, r2
 8009d88:	d100      	bne.n	8009d8c <memset+0xa>
 8009d8a:	4770      	bx	lr
 8009d8c:	f803 1b01 	strb.w	r1, [r3], #1
 8009d90:	e7f9      	b.n	8009d86 <memset+0x4>
	...

08009d94 <_free_r>:
 8009d94:	b537      	push	{r0, r1, r2, r4, r5, lr}
 8009d96:	2900      	cmp	r1, #0
 8009d98:	d048      	beq.n	8009e2c <_free_r+0x98>
 8009d9a:	f851 3c04 	ldr.w	r3, [r1, #-4]
 8009d9e:	9001      	str	r0, [sp, #4]
 8009da0:	2b00      	cmp	r3, #0
 8009da2:	f1a1 0404 	sub.w	r4, r1, #4
 8009da6:	bfb8      	it	lt
 8009da8:	18e4      	addlt	r4, r4, r3
 8009daa:	f000 fd67 	bl	800a87c <__malloc_lock>
 8009dae:	4a20      	ldr	r2, [pc, #128]	; (8009e30 <_free_r+0x9c>)
 8009db0:	9801      	ldr	r0, [sp, #4]
 8009db2:	6813      	ldr	r3, [r2, #0]
 8009db4:	4615      	mov	r5, r2
 8009db6:	b933      	cbnz	r3, 8009dc6 <_free_r+0x32>
 8009db8:	6063      	str	r3, [r4, #4]
 8009dba:	6014      	str	r4, [r2, #0]
 8009dbc:	b003      	add	sp, #12
 8009dbe:	e8bd 4030 	ldmia.w	sp!, {r4, r5, lr}
 8009dc2:	f000 bd61 	b.w	800a888 <__malloc_unlock>
 8009dc6:	42a3      	cmp	r3, r4
 8009dc8:	d90b      	bls.n	8009de2 <_free_r+0x4e>
 8009dca:	6821      	ldr	r1, [r4, #0]
 8009dcc:	1862      	adds	r2, r4, r1
 8009dce:	4293      	cmp	r3, r2
 8009dd0:	bf04      	itt	eq
 8009dd2:	681a      	ldreq	r2, [r3, #0]
 8009dd4:	685b      	ldreq	r3, [r3, #4]
 8009dd6:	6063      	str	r3, [r4, #4]
 8009dd8:	bf04      	itt	eq
 8009dda:	1852      	addeq	r2, r2, r1
 8009ddc:	6022      	streq	r2, [r4, #0]
 8009dde:	602c      	str	r4, [r5, #0]
 8009de0:	e7ec      	b.n	8009dbc <_free_r+0x28>
 8009de2:	461a      	mov	r2, r3
 8009de4:	685b      	ldr	r3, [r3, #4]
 8009de6:	b10b      	cbz	r3, 8009dec <_free_r+0x58>
 8009de8:	42a3      	cmp	r3, r4
 8009dea:	d9fa      	bls.n	8009de2 <_free_r+0x4e>
 8009dec:	6811      	ldr	r1, [r2, #0]
 8009dee:	1855      	adds	r5, r2, r1
 8009df0:	42a5      	cmp	r5, r4
 8009df2:	d10b      	bne.n	8009e0c <_free_r+0x78>
 8009df4:	6824      	ldr	r4, [r4, #0]
 8009df6:	4421      	add	r1, r4
 8009df8:	1854      	adds	r4, r2, r1
 8009dfa:	42a3      	cmp	r3, r4
 8009dfc:	6011      	str	r1, [r2, #0]
 8009dfe:	d1dd      	bne.n	8009dbc <_free_r+0x28>
 8009e00:	681c      	ldr	r4, [r3, #0]
 8009e02:	685b      	ldr	r3, [r3, #4]
 8009e04:	6053      	str	r3, [r2, #4]
 8009e06:	4421      	add	r1, r4
 8009e08:	6011      	str	r1, [r2, #0]
 8009e0a:	e7d7      	b.n	8009dbc <_free_r+0x28>
 8009e0c:	d902      	bls.n	8009e14 <_free_r+0x80>
 8009e0e:	230c      	movs	r3, #12
 8009e10:	6003      	str	r3, [r0, #0]
 8009e12:	e7d3      	b.n	8009dbc <_free_r+0x28>
 8009e14:	6825      	ldr	r5, [r4, #0]
 8009e16:	1961      	adds	r1, r4, r5
 8009e18:	428b      	cmp	r3, r1
 8009e1a:	bf04      	itt	eq
 8009e1c:	6819      	ldreq	r1, [r3, #0]
 8009e1e:	685b      	ldreq	r3, [r3, #4]
 8009e20:	6063      	str	r3, [r4, #4]
 8009e22:	bf04      	itt	eq
 8009e24:	1949      	addeq	r1, r1, r5
 8009e26:	6021      	streq	r1, [r4, #0]
 8009e28:	6054      	str	r4, [r2, #4]
 8009e2a:	e7c7      	b.n	8009dbc <_free_r+0x28>
 8009e2c:	b003      	add	sp, #12
 8009e2e:	bd30      	pop	{r4, r5, pc}
 8009e30:	2000035c 	.word	0x2000035c

08009e34 <_malloc_r>:
 8009e34:	b5f8      	push	{r3, r4, r5, r6, r7, lr}
 8009e36:	1ccd      	adds	r5, r1, #3
 8009e38:	f025 0503 	bic.w	r5, r5, #3
 8009e3c:	3508      	adds	r5, #8
 8009e3e:	2d0c      	cmp	r5, #12
 8009e40:	bf38      	it	cc
 8009e42:	250c      	movcc	r5, #12
 8009e44:	2d00      	cmp	r5, #0
 8009e46:	4606      	mov	r6, r0
 8009e48:	db01      	blt.n	8009e4e <_malloc_r+0x1a>
 8009e4a:	42a9      	cmp	r1, r5
 8009e4c:	d903      	bls.n	8009e56 <_malloc_r+0x22>
 8009e4e:	230c      	movs	r3, #12
 8009e50:	6033      	str	r3, [r6, #0]
 8009e52:	2000      	movs	r0, #0
 8009e54:	bdf8      	pop	{r3, r4, r5, r6, r7, pc}
 8009e56:	f000 fd11 	bl	800a87c <__malloc_lock>
 8009e5a:	4921      	ldr	r1, [pc, #132]	; (8009ee0 <_malloc_r+0xac>)
 8009e5c:	680a      	ldr	r2, [r1, #0]
 8009e5e:	4614      	mov	r4, r2
 8009e60:	b99c      	cbnz	r4, 8009e8a <_malloc_r+0x56>
 8009e62:	4f20      	ldr	r7, [pc, #128]	; (8009ee4 <_malloc_r+0xb0>)
 8009e64:	683b      	ldr	r3, [r7, #0]
 8009e66:	b923      	cbnz	r3, 8009e72 <_malloc_r+0x3e>
 8009e68:	4621      	mov	r1, r4
 8009e6a:	4630      	mov	r0, r6
 8009e6c:	f000 fb2a 	bl	800a4c4 <_sbrk_r>
 8009e70:	6038      	str	r0, [r7, #0]
 8009e72:	4629      	mov	r1, r5
 8009e74:	4630      	mov	r0, r6
 8009e76:	f000 fb25 	bl	800a4c4 <_sbrk_r>
 8009e7a:	1c43      	adds	r3, r0, #1
 8009e7c:	d123      	bne.n	8009ec6 <_malloc_r+0x92>
 8009e7e:	230c      	movs	r3, #12
 8009e80:	6033      	str	r3, [r6, #0]
 8009e82:	4630      	mov	r0, r6
 8009e84:	f000 fd00 	bl	800a888 <__malloc_unlock>
 8009e88:	e7e3      	b.n	8009e52 <_malloc_r+0x1e>
 8009e8a:	6823      	ldr	r3, [r4, #0]
 8009e8c:	1b5b      	subs	r3, r3, r5
 8009e8e:	d417      	bmi.n	8009ec0 <_malloc_r+0x8c>
 8009e90:	2b0b      	cmp	r3, #11
 8009e92:	d903      	bls.n	8009e9c <_malloc_r+0x68>
 8009e94:	6023      	str	r3, [r4, #0]
 8009e96:	441c      	add	r4, r3
 8009e98:	6025      	str	r5, [r4, #0]
 8009e9a:	e004      	b.n	8009ea6 <_malloc_r+0x72>
 8009e9c:	6863      	ldr	r3, [r4, #4]
 8009e9e:	42a2      	cmp	r2, r4
 8009ea0:	bf0c      	ite	eq
 8009ea2:	600b      	streq	r3, [r1, #0]
 8009ea4:	6053      	strne	r3, [r2, #4]
 8009ea6:	4630      	mov	r0, r6
 8009ea8:	f000 fcee 	bl	800a888 <__malloc_unlock>
 8009eac:	f104 000b 	add.w	r0, r4, #11
 8009eb0:	1d23      	adds	r3, r4, #4
 8009eb2:	f020 0007 	bic.w	r0, r0, #7
 8009eb6:	1ac2      	subs	r2, r0, r3
 8009eb8:	d0cc      	beq.n	8009e54 <_malloc_r+0x20>
 8009eba:	1a1b      	subs	r3, r3, r0
 8009ebc:	50a3      	str	r3, [r4, r2]
 8009ebe:	e7c9      	b.n	8009e54 <_malloc_r+0x20>
 8009ec0:	4622      	mov	r2, r4
 8009ec2:	6864      	ldr	r4, [r4, #4]
 8009ec4:	e7cc      	b.n	8009e60 <_malloc_r+0x2c>
 8009ec6:	1cc4      	adds	r4, r0, #3
 8009ec8:	f024 0403 	bic.w	r4, r4, #3
 8009ecc:	42a0      	cmp	r0, r4
 8009ece:	d0e3      	beq.n	8009e98 <_malloc_r+0x64>
 8009ed0:	1a21      	subs	r1, r4, r0
 8009ed2:	4630      	mov	r0, r6
 8009ed4:	f000 faf6 	bl	800a4c4 <_sbrk_r>
 8009ed8:	3001      	adds	r0, #1
 8009eda:	d1dd      	bne.n	8009e98 <_malloc_r+0x64>
 8009edc:	e7cf      	b.n	8009e7e <_malloc_r+0x4a>
 8009ede:	bf00      	nop
 8009ee0:	2000035c 	.word	0x2000035c
 8009ee4:	20000360 	.word	0x20000360

08009ee8 <__sfputc_r>:
 8009ee8:	6893      	ldr	r3, [r2, #8]
 8009eea:	3b01      	subs	r3, #1
 8009eec:	2b00      	cmp	r3, #0
 8009eee:	b410      	push	{r4}
 8009ef0:	6093      	str	r3, [r2, #8]
 8009ef2:	da08      	bge.n	8009f06 <__sfputc_r+0x1e>
 8009ef4:	6994      	ldr	r4, [r2, #24]
 8009ef6:	42a3      	cmp	r3, r4
 8009ef8:	db01      	blt.n	8009efe <__sfputc_r+0x16>
 8009efa:	290a      	cmp	r1, #10
 8009efc:	d103      	bne.n	8009f06 <__sfputc_r+0x1e>
 8009efe:	f85d 4b04 	ldr.w	r4, [sp], #4
 8009f02:	f000 bb33 	b.w	800a56c <__swbuf_r>
 8009f06:	6813      	ldr	r3, [r2, #0]
 8009f08:	1c58      	adds	r0, r3, #1
 8009f0a:	6010      	str	r0, [r2, #0]
 8009f0c:	7019      	strb	r1, [r3, #0]
 8009f0e:	4608      	mov	r0, r1
 8009f10:	f85d 4b04 	ldr.w	r4, [sp], #4
 8009f14:	4770      	bx	lr

08009f16 <__sfputs_r>:
 8009f16:	b5f8      	push	{r3, r4, r5, r6, r7, lr}
 8009f18:	4606      	mov	r6, r0
 8009f1a:	460f      	mov	r7, r1
 8009f1c:	4614      	mov	r4, r2
 8009f1e:	18d5      	adds	r5, r2, r3
 8009f20:	42ac      	cmp	r4, r5
 8009f22:	d101      	bne.n	8009f28 <__sfputs_r+0x12>
 8009f24:	2000      	movs	r0, #0
 8009f26:	e007      	b.n	8009f38 <__sfputs_r+0x22>
 8009f28:	f814 1b01 	ldrb.w	r1, [r4], #1
 8009f2c:	463a      	mov	r2, r7
 8009f2e:	4630      	mov	r0, r6
 8009f30:	f7ff ffda 	bl	8009ee8 <__sfputc_r>
 8009f34:	1c43      	adds	r3, r0, #1
 8009f36:	d1f3      	bne.n	8009f20 <__sfputs_r+0xa>
 8009f38:	bdf8      	pop	{r3, r4, r5, r6, r7, pc}
	...

08009f3c <_vfiprintf_r>:
 8009f3c:	e92d 4ff0 	stmdb	sp!, {r4, r5, r6, r7, r8, r9, sl, fp, lr}
 8009f40:	460d      	mov	r5, r1
 8009f42:	b09d      	sub	sp, #116	; 0x74
 8009f44:	4614      	mov	r4, r2
 8009f46:	4698      	mov	r8, r3
 8009f48:	4606      	mov	r6, r0
 8009f4a:	b118      	cbz	r0, 8009f54 <_vfiprintf_r+0x18>
 8009f4c:	6983      	ldr	r3, [r0, #24]
 8009f4e:	b90b      	cbnz	r3, 8009f54 <_vfiprintf_r+0x18>
 8009f50:	f7ff fe40 	bl	8009bd4 <__sinit>
 8009f54:	4b89      	ldr	r3, [pc, #548]	; (800a17c <_vfiprintf_r+0x240>)
 8009f56:	429d      	cmp	r5, r3
 8009f58:	d11b      	bne.n	8009f92 <_vfiprintf_r+0x56>
 8009f5a:	6875      	ldr	r5, [r6, #4]
 8009f5c:	6e6b      	ldr	r3, [r5, #100]	; 0x64
 8009f5e:	07d9      	lsls	r1, r3, #31
 8009f60:	d405      	bmi.n	8009f6e <_vfiprintf_r+0x32>
 8009f62:	89ab      	ldrh	r3, [r5, #12]
 8009f64:	059a      	lsls	r2, r3, #22
 8009f66:	d402      	bmi.n	8009f6e <_vfiprintf_r+0x32>
 8009f68:	6da8      	ldr	r0, [r5, #88]	; 0x58
 8009f6a:	f7ff ff08 	bl	8009d7e <__retarget_lock_acquire_recursive>
 8009f6e:	89ab      	ldrh	r3, [r5, #12]
 8009f70:	071b      	lsls	r3, r3, #28
 8009f72:	d501      	bpl.n	8009f78 <_vfiprintf_r+0x3c>
 8009f74:	692b      	ldr	r3, [r5, #16]
 8009f76:	b9eb      	cbnz	r3, 8009fb4 <_vfiprintf_r+0x78>
 8009f78:	4629      	mov	r1, r5
 8009f7a:	4630      	mov	r0, r6
 8009f7c:	f000 fb5a 	bl	800a634 <__swsetup_r>
 8009f80:	b1c0      	cbz	r0, 8009fb4 <_vfiprintf_r+0x78>
 8009f82:	6e6b      	ldr	r3, [r5, #100]	; 0x64
 8009f84:	07dc      	lsls	r4, r3, #31
 8009f86:	d50e      	bpl.n	8009fa6 <_vfiprintf_r+0x6a>
 8009f88:	f04f 30ff 	mov.w	r0, #4294967295	; 0xffffffff
 8009f8c:	b01d      	add	sp, #116	; 0x74
 8009f8e:	e8bd 8ff0 	ldmia.w	sp!, {r4, r5, r6, r7, r8, r9, sl, fp, pc}
 8009f92:	4b7b      	ldr	r3, [pc, #492]	; (800a180 <_vfiprintf_r+0x244>)
 8009f94:	429d      	cmp	r5, r3
 8009f96:	d101      	bne.n	8009f9c <_vfiprintf_r+0x60>
 8009f98:	68b5      	ldr	r5, [r6, #8]
 8009f9a:	e7df      	b.n	8009f5c <_vfiprintf_r+0x20>
 8009f9c:	4b79      	ldr	r3, [pc, #484]	; (800a184 <_vfiprintf_r+0x248>)
 8009f9e:	429d      	cmp	r5, r3
 8009fa0:	bf08      	it	eq
 8009fa2:	68f5      	ldreq	r5, [r6, #12]
 8009fa4:	e7da      	b.n	8009f5c <_vfiprintf_r+0x20>
 8009fa6:	89ab      	ldrh	r3, [r5, #12]
 8009fa8:	0598      	lsls	r0, r3, #22
 8009faa:	d4ed      	bmi.n	8009f88 <_vfiprintf_r+0x4c>
 8009fac:	6da8      	ldr	r0, [r5, #88]	; 0x58
 8009fae:	f7ff fee7 	bl	8009d80 <__retarget_lock_release_recursive>
 8009fb2:	e7e9      	b.n	8009f88 <_vfiprintf_r+0x4c>
 8009fb4:	2300      	movs	r3, #0
 8009fb6:	9309      	str	r3, [sp, #36]	; 0x24
 8009fb8:	2320      	movs	r3, #32
 8009fba:	f88d 3029 	strb.w	r3, [sp, #41]	; 0x29
 8009fbe:	f8cd 800c 	str.w	r8, [sp, #12]
 8009fc2:	2330      	movs	r3, #48	; 0x30
 8009fc4:	f8df 81c0 	ldr.w	r8, [pc, #448]	; 800a188 <_vfiprintf_r+0x24c>
 8009fc8:	f88d 302a 	strb.w	r3, [sp, #42]	; 0x2a
 8009fcc:	f04f 0901 	mov.w	r9, #1
 8009fd0:	4623      	mov	r3, r4
 8009fd2:	469a      	mov	sl, r3
 8009fd4:	f813 2b01 	ldrb.w	r2, [r3], #1
 8009fd8:	b10a      	cbz	r2, 8009fde <_vfiprintf_r+0xa2>
 8009fda:	2a25      	cmp	r2, #37	; 0x25
 8009fdc:	d1f9      	bne.n	8009fd2 <_vfiprintf_r+0x96>
 8009fde:	ebba 0b04 	subs.w	fp, sl, r4
 8009fe2:	d00b      	beq.n	8009ffc <_vfiprintf_r+0xc0>
 8009fe4:	465b      	mov	r3, fp
 8009fe6:	4622      	mov	r2, r4
 8009fe8:	4629      	mov	r1, r5
 8009fea:	4630      	mov	r0, r6
 8009fec:	f7ff ff93 	bl	8009f16 <__sfputs_r>
 8009ff0:	3001      	adds	r0, #1
 8009ff2:	f000 80aa 	beq.w	800a14a <_vfiprintf_r+0x20e>
 8009ff6:	9a09      	ldr	r2, [sp, #36]	; 0x24
 8009ff8:	445a      	add	r2, fp
 8009ffa:	9209      	str	r2, [sp, #36]	; 0x24
 8009ffc:	f89a 3000 	ldrb.w	r3, [sl]
 800a000:	2b00      	cmp	r3, #0
 800a002:	f000 80a2 	beq.w	800a14a <_vfiprintf_r+0x20e>
 800a006:	2300      	movs	r3, #0
 800a008:	f04f 32ff 	mov.w	r2, #4294967295	; 0xffffffff
 800a00c:	e9cd 2305 	strd	r2, r3, [sp, #20]
 800a010:	f10a 0a01 	add.w	sl, sl, #1
 800a014:	9304      	str	r3, [sp, #16]
 800a016:	9307      	str	r3, [sp, #28]
 800a018:	f88d 3053 	strb.w	r3, [sp, #83]	; 0x53
 800a01c:	931a      	str	r3, [sp, #104]	; 0x68
 800a01e:	4654      	mov	r4, sl
 800a020:	2205      	movs	r2, #5
 800a022:	f814 1b01 	ldrb.w	r1, [r4], #1
 800a026:	4858      	ldr	r0, [pc, #352]	; (800a188 <_vfiprintf_r+0x24c>)
 800a028:	f7fd fa72 	bl	8007510 <memchr>
 800a02c:	9a04      	ldr	r2, [sp, #16]
 800a02e:	b9d8      	cbnz	r0, 800a068 <_vfiprintf_r+0x12c>
 800a030:	06d1      	lsls	r1, r2, #27
 800a032:	bf44      	itt	mi
 800a034:	2320      	movmi	r3, #32
 800a036:	f88d 3053 	strbmi.w	r3, [sp, #83]	; 0x53
 800a03a:	0713      	lsls	r3, r2, #28
 800a03c:	bf44      	itt	mi
 800a03e:	232b      	movmi	r3, #43	; 0x2b
 800a040:	f88d 3053 	strbmi.w	r3, [sp, #83]	; 0x53
 800a044:	f89a 3000 	ldrb.w	r3, [sl]
 800a048:	2b2a      	cmp	r3, #42	; 0x2a
 800a04a:	d015      	beq.n	800a078 <_vfiprintf_r+0x13c>
 800a04c:	9a07      	ldr	r2, [sp, #28]
 800a04e:	4654      	mov	r4, sl
 800a050:	2000      	movs	r0, #0
 800a052:	f04f 0c0a 	mov.w	ip, #10
 800a056:	4621      	mov	r1, r4
 800a058:	f811 3b01 	ldrb.w	r3, [r1], #1
 800a05c:	3b30      	subs	r3, #48	; 0x30
 800a05e:	2b09      	cmp	r3, #9
 800a060:	d94e      	bls.n	800a100 <_vfiprintf_r+0x1c4>
 800a062:	b1b0      	cbz	r0, 800a092 <_vfiprintf_r+0x156>
 800a064:	9207      	str	r2, [sp, #28]
 800a066:	e014      	b.n	800a092 <_vfiprintf_r+0x156>
 800a068:	eba0 0308 	sub.w	r3, r0, r8
 800a06c:	fa09 f303 	lsl.w	r3, r9, r3
 800a070:	4313      	orrs	r3, r2
 800a072:	9304      	str	r3, [sp, #16]
 800a074:	46a2      	mov	sl, r4
 800a076:	e7d2      	b.n	800a01e <_vfiprintf_r+0xe2>
 800a078:	9b03      	ldr	r3, [sp, #12]
 800a07a:	1d19      	adds	r1, r3, #4
 800a07c:	681b      	ldr	r3, [r3, #0]
 800a07e:	9103      	str	r1, [sp, #12]
 800a080:	2b00      	cmp	r3, #0
 800a082:	bfbb      	ittet	lt
 800a084:	425b      	neglt	r3, r3
 800a086:	f042 0202 	orrlt.w	r2, r2, #2
 800a08a:	9307      	strge	r3, [sp, #28]
 800a08c:	9307      	strlt	r3, [sp, #28]
 800a08e:	bfb8      	it	lt
 800a090:	9204      	strlt	r2, [sp, #16]
 800a092:	7823      	ldrb	r3, [r4, #0]
 800a094:	2b2e      	cmp	r3, #46	; 0x2e
 800a096:	d10c      	bne.n	800a0b2 <_vfiprintf_r+0x176>
 800a098:	7863      	ldrb	r3, [r4, #1]
 800a09a:	2b2a      	cmp	r3, #42	; 0x2a
 800a09c:	d135      	bne.n	800a10a <_vfiprintf_r+0x1ce>
 800a09e:	9b03      	ldr	r3, [sp, #12]
 800a0a0:	1d1a      	adds	r2, r3, #4
 800a0a2:	681b      	ldr	r3, [r3, #0]
 800a0a4:	9203      	str	r2, [sp, #12]
 800a0a6:	2b00      	cmp	r3, #0
 800a0a8:	bfb8      	it	lt
 800a0aa:	f04f 33ff 	movlt.w	r3, #4294967295	; 0xffffffff
 800a0ae:	3402      	adds	r4, #2
 800a0b0:	9305      	str	r3, [sp, #20]
 800a0b2:	f8df a0e4 	ldr.w	sl, [pc, #228]	; 800a198 <_vfiprintf_r+0x25c>
 800a0b6:	7821      	ldrb	r1, [r4, #0]
 800a0b8:	2203      	movs	r2, #3
 800a0ba:	4650      	mov	r0, sl
 800a0bc:	f7fd fa28 	bl	8007510 <memchr>
 800a0c0:	b140      	cbz	r0, 800a0d4 <_vfiprintf_r+0x198>
 800a0c2:	2340      	movs	r3, #64	; 0x40
 800a0c4:	eba0 000a 	sub.w	r0, r0, sl
 800a0c8:	fa03 f000 	lsl.w	r0, r3, r0
 800a0cc:	9b04      	ldr	r3, [sp, #16]
 800a0ce:	4303      	orrs	r3, r0
 800a0d0:	3401      	adds	r4, #1
 800a0d2:	9304      	str	r3, [sp, #16]
 800a0d4:	f814 1b01 	ldrb.w	r1, [r4], #1
 800a0d8:	482c      	ldr	r0, [pc, #176]	; (800a18c <_vfiprintf_r+0x250>)
 800a0da:	f88d 1028 	strb.w	r1, [sp, #40]	; 0x28
 800a0de:	2206      	movs	r2, #6
 800a0e0:	f7fd fa16 	bl	8007510 <memchr>
 800a0e4:	2800      	cmp	r0, #0
 800a0e6:	d03f      	beq.n	800a168 <_vfiprintf_r+0x22c>
 800a0e8:	4b29      	ldr	r3, [pc, #164]	; (800a190 <_vfiprintf_r+0x254>)
 800a0ea:	bb1b      	cbnz	r3, 800a134 <_vfiprintf_r+0x1f8>
 800a0ec:	9b03      	ldr	r3, [sp, #12]
 800a0ee:	3307      	adds	r3, #7
 800a0f0:	f023 0307 	bic.w	r3, r3, #7
 800a0f4:	3308      	adds	r3, #8
 800a0f6:	9303      	str	r3, [sp, #12]
 800a0f8:	9b09      	ldr	r3, [sp, #36]	; 0x24
 800a0fa:	443b      	add	r3, r7
 800a0fc:	9309      	str	r3, [sp, #36]	; 0x24
 800a0fe:	e767      	b.n	8009fd0 <_vfiprintf_r+0x94>
 800a100:	fb0c 3202 	mla	r2, ip, r2, r3
 800a104:	460c      	mov	r4, r1
 800a106:	2001      	movs	r0, #1
 800a108:	e7a5      	b.n	800a056 <_vfiprintf_r+0x11a>
 800a10a:	2300      	movs	r3, #0
 800a10c:	3401      	adds	r4, #1
 800a10e:	9305      	str	r3, [sp, #20]
 800a110:	4619      	mov	r1, r3
 800a112:	f04f 0c0a 	mov.w	ip, #10
 800a116:	4620      	mov	r0, r4
 800a118:	f810 2b01 	ldrb.w	r2, [r0], #1
 800a11c:	3a30      	subs	r2, #48	; 0x30
 800a11e:	2a09      	cmp	r2, #9
 800a120:	d903      	bls.n	800a12a <_vfiprintf_r+0x1ee>
 800a122:	2b00      	cmp	r3, #0
 800a124:	d0c5      	beq.n	800a0b2 <_vfiprintf_r+0x176>
 800a126:	9105      	str	r1, [sp, #20]
 800a128:	e7c3      	b.n	800a0b2 <_vfiprintf_r+0x176>
 800a12a:	fb0c 2101 	mla	r1, ip, r1, r2
 800a12e:	4604      	mov	r4, r0
 800a130:	2301      	movs	r3, #1
 800a132:	e7f0      	b.n	800a116 <_vfiprintf_r+0x1da>
 800a134:	ab03      	add	r3, sp, #12
 800a136:	9300      	str	r3, [sp, #0]
 800a138:	462a      	mov	r2, r5
 800a13a:	4b16      	ldr	r3, [pc, #88]	; (800a194 <_vfiprintf_r+0x258>)
 800a13c:	a904      	add	r1, sp, #16
 800a13e:	4630      	mov	r0, r6
 800a140:	f3af 8000 	nop.w
 800a144:	4607      	mov	r7, r0
 800a146:	1c78      	adds	r0, r7, #1
 800a148:	d1d6      	bne.n	800a0f8 <_vfiprintf_r+0x1bc>
 800a14a:	6e6b      	ldr	r3, [r5, #100]	; 0x64
 800a14c:	07d9      	lsls	r1, r3, #31
 800a14e:	d405      	bmi.n	800a15c <_vfiprintf_r+0x220>
 800a150:	89ab      	ldrh	r3, [r5, #12]
 800a152:	059a      	lsls	r2, r3, #22
 800a154:	d402      	bmi.n	800a15c <_vfiprintf_r+0x220>
 800a156:	6da8      	ldr	r0, [r5, #88]	; 0x58
 800a158:	f7ff fe12 	bl	8009d80 <__retarget_lock_release_recursive>
 800a15c:	89ab      	ldrh	r3, [r5, #12]
 800a15e:	065b      	lsls	r3, r3, #25
 800a160:	f53f af12 	bmi.w	8009f88 <_vfiprintf_r+0x4c>
 800a164:	9809      	ldr	r0, [sp, #36]	; 0x24
 800a166:	e711      	b.n	8009f8c <_vfiprintf_r+0x50>
 800a168:	ab03      	add	r3, sp, #12
 800a16a:	9300      	str	r3, [sp, #0]
 800a16c:	462a      	mov	r2, r5
 800a16e:	4b09      	ldr	r3, [pc, #36]	; (800a194 <_vfiprintf_r+0x258>)
 800a170:	a904      	add	r1, sp, #16
 800a172:	4630      	mov	r0, r6
 800a174:	f000 f880 	bl	800a278 <_printf_i>
 800a178:	e7e4      	b.n	800a144 <_vfiprintf_r+0x208>
 800a17a:	bf00      	nop
 800a17c:	08010a68 	.word	0x08010a68
 800a180:	08010a88 	.word	0x08010a88
 800a184:	08010a48 	.word	0x08010a48
 800a188:	08010aac 	.word	0x08010aac
 800a18c:	08010ab6 	.word	0x08010ab6
 800a190:	00000000 	.word	0x00000000
 800a194:	08009f17 	.word	0x08009f17
 800a198:	08010ab2 	.word	0x08010ab2

0800a19c <_printf_common>:
 800a19c:	e92d 47f0 	stmdb	sp!, {r4, r5, r6, r7, r8, r9, sl, lr}
 800a1a0:	4616      	mov	r6, r2
 800a1a2:	4699      	mov	r9, r3
 800a1a4:	688a      	ldr	r2, [r1, #8]
 800a1a6:	690b      	ldr	r3, [r1, #16]
 800a1a8:	f8dd 8020 	ldr.w	r8, [sp, #32]
 800a1ac:	4293      	cmp	r3, r2
 800a1ae:	bfb8      	it	lt
 800a1b0:	4613      	movlt	r3, r2
 800a1b2:	6033      	str	r3, [r6, #0]
 800a1b4:	f891 2043 	ldrb.w	r2, [r1, #67]	; 0x43
 800a1b8:	4607      	mov	r7, r0
 800a1ba:	460c      	mov	r4, r1
 800a1bc:	b10a      	cbz	r2, 800a1c2 <_printf_common+0x26>
 800a1be:	3301      	adds	r3, #1
 800a1c0:	6033      	str	r3, [r6, #0]
 800a1c2:	6823      	ldr	r3, [r4, #0]
 800a1c4:	0699      	lsls	r1, r3, #26
 800a1c6:	bf42      	ittt	mi
 800a1c8:	6833      	ldrmi	r3, [r6, #0]
 800a1ca:	3302      	addmi	r3, #2
 800a1cc:	6033      	strmi	r3, [r6, #0]
 800a1ce:	6825      	ldr	r5, [r4, #0]
 800a1d0:	f015 0506 	ands.w	r5, r5, #6
 800a1d4:	d106      	bne.n	800a1e4 <_printf_common+0x48>
 800a1d6:	f104 0a19 	add.w	sl, r4, #25
 800a1da:	68e3      	ldr	r3, [r4, #12]
 800a1dc:	6832      	ldr	r2, [r6, #0]
 800a1de:	1a9b      	subs	r3, r3, r2
 800a1e0:	42ab      	cmp	r3, r5
 800a1e2:	dc26      	bgt.n	800a232 <_printf_common+0x96>
 800a1e4:	f894 2043 	ldrb.w	r2, [r4, #67]	; 0x43
 800a1e8:	1e13      	subs	r3, r2, #0
 800a1ea:	6822      	ldr	r2, [r4, #0]
 800a1ec:	bf18      	it	ne
 800a1ee:	2301      	movne	r3, #1
 800a1f0:	0692      	lsls	r2, r2, #26
 800a1f2:	d42b      	bmi.n	800a24c <_printf_common+0xb0>
 800a1f4:	f104 0243 	add.w	r2, r4, #67	; 0x43
 800a1f8:	4649      	mov	r1, r9
 800a1fa:	4638      	mov	r0, r7
 800a1fc:	47c0      	blx	r8
 800a1fe:	3001      	adds	r0, #1
 800a200:	d01e      	beq.n	800a240 <_printf_common+0xa4>
 800a202:	6823      	ldr	r3, [r4, #0]
 800a204:	68e5      	ldr	r5, [r4, #12]
 800a206:	6832      	ldr	r2, [r6, #0]
 800a208:	f003 0306 	and.w	r3, r3, #6
 800a20c:	2b04      	cmp	r3, #4
 800a20e:	bf08      	it	eq
 800a210:	1aad      	subeq	r5, r5, r2
 800a212:	68a3      	ldr	r3, [r4, #8]
 800a214:	6922      	ldr	r2, [r4, #16]
 800a216:	bf0c      	ite	eq
 800a218:	ea25 75e5 	biceq.w	r5, r5, r5, asr #31
 800a21c:	2500      	movne	r5, #0
 800a21e:	4293      	cmp	r3, r2
 800a220:	bfc4      	itt	gt
 800a222:	1a9b      	subgt	r3, r3, r2
 800a224:	18ed      	addgt	r5, r5, r3
 800a226:	2600      	movs	r6, #0
 800a228:	341a      	adds	r4, #26
 800a22a:	42b5      	cmp	r5, r6
 800a22c:	d11a      	bne.n	800a264 <_printf_common+0xc8>
 800a22e:	2000      	movs	r0, #0
 800a230:	e008      	b.n	800a244 <_printf_common+0xa8>
 800a232:	2301      	movs	r3, #1
 800a234:	4652      	mov	r2, sl
 800a236:	4649      	mov	r1, r9
 800a238:	4638      	mov	r0, r7
 800a23a:	47c0      	blx	r8
 800a23c:	3001      	adds	r0, #1
 800a23e:	d103      	bne.n	800a248 <_printf_common+0xac>
 800a240:	f04f 30ff 	mov.w	r0, #4294967295	; 0xffffffff
 800a244:	e8bd 87f0 	ldmia.w	sp!, {r4, r5, r6, r7, r8, r9, sl, pc}
 800a248:	3501      	adds	r5, #1
 800a24a:	e7c6      	b.n	800a1da <_printf_common+0x3e>
 800a24c:	18e1      	adds	r1, r4, r3
 800a24e:	1c5a      	adds	r2, r3, #1
 800a250:	2030      	movs	r0, #48	; 0x30
 800a252:	f881 0043 	strb.w	r0, [r1, #67]	; 0x43
 800a256:	4422      	add	r2, r4
 800a258:	f894 1045 	ldrb.w	r1, [r4, #69]	; 0x45
 800a25c:	f882 1043 	strb.w	r1, [r2, #67]	; 0x43
 800a260:	3302      	adds	r3, #2
 800a262:	e7c7      	b.n	800a1f4 <_printf_common+0x58>
 800a264:	2301      	movs	r3, #1
 800a266:	4622      	mov	r2, r4
 800a268:	4649      	mov	r1, r9
 800a26a:	4638      	mov	r0, r7
 800a26c:	47c0      	blx	r8
 800a26e:	3001      	adds	r0, #1
 800a270:	d0e6      	beq.n	800a240 <_printf_common+0xa4>
 800a272:	3601      	adds	r6, #1
 800a274:	e7d9      	b.n	800a22a <_printf_common+0x8e>
	...

0800a278 <_printf_i>:
 800a278:	e92d 47ff 	stmdb	sp!, {r0, r1, r2, r3, r4, r5, r6, r7, r8, r9, sl, lr}
 800a27c:	460c      	mov	r4, r1
 800a27e:	4691      	mov	r9, r2
 800a280:	7e27      	ldrb	r7, [r4, #24]
 800a282:	990c      	ldr	r1, [sp, #48]	; 0x30
 800a284:	2f78      	cmp	r7, #120	; 0x78
 800a286:	4680      	mov	r8, r0
 800a288:	469a      	mov	sl, r3
 800a28a:	f104 0243 	add.w	r2, r4, #67	; 0x43
 800a28e:	d807      	bhi.n	800a2a0 <_printf_i+0x28>
 800a290:	2f62      	cmp	r7, #98	; 0x62
 800a292:	d80a      	bhi.n	800a2aa <_printf_i+0x32>
 800a294:	2f00      	cmp	r7, #0
 800a296:	f000 80d8 	beq.w	800a44a <_printf_i+0x1d2>
 800a29a:	2f58      	cmp	r7, #88	; 0x58
 800a29c:	f000 80a3 	beq.w	800a3e6 <_printf_i+0x16e>
 800a2a0:	f104 0642 	add.w	r6, r4, #66	; 0x42
 800a2a4:	f884 7042 	strb.w	r7, [r4, #66]	; 0x42
 800a2a8:	e03a      	b.n	800a320 <_printf_i+0xa8>
 800a2aa:	f1a7 0363 	sub.w	r3, r7, #99	; 0x63
 800a2ae:	2b15      	cmp	r3, #21
 800a2b0:	d8f6      	bhi.n	800a2a0 <_printf_i+0x28>
 800a2b2:	a001      	add	r0, pc, #4	; (adr r0, 800a2b8 <_printf_i+0x40>)
 800a2b4:	f850 f023 	ldr.w	pc, [r0, r3, lsl #2]
 800a2b8:	0800a311 	.word	0x0800a311
 800a2bc:	0800a325 	.word	0x0800a325
 800a2c0:	0800a2a1 	.word	0x0800a2a1
 800a2c4:	0800a2a1 	.word	0x0800a2a1
 800a2c8:	0800a2a1 	.word	0x0800a2a1
 800a2cc:	0800a2a1 	.word	0x0800a2a1
 800a2d0:	0800a325 	.word	0x0800a325
 800a2d4:	0800a2a1 	.word	0x0800a2a1
 800a2d8:	0800a2a1 	.word	0x0800a2a1
 800a2dc:	0800a2a1 	.word	0x0800a2a1
 800a2e0:	0800a2a1 	.word	0x0800a2a1
 800a2e4:	0800a431 	.word	0x0800a431
 800a2e8:	0800a355 	.word	0x0800a355
 800a2ec:	0800a413 	.word	0x0800a413
 800a2f0:	0800a2a1 	.word	0x0800a2a1
 800a2f4:	0800a2a1 	.word	0x0800a2a1
 800a2f8:	0800a453 	.word	0x0800a453
 800a2fc:	0800a2a1 	.word	0x0800a2a1
 800a300:	0800a355 	.word	0x0800a355
 800a304:	0800a2a1 	.word	0x0800a2a1
 800a308:	0800a2a1 	.word	0x0800a2a1
 800a30c:	0800a41b 	.word	0x0800a41b
 800a310:	680b      	ldr	r3, [r1, #0]
 800a312:	1d1a      	adds	r2, r3, #4
 800a314:	681b      	ldr	r3, [r3, #0]
 800a316:	600a      	str	r2, [r1, #0]
 800a318:	f104 0642 	add.w	r6, r4, #66	; 0x42
 800a31c:	f884 3042 	strb.w	r3, [r4, #66]	; 0x42
 800a320:	2301      	movs	r3, #1
 800a322:	e0a3      	b.n	800a46c <_printf_i+0x1f4>
 800a324:	6825      	ldr	r5, [r4, #0]
 800a326:	6808      	ldr	r0, [r1, #0]
 800a328:	062e      	lsls	r6, r5, #24
 800a32a:	f100 0304 	add.w	r3, r0, #4
 800a32e:	d50a      	bpl.n	800a346 <_printf_i+0xce>
 800a330:	6805      	ldr	r5, [r0, #0]
 800a332:	600b      	str	r3, [r1, #0]
 800a334:	2d00      	cmp	r5, #0
 800a336:	da03      	bge.n	800a340 <_printf_i+0xc8>
 800a338:	232d      	movs	r3, #45	; 0x2d
 800a33a:	426d      	negs	r5, r5
 800a33c:	f884 3043 	strb.w	r3, [r4, #67]	; 0x43
 800a340:	485e      	ldr	r0, [pc, #376]	; (800a4bc <_printf_i+0x244>)
 800a342:	230a      	movs	r3, #10
 800a344:	e019      	b.n	800a37a <_printf_i+0x102>
 800a346:	f015 0f40 	tst.w	r5, #64	; 0x40
 800a34a:	6805      	ldr	r5, [r0, #0]
 800a34c:	600b      	str	r3, [r1, #0]
 800a34e:	bf18      	it	ne
 800a350:	b22d      	sxthne	r5, r5
 800a352:	e7ef      	b.n	800a334 <_printf_i+0xbc>
 800a354:	680b      	ldr	r3, [r1, #0]
 800a356:	6825      	ldr	r5, [r4, #0]
 800a358:	1d18      	adds	r0, r3, #4
 800a35a:	6008      	str	r0, [r1, #0]
 800a35c:	0628      	lsls	r0, r5, #24
 800a35e:	d501      	bpl.n	800a364 <_printf_i+0xec>
 800a360:	681d      	ldr	r5, [r3, #0]
 800a362:	e002      	b.n	800a36a <_printf_i+0xf2>
 800a364:	0669      	lsls	r1, r5, #25
 800a366:	d5fb      	bpl.n	800a360 <_printf_i+0xe8>
 800a368:	881d      	ldrh	r5, [r3, #0]
 800a36a:	4854      	ldr	r0, [pc, #336]	; (800a4bc <_printf_i+0x244>)
 800a36c:	2f6f      	cmp	r7, #111	; 0x6f
 800a36e:	bf0c      	ite	eq
 800a370:	2308      	moveq	r3, #8
 800a372:	230a      	movne	r3, #10
 800a374:	2100      	movs	r1, #0
 800a376:	f884 1043 	strb.w	r1, [r4, #67]	; 0x43
 800a37a:	6866      	ldr	r6, [r4, #4]
 800a37c:	60a6      	str	r6, [r4, #8]
 800a37e:	2e00      	cmp	r6, #0
 800a380:	bfa2      	ittt	ge
 800a382:	6821      	ldrge	r1, [r4, #0]
 800a384:	f021 0104 	bicge.w	r1, r1, #4
 800a388:	6021      	strge	r1, [r4, #0]
 800a38a:	b90d      	cbnz	r5, 800a390 <_printf_i+0x118>
 800a38c:	2e00      	cmp	r6, #0
 800a38e:	d04d      	beq.n	800a42c <_printf_i+0x1b4>
 800a390:	4616      	mov	r6, r2
 800a392:	fbb5 f1f3 	udiv	r1, r5, r3
 800a396:	fb03 5711 	mls	r7, r3, r1, r5
 800a39a:	5dc7      	ldrb	r7, [r0, r7]
 800a39c:	f806 7d01 	strb.w	r7, [r6, #-1]!
 800a3a0:	462f      	mov	r7, r5
 800a3a2:	42bb      	cmp	r3, r7
 800a3a4:	460d      	mov	r5, r1
 800a3a6:	d9f4      	bls.n	800a392 <_printf_i+0x11a>
 800a3a8:	2b08      	cmp	r3, #8
 800a3aa:	d10b      	bne.n	800a3c4 <_printf_i+0x14c>
 800a3ac:	6823      	ldr	r3, [r4, #0]
 800a3ae:	07df      	lsls	r7, r3, #31
 800a3b0:	d508      	bpl.n	800a3c4 <_printf_i+0x14c>
 800a3b2:	6923      	ldr	r3, [r4, #16]
 800a3b4:	6861      	ldr	r1, [r4, #4]
 800a3b6:	4299      	cmp	r1, r3
 800a3b8:	bfde      	ittt	le
 800a3ba:	2330      	movle	r3, #48	; 0x30
 800a3bc:	f806 3c01 	strble.w	r3, [r6, #-1]
 800a3c0:	f106 36ff 	addle.w	r6, r6, #4294967295	; 0xffffffff
 800a3c4:	1b92      	subs	r2, r2, r6
 800a3c6:	6122      	str	r2, [r4, #16]
 800a3c8:	f8cd a000 	str.w	sl, [sp]
 800a3cc:	464b      	mov	r3, r9
 800a3ce:	aa03      	add	r2, sp, #12
 800a3d0:	4621      	mov	r1, r4
 800a3d2:	4640      	mov	r0, r8
 800a3d4:	f7ff fee2 	bl	800a19c <_printf_common>
 800a3d8:	3001      	adds	r0, #1
 800a3da:	d14c      	bne.n	800a476 <_printf_i+0x1fe>
 800a3dc:	f04f 30ff 	mov.w	r0, #4294967295	; 0xffffffff
 800a3e0:	b004      	add	sp, #16
 800a3e2:	e8bd 87f0 	ldmia.w	sp!, {r4, r5, r6, r7, r8, r9, sl, pc}
 800a3e6:	4835      	ldr	r0, [pc, #212]	; (800a4bc <_printf_i+0x244>)
 800a3e8:	f884 7045 	strb.w	r7, [r4, #69]	; 0x45
 800a3ec:	6823      	ldr	r3, [r4, #0]
 800a3ee:	680e      	ldr	r6, [r1, #0]
 800a3f0:	061f      	lsls	r7, r3, #24
 800a3f2:	f856 5b04 	ldr.w	r5, [r6], #4
 800a3f6:	600e      	str	r6, [r1, #0]
 800a3f8:	d514      	bpl.n	800a424 <_printf_i+0x1ac>
 800a3fa:	07d9      	lsls	r1, r3, #31
 800a3fc:	bf44      	itt	mi
 800a3fe:	f043 0320 	orrmi.w	r3, r3, #32
 800a402:	6023      	strmi	r3, [r4, #0]
 800a404:	b91d      	cbnz	r5, 800a40e <_printf_i+0x196>
 800a406:	6823      	ldr	r3, [r4, #0]
 800a408:	f023 0320 	bic.w	r3, r3, #32
 800a40c:	6023      	str	r3, [r4, #0]
 800a40e:	2310      	movs	r3, #16
 800a410:	e7b0      	b.n	800a374 <_printf_i+0xfc>
 800a412:	6823      	ldr	r3, [r4, #0]
 800a414:	f043 0320 	orr.w	r3, r3, #32
 800a418:	6023      	str	r3, [r4, #0]
 800a41a:	2378      	movs	r3, #120	; 0x78
 800a41c:	4828      	ldr	r0, [pc, #160]	; (800a4c0 <_printf_i+0x248>)
 800a41e:	f884 3045 	strb.w	r3, [r4, #69]	; 0x45
 800a422:	e7e3      	b.n	800a3ec <_printf_i+0x174>
 800a424:	065e      	lsls	r6, r3, #25
 800a426:	bf48      	it	mi
 800a428:	b2ad      	uxthmi	r5, r5
 800a42a:	e7e6      	b.n	800a3fa <_printf_i+0x182>
 800a42c:	4616      	mov	r6, r2
 800a42e:	e7bb      	b.n	800a3a8 <_printf_i+0x130>
 800a430:	680b      	ldr	r3, [r1, #0]
 800a432:	6826      	ldr	r6, [r4, #0]
 800a434:	6960      	ldr	r0, [r4, #20]
 800a436:	1d1d      	adds	r5, r3, #4
 800a438:	600d      	str	r5, [r1, #0]
 800a43a:	0635      	lsls	r5, r6, #24
 800a43c:	681b      	ldr	r3, [r3, #0]
 800a43e:	d501      	bpl.n	800a444 <_printf_i+0x1cc>
 800a440:	6018      	str	r0, [r3, #0]
 800a442:	e002      	b.n	800a44a <_printf_i+0x1d2>
 800a444:	0671      	lsls	r1, r6, #25
 800a446:	d5fb      	bpl.n	800a440 <_printf_i+0x1c8>
 800a448:	8018      	strh	r0, [r3, #0]
 800a44a:	2300      	movs	r3, #0
 800a44c:	6123      	str	r3, [r4, #16]
 800a44e:	4616      	mov	r6, r2
 800a450:	e7ba      	b.n	800a3c8 <_printf_i+0x150>
 800a452:	680b      	ldr	r3, [r1, #0]
 800a454:	1d1a      	adds	r2, r3, #4
 800a456:	600a      	str	r2, [r1, #0]
 800a458:	681e      	ldr	r6, [r3, #0]
 800a45a:	6862      	ldr	r2, [r4, #4]
 800a45c:	2100      	movs	r1, #0
 800a45e:	4630      	mov	r0, r6
 800a460:	f7fd f856 	bl	8007510 <memchr>
 800a464:	b108      	cbz	r0, 800a46a <_printf_i+0x1f2>
 800a466:	1b80      	subs	r0, r0, r6
 800a468:	6060      	str	r0, [r4, #4]
 800a46a:	6863      	ldr	r3, [r4, #4]
 800a46c:	6123      	str	r3, [r4, #16]
 800a46e:	2300      	movs	r3, #0
 800a470:	f884 3043 	strb.w	r3, [r4, #67]	; 0x43
 800a474:	e7a8      	b.n	800a3c8 <_printf_i+0x150>
 800a476:	6923      	ldr	r3, [r4, #16]
 800a478:	4632      	mov	r2, r6
 800a47a:	4649      	mov	r1, r9
 800a47c:	4640      	mov	r0, r8
 800a47e:	47d0      	blx	sl
 800a480:	3001      	adds	r0, #1
 800a482:	d0ab      	beq.n	800a3dc <_printf_i+0x164>
 800a484:	6823      	ldr	r3, [r4, #0]
 800a486:	079b      	lsls	r3, r3, #30
 800a488:	d413      	bmi.n	800a4b2 <_printf_i+0x23a>
 800a48a:	68e0      	ldr	r0, [r4, #12]
 800a48c:	9b03      	ldr	r3, [sp, #12]
 800a48e:	4298      	cmp	r0, r3
 800a490:	bfb8      	it	lt
 800a492:	4618      	movlt	r0, r3
 800a494:	e7a4      	b.n	800a3e0 <_printf_i+0x168>
 800a496:	2301      	movs	r3, #1
 800a498:	4632      	mov	r2, r6
 800a49a:	4649      	mov	r1, r9
 800a49c:	4640      	mov	r0, r8
 800a49e:	47d0      	blx	sl
 800a4a0:	3001      	adds	r0, #1
 800a4a2:	d09b      	beq.n	800a3dc <_printf_i+0x164>
 800a4a4:	3501      	adds	r5, #1
 800a4a6:	68e3      	ldr	r3, [r4, #12]
 800a4a8:	9903      	ldr	r1, [sp, #12]
 800a4aa:	1a5b      	subs	r3, r3, r1
 800a4ac:	42ab      	cmp	r3, r5
 800a4ae:	dcf2      	bgt.n	800a496 <_printf_i+0x21e>
 800a4b0:	e7eb      	b.n	800a48a <_printf_i+0x212>
 800a4b2:	2500      	movs	r5, #0
 800a4b4:	f104 0619 	add.w	r6, r4, #25
 800a4b8:	e7f5      	b.n	800a4a6 <_printf_i+0x22e>
 800a4ba:	bf00      	nop
 800a4bc:	08010abd 	.word	0x08010abd
 800a4c0:	08010ace 	.word	0x08010ace

0800a4c4 <_sbrk_r>:
 800a4c4:	b538      	push	{r3, r4, r5, lr}
 800a4c6:	4d06      	ldr	r5, [pc, #24]	; (800a4e0 <_sbrk_r+0x1c>)
 800a4c8:	2300      	movs	r3, #0
 800a4ca:	4604      	mov	r4, r0
 800a4cc:	4608      	mov	r0, r1
 800a4ce:	602b      	str	r3, [r5, #0]
 800a4d0:	f7fe fa4e 	bl	8008970 <_sbrk>
 800a4d4:	1c43      	adds	r3, r0, #1
 800a4d6:	d102      	bne.n	800a4de <_sbrk_r+0x1a>
 800a4d8:	682b      	ldr	r3, [r5, #0]
 800a4da:	b103      	cbz	r3, 800a4de <_sbrk_r+0x1a>
 800a4dc:	6023      	str	r3, [r4, #0]
 800a4de:	bd38      	pop	{r3, r4, r5, pc}
 800a4e0:	200003f4 	.word	0x200003f4

0800a4e4 <__sread>:
 800a4e4:	b510      	push	{r4, lr}
 800a4e6:	460c      	mov	r4, r1
 800a4e8:	f9b1 100e 	ldrsh.w	r1, [r1, #14]
 800a4ec:	f000 f9d2 	bl	800a894 <_read_r>
 800a4f0:	2800      	cmp	r0, #0
 800a4f2:	bfab      	itete	ge
 800a4f4:	6d63      	ldrge	r3, [r4, #84]	; 0x54
 800a4f6:	89a3      	ldrhlt	r3, [r4, #12]
 800a4f8:	181b      	addge	r3, r3, r0
 800a4fa:	f423 5380 	biclt.w	r3, r3, #4096	; 0x1000
 800a4fe:	bfac      	ite	ge
 800a500:	6563      	strge	r3, [r4, #84]	; 0x54
 800a502:	81a3      	strhlt	r3, [r4, #12]
 800a504:	bd10      	pop	{r4, pc}

0800a506 <__swrite>:
 800a506:	e92d 41f0 	stmdb	sp!, {r4, r5, r6, r7, r8, lr}
 800a50a:	461f      	mov	r7, r3
 800a50c:	898b      	ldrh	r3, [r1, #12]
 800a50e:	05db      	lsls	r3, r3, #23
 800a510:	4605      	mov	r5, r0
 800a512:	460c      	mov	r4, r1
 800a514:	4616      	mov	r6, r2
 800a516:	d505      	bpl.n	800a524 <__swrite+0x1e>
 800a518:	f9b1 100e 	ldrsh.w	r1, [r1, #14]
 800a51c:	2302      	movs	r3, #2
 800a51e:	2200      	movs	r2, #0
 800a520:	f000 f90e 	bl	800a740 <_lseek_r>
 800a524:	89a3      	ldrh	r3, [r4, #12]
 800a526:	f9b4 100e 	ldrsh.w	r1, [r4, #14]
 800a52a:	f423 5380 	bic.w	r3, r3, #4096	; 0x1000
 800a52e:	81a3      	strh	r3, [r4, #12]
 800a530:	4632      	mov	r2, r6
 800a532:	463b      	mov	r3, r7
 800a534:	4628      	mov	r0, r5
 800a536:	e8bd 41f0 	ldmia.w	sp!, {r4, r5, r6, r7, r8, lr}
 800a53a:	f000 b869 	b.w	800a610 <_write_r>

0800a53e <__sseek>:
 800a53e:	b510      	push	{r4, lr}
 800a540:	460c      	mov	r4, r1
 800a542:	f9b1 100e 	ldrsh.w	r1, [r1, #14]
 800a546:	f000 f8fb 	bl	800a740 <_lseek_r>
 800a54a:	1c43      	adds	r3, r0, #1
 800a54c:	89a3      	ldrh	r3, [r4, #12]
 800a54e:	bf15      	itete	ne
 800a550:	6560      	strne	r0, [r4, #84]	; 0x54
 800a552:	f423 5380 	biceq.w	r3, r3, #4096	; 0x1000
 800a556:	f443 5380 	orrne.w	r3, r3, #4096	; 0x1000
 800a55a:	81a3      	strheq	r3, [r4, #12]
 800a55c:	bf18      	it	ne
 800a55e:	81a3      	strhne	r3, [r4, #12]
 800a560:	bd10      	pop	{r4, pc}

0800a562 <__sclose>:
 800a562:	f9b1 100e 	ldrsh.w	r1, [r1, #14]
 800a566:	f000 b8db 	b.w	800a720 <_close_r>
	...

0800a56c <__swbuf_r>:
 800a56c:	b5f8      	push	{r3, r4, r5, r6, r7, lr}
 800a56e:	460e      	mov	r6, r1
 800a570:	4614      	mov	r4, r2
 800a572:	4605      	mov	r5, r0
 800a574:	b118      	cbz	r0, 800a57e <__swbuf_r+0x12>
 800a576:	6983      	ldr	r3, [r0, #24]
 800a578:	b90b      	cbnz	r3, 800a57e <__swbuf_r+0x12>
 800a57a:	f7ff fb2b 	bl	8009bd4 <__sinit>
 800a57e:	4b21      	ldr	r3, [pc, #132]	; (800a604 <__swbuf_r+0x98>)
 800a580:	429c      	cmp	r4, r3
 800a582:	d12b      	bne.n	800a5dc <__swbuf_r+0x70>
 800a584:	686c      	ldr	r4, [r5, #4]
 800a586:	69a3      	ldr	r3, [r4, #24]
 800a588:	60a3      	str	r3, [r4, #8]
 800a58a:	89a3      	ldrh	r3, [r4, #12]
 800a58c:	071a      	lsls	r2, r3, #28
 800a58e:	d52f      	bpl.n	800a5f0 <__swbuf_r+0x84>
 800a590:	6923      	ldr	r3, [r4, #16]
 800a592:	b36b      	cbz	r3, 800a5f0 <__swbuf_r+0x84>
 800a594:	6923      	ldr	r3, [r4, #16]
 800a596:	6820      	ldr	r0, [r4, #0]
 800a598:	1ac0      	subs	r0, r0, r3
 800a59a:	6963      	ldr	r3, [r4, #20]
 800a59c:	b2f6      	uxtb	r6, r6
 800a59e:	4283      	cmp	r3, r0
 800a5a0:	4637      	mov	r7, r6
 800a5a2:	dc04      	bgt.n	800a5ae <__swbuf_r+0x42>
 800a5a4:	4621      	mov	r1, r4
 800a5a6:	4628      	mov	r0, r5
 800a5a8:	f7ff fa6e 	bl	8009a88 <_fflush_r>
 800a5ac:	bb30      	cbnz	r0, 800a5fc <__swbuf_r+0x90>
 800a5ae:	68a3      	ldr	r3, [r4, #8]
 800a5b0:	3b01      	subs	r3, #1
 800a5b2:	60a3      	str	r3, [r4, #8]
 800a5b4:	6823      	ldr	r3, [r4, #0]
 800a5b6:	1c5a      	adds	r2, r3, #1
 800a5b8:	6022      	str	r2, [r4, #0]
 800a5ba:	701e      	strb	r6, [r3, #0]
 800a5bc:	6963      	ldr	r3, [r4, #20]
 800a5be:	3001      	adds	r0, #1
 800a5c0:	4283      	cmp	r3, r0
 800a5c2:	d004      	beq.n	800a5ce <__swbuf_r+0x62>
 800a5c4:	89a3      	ldrh	r3, [r4, #12]
 800a5c6:	07db      	lsls	r3, r3, #31
 800a5c8:	d506      	bpl.n	800a5d8 <__swbuf_r+0x6c>
 800a5ca:	2e0a      	cmp	r6, #10
 800a5cc:	d104      	bne.n	800a5d8 <__swbuf_r+0x6c>
 800a5ce:	4621      	mov	r1, r4
 800a5d0:	4628      	mov	r0, r5
 800a5d2:	f7ff fa59 	bl	8009a88 <_fflush_r>
 800a5d6:	b988      	cbnz	r0, 800a5fc <__swbuf_r+0x90>
 800a5d8:	4638      	mov	r0, r7
 800a5da:	bdf8      	pop	{r3, r4, r5, r6, r7, pc}
 800a5dc:	4b0a      	ldr	r3, [pc, #40]	; (800a608 <__swbuf_r+0x9c>)
 800a5de:	429c      	cmp	r4, r3
 800a5e0:	d101      	bne.n	800a5e6 <__swbuf_r+0x7a>
 800a5e2:	68ac      	ldr	r4, [r5, #8]
 800a5e4:	e7cf      	b.n	800a586 <__swbuf_r+0x1a>
 800a5e6:	4b09      	ldr	r3, [pc, #36]	; (800a60c <__swbuf_r+0xa0>)
 800a5e8:	429c      	cmp	r4, r3
 800a5ea:	bf08      	it	eq
 800a5ec:	68ec      	ldreq	r4, [r5, #12]
 800a5ee:	e7ca      	b.n	800a586 <__swbuf_r+0x1a>
 800a5f0:	4621      	mov	r1, r4
 800a5f2:	4628      	mov	r0, r5
 800a5f4:	f000 f81e 	bl	800a634 <__swsetup_r>
 800a5f8:	2800      	cmp	r0, #0
 800a5fa:	d0cb      	beq.n	800a594 <__swbuf_r+0x28>
 800a5fc:	f04f 37ff 	mov.w	r7, #4294967295	; 0xffffffff
 800a600:	e7ea      	b.n	800a5d8 <__swbuf_r+0x6c>
 800a602:	bf00      	nop
 800a604:	08010a68 	.word	0x08010a68
 800a608:	08010a88 	.word	0x08010a88
 800a60c:	08010a48 	.word	0x08010a48

0800a610 <_write_r>:
 800a610:	b538      	push	{r3, r4, r5, lr}
 800a612:	4d07      	ldr	r5, [pc, #28]	; (800a630 <_write_r+0x20>)
 800a614:	4604      	mov	r4, r0
 800a616:	4608      	mov	r0, r1
 800a618:	4611      	mov	r1, r2
 800a61a:	2200      	movs	r2, #0
 800a61c:	602a      	str	r2, [r5, #0]
 800a61e:	461a      	mov	r2, r3
 800a620:	f7fe f970 	bl	8008904 <_write>
 800a624:	1c43      	adds	r3, r0, #1
 800a626:	d102      	bne.n	800a62e <_write_r+0x1e>
 800a628:	682b      	ldr	r3, [r5, #0]
 800a62a:	b103      	cbz	r3, 800a62e <_write_r+0x1e>
 800a62c:	6023      	str	r3, [r4, #0]
 800a62e:	bd38      	pop	{r3, r4, r5, pc}
 800a630:	200003f4 	.word	0x200003f4

0800a634 <__swsetup_r>:
 800a634:	4b32      	ldr	r3, [pc, #200]	; (800a700 <__swsetup_r+0xcc>)
 800a636:	b570      	push	{r4, r5, r6, lr}
 800a638:	681d      	ldr	r5, [r3, #0]
 800a63a:	4606      	mov	r6, r0
 800a63c:	460c      	mov	r4, r1
 800a63e:	b125      	cbz	r5, 800a64a <__swsetup_r+0x16>
 800a640:	69ab      	ldr	r3, [r5, #24]
 800a642:	b913      	cbnz	r3, 800a64a <__swsetup_r+0x16>
 800a644:	4628      	mov	r0, r5
 800a646:	f7ff fac5 	bl	8009bd4 <__sinit>
 800a64a:	4b2e      	ldr	r3, [pc, #184]	; (800a704 <__swsetup_r+0xd0>)
 800a64c:	429c      	cmp	r4, r3
 800a64e:	d10f      	bne.n	800a670 <__swsetup_r+0x3c>
 800a650:	686c      	ldr	r4, [r5, #4]
 800a652:	89a3      	ldrh	r3, [r4, #12]
 800a654:	f9b4 200c 	ldrsh.w	r2, [r4, #12]
 800a658:	0719      	lsls	r1, r3, #28
 800a65a:	d42c      	bmi.n	800a6b6 <__swsetup_r+0x82>
 800a65c:	06dd      	lsls	r5, r3, #27
 800a65e:	d411      	bmi.n	800a684 <__swsetup_r+0x50>
 800a660:	2309      	movs	r3, #9
 800a662:	6033      	str	r3, [r6, #0]
 800a664:	f042 0340 	orr.w	r3, r2, #64	; 0x40
 800a668:	81a3      	strh	r3, [r4, #12]
 800a66a:	f04f 30ff 	mov.w	r0, #4294967295	; 0xffffffff
 800a66e:	e03e      	b.n	800a6ee <__swsetup_r+0xba>
 800a670:	4b25      	ldr	r3, [pc, #148]	; (800a708 <__swsetup_r+0xd4>)
 800a672:	429c      	cmp	r4, r3
 800a674:	d101      	bne.n	800a67a <__swsetup_r+0x46>
 800a676:	68ac      	ldr	r4, [r5, #8]
 800a678:	e7eb      	b.n	800a652 <__swsetup_r+0x1e>
 800a67a:	4b24      	ldr	r3, [pc, #144]	; (800a70c <__swsetup_r+0xd8>)
 800a67c:	429c      	cmp	r4, r3
 800a67e:	bf08      	it	eq
 800a680:	68ec      	ldreq	r4, [r5, #12]
 800a682:	e7e6      	b.n	800a652 <__swsetup_r+0x1e>
 800a684:	0758      	lsls	r0, r3, #29
 800a686:	d512      	bpl.n	800a6ae <__swsetup_r+0x7a>
 800a688:	6b61      	ldr	r1, [r4, #52]	; 0x34
 800a68a:	b141      	cbz	r1, 800a69e <__swsetup_r+0x6a>
 800a68c:	f104 0344 	add.w	r3, r4, #68	; 0x44
 800a690:	4299      	cmp	r1, r3
 800a692:	d002      	beq.n	800a69a <__swsetup_r+0x66>
 800a694:	4630      	mov	r0, r6
 800a696:	f7ff fb7d 	bl	8009d94 <_free_r>
 800a69a:	2300      	movs	r3, #0
 800a69c:	6363      	str	r3, [r4, #52]	; 0x34
 800a69e:	89a3      	ldrh	r3, [r4, #12]
 800a6a0:	f023 0324 	bic.w	r3, r3, #36	; 0x24
 800a6a4:	81a3      	strh	r3, [r4, #12]
 800a6a6:	2300      	movs	r3, #0
 800a6a8:	6063      	str	r3, [r4, #4]
 800a6aa:	6923      	ldr	r3, [r4, #16]
 800a6ac:	6023      	str	r3, [r4, #0]
 800a6ae:	89a3      	ldrh	r3, [r4, #12]
 800a6b0:	f043 0308 	orr.w	r3, r3, #8
 800a6b4:	81a3      	strh	r3, [r4, #12]
 800a6b6:	6923      	ldr	r3, [r4, #16]
 800a6b8:	b94b      	cbnz	r3, 800a6ce <__swsetup_r+0x9a>
 800a6ba:	89a3      	ldrh	r3, [r4, #12]
 800a6bc:	f403 7320 	and.w	r3, r3, #640	; 0x280
 800a6c0:	f5b3 7f00 	cmp.w	r3, #512	; 0x200
 800a6c4:	d003      	beq.n	800a6ce <__swsetup_r+0x9a>
 800a6c6:	4621      	mov	r1, r4
 800a6c8:	4630      	mov	r0, r6
 800a6ca:	f000 f86f 	bl	800a7ac <__smakebuf_r>
 800a6ce:	89a0      	ldrh	r0, [r4, #12]
 800a6d0:	f9b4 200c 	ldrsh.w	r2, [r4, #12]
 800a6d4:	f010 0301 	ands.w	r3, r0, #1
 800a6d8:	d00a      	beq.n	800a6f0 <__swsetup_r+0xbc>
 800a6da:	2300      	movs	r3, #0
 800a6dc:	60a3      	str	r3, [r4, #8]
 800a6de:	6963      	ldr	r3, [r4, #20]
 800a6e0:	425b      	negs	r3, r3
 800a6e2:	61a3      	str	r3, [r4, #24]
 800a6e4:	6923      	ldr	r3, [r4, #16]
 800a6e6:	b943      	cbnz	r3, 800a6fa <__swsetup_r+0xc6>
 800a6e8:	f010 0080 	ands.w	r0, r0, #128	; 0x80
 800a6ec:	d1ba      	bne.n	800a664 <__swsetup_r+0x30>
 800a6ee:	bd70      	pop	{r4, r5, r6, pc}
 800a6f0:	0781      	lsls	r1, r0, #30
 800a6f2:	bf58      	it	pl
 800a6f4:	6963      	ldrpl	r3, [r4, #20]
 800a6f6:	60a3      	str	r3, [r4, #8]
 800a6f8:	e7f4      	b.n	800a6e4 <__swsetup_r+0xb0>
 800a6fa:	2000      	movs	r0, #0
 800a6fc:	e7f7      	b.n	800a6ee <__swsetup_r+0xba>
 800a6fe:	bf00      	nop
 800a700:	20000028 	.word	0x20000028
 800a704:	08010a68 	.word	0x08010a68
 800a708:	08010a88 	.word	0x08010a88
 800a70c:	08010a48 	.word	0x08010a48

0800a710 <abort>:
 800a710:	b508      	push	{r3, lr}
 800a712:	2006      	movs	r0, #6
 800a714:	f000 f8f8 	bl	800a908 <raise>
 800a718:	2001      	movs	r0, #1
 800a71a:	f000 f9b1 	bl	800aa80 <_exit>
	...

0800a720 <_close_r>:
 800a720:	b538      	push	{r3, r4, r5, lr}
 800a722:	4d06      	ldr	r5, [pc, #24]	; (800a73c <_close_r+0x1c>)
 800a724:	2300      	movs	r3, #0
 800a726:	4604      	mov	r4, r0
 800a728:	4608      	mov	r0, r1
 800a72a:	602b      	str	r3, [r5, #0]
 800a72c:	f7fe f8d4 	bl	80088d8 <_close>
 800a730:	1c43      	adds	r3, r0, #1
 800a732:	d102      	bne.n	800a73a <_close_r+0x1a>
 800a734:	682b      	ldr	r3, [r5, #0]
 800a736:	b103      	cbz	r3, 800a73a <_close_r+0x1a>
 800a738:	6023      	str	r3, [r4, #0]
 800a73a:	bd38      	pop	{r3, r4, r5, pc}
 800a73c:	200003f4 	.word	0x200003f4

0800a740 <_lseek_r>:
 800a740:	b538      	push	{r3, r4, r5, lr}
 800a742:	4d07      	ldr	r5, [pc, #28]	; (800a760 <_lseek_r+0x20>)
 800a744:	4604      	mov	r4, r0
 800a746:	4608      	mov	r0, r1
 800a748:	4611      	mov	r1, r2
 800a74a:	2200      	movs	r2, #0
 800a74c:	602a      	str	r2, [r5, #0]
 800a74e:	461a      	mov	r2, r3
 800a750:	f7fe f8ca 	bl	80088e8 <_lseek>
 800a754:	1c43      	adds	r3, r0, #1
 800a756:	d102      	bne.n	800a75e <_lseek_r+0x1e>
 800a758:	682b      	ldr	r3, [r5, #0]
 800a75a:	b103      	cbz	r3, 800a75e <_lseek_r+0x1e>
 800a75c:	6023      	str	r3, [r4, #0]
 800a75e:	bd38      	pop	{r3, r4, r5, pc}
 800a760:	200003f4 	.word	0x200003f4

0800a764 <__swhatbuf_r>:
 800a764:	b570      	push	{r4, r5, r6, lr}
 800a766:	460e      	mov	r6, r1
 800a768:	f9b1 100e 	ldrsh.w	r1, [r1, #14]
 800a76c:	2900      	cmp	r1, #0
 800a76e:	b096      	sub	sp, #88	; 0x58
 800a770:	4614      	mov	r4, r2
 800a772:	461d      	mov	r5, r3
 800a774:	da07      	bge.n	800a786 <__swhatbuf_r+0x22>
 800a776:	2300      	movs	r3, #0
 800a778:	602b      	str	r3, [r5, #0]
 800a77a:	89b3      	ldrh	r3, [r6, #12]
 800a77c:	061a      	lsls	r2, r3, #24
 800a77e:	d410      	bmi.n	800a7a2 <__swhatbuf_r+0x3e>
 800a780:	f44f 6380 	mov.w	r3, #1024	; 0x400
 800a784:	e00e      	b.n	800a7a4 <__swhatbuf_r+0x40>
 800a786:	466a      	mov	r2, sp
 800a788:	f000 f8da 	bl	800a940 <_fstat_r>
 800a78c:	2800      	cmp	r0, #0
 800a78e:	dbf2      	blt.n	800a776 <__swhatbuf_r+0x12>
 800a790:	9a01      	ldr	r2, [sp, #4]
 800a792:	f402 4270 	and.w	r2, r2, #61440	; 0xf000
 800a796:	f5a2 5300 	sub.w	r3, r2, #8192	; 0x2000
 800a79a:	425a      	negs	r2, r3
 800a79c:	415a      	adcs	r2, r3
 800a79e:	602a      	str	r2, [r5, #0]
 800a7a0:	e7ee      	b.n	800a780 <__swhatbuf_r+0x1c>
 800a7a2:	2340      	movs	r3, #64	; 0x40
 800a7a4:	2000      	movs	r0, #0
 800a7a6:	6023      	str	r3, [r4, #0]
 800a7a8:	b016      	add	sp, #88	; 0x58
 800a7aa:	bd70      	pop	{r4, r5, r6, pc}

0800a7ac <__smakebuf_r>:
 800a7ac:	898b      	ldrh	r3, [r1, #12]
 800a7ae:	b573      	push	{r0, r1, r4, r5, r6, lr}
 800a7b0:	079d      	lsls	r5, r3, #30
 800a7b2:	4606      	mov	r6, r0
 800a7b4:	460c      	mov	r4, r1
 800a7b6:	d507      	bpl.n	800a7c8 <__smakebuf_r+0x1c>
 800a7b8:	f104 0347 	add.w	r3, r4, #71	; 0x47
 800a7bc:	6023      	str	r3, [r4, #0]
 800a7be:	6123      	str	r3, [r4, #16]
 800a7c0:	2301      	movs	r3, #1
 800a7c2:	6163      	str	r3, [r4, #20]
 800a7c4:	b002      	add	sp, #8
 800a7c6:	bd70      	pop	{r4, r5, r6, pc}
 800a7c8:	ab01      	add	r3, sp, #4
 800a7ca:	466a      	mov	r2, sp
 800a7cc:	f7ff ffca 	bl	800a764 <__swhatbuf_r>
 800a7d0:	9900      	ldr	r1, [sp, #0]
 800a7d2:	4605      	mov	r5, r0
 800a7d4:	4630      	mov	r0, r6
 800a7d6:	f7ff fb2d 	bl	8009e34 <_malloc_r>
 800a7da:	b948      	cbnz	r0, 800a7f0 <__smakebuf_r+0x44>
 800a7dc:	f9b4 300c 	ldrsh.w	r3, [r4, #12]
 800a7e0:	059a      	lsls	r2, r3, #22
 800a7e2:	d4ef      	bmi.n	800a7c4 <__smakebuf_r+0x18>
 800a7e4:	f023 0303 	bic.w	r3, r3, #3
 800a7e8:	f043 0302 	orr.w	r3, r3, #2
 800a7ec:	81a3      	strh	r3, [r4, #12]
 800a7ee:	e7e3      	b.n	800a7b8 <__smakebuf_r+0xc>
 800a7f0:	4b0d      	ldr	r3, [pc, #52]	; (800a828 <__smakebuf_r+0x7c>)
 800a7f2:	62b3      	str	r3, [r6, #40]	; 0x28
 800a7f4:	89a3      	ldrh	r3, [r4, #12]
 800a7f6:	6020      	str	r0, [r4, #0]
 800a7f8:	f043 0380 	orr.w	r3, r3, #128	; 0x80
 800a7fc:	81a3      	strh	r3, [r4, #12]
 800a7fe:	9b00      	ldr	r3, [sp, #0]
 800a800:	6163      	str	r3, [r4, #20]
 800a802:	9b01      	ldr	r3, [sp, #4]
 800a804:	6120      	str	r0, [r4, #16]
 800a806:	b15b      	cbz	r3, 800a820 <__smakebuf_r+0x74>
 800a808:	f9b4 100e 	ldrsh.w	r1, [r4, #14]
 800a80c:	4630      	mov	r0, r6
 800a80e:	f000 f8a9 	bl	800a964 <_isatty_r>
 800a812:	b128      	cbz	r0, 800a820 <__smakebuf_r+0x74>
 800a814:	89a3      	ldrh	r3, [r4, #12]
 800a816:	f023 0303 	bic.w	r3, r3, #3
 800a81a:	f043 0301 	orr.w	r3, r3, #1
 800a81e:	81a3      	strh	r3, [r4, #12]
 800a820:	89a0      	ldrh	r0, [r4, #12]
 800a822:	4305      	orrs	r5, r0
 800a824:	81a5      	strh	r5, [r4, #12]
 800a826:	e7cd      	b.n	800a7c4 <__smakebuf_r+0x18>
 800a828:	08009b6d 	.word	0x08009b6d

0800a82c <memcpy>:
 800a82c:	440a      	add	r2, r1
 800a82e:	4291      	cmp	r1, r2
 800a830:	f100 33ff 	add.w	r3, r0, #4294967295	; 0xffffffff
 800a834:	d100      	bne.n	800a838 <memcpy+0xc>
 800a836:	4770      	bx	lr
 800a838:	b510      	push	{r4, lr}
 800a83a:	f811 4b01 	ldrb.w	r4, [r1], #1
 800a83e:	f803 4f01 	strb.w	r4, [r3, #1]!
 800a842:	4291      	cmp	r1, r2
 800a844:	d1f9      	bne.n	800a83a <memcpy+0xe>
 800a846:	bd10      	pop	{r4, pc}

0800a848 <memmove>:
 800a848:	4288      	cmp	r0, r1
 800a84a:	b510      	push	{r4, lr}
 800a84c:	eb01 0402 	add.w	r4, r1, r2
 800a850:	d902      	bls.n	800a858 <memmove+0x10>
 800a852:	4284      	cmp	r4, r0
 800a854:	4623      	mov	r3, r4
 800a856:	d807      	bhi.n	800a868 <memmove+0x20>
 800a858:	1e43      	subs	r3, r0, #1
 800a85a:	42a1      	cmp	r1, r4
 800a85c:	d008      	beq.n	800a870 <memmove+0x28>
 800a85e:	f811 2b01 	ldrb.w	r2, [r1], #1
 800a862:	f803 2f01 	strb.w	r2, [r3, #1]!
 800a866:	e7f8      	b.n	800a85a <memmove+0x12>
 800a868:	4402      	add	r2, r0
 800a86a:	4601      	mov	r1, r0
 800a86c:	428a      	cmp	r2, r1
 800a86e:	d100      	bne.n	800a872 <memmove+0x2a>
 800a870:	bd10      	pop	{r4, pc}
 800a872:	f813 4d01 	ldrb.w	r4, [r3, #-1]!
 800a876:	f802 4d01 	strb.w	r4, [r2, #-1]!
 800a87a:	e7f7      	b.n	800a86c <memmove+0x24>

0800a87c <__malloc_lock>:
 800a87c:	4801      	ldr	r0, [pc, #4]	; (800a884 <__malloc_lock+0x8>)
 800a87e:	f7ff ba7e 	b.w	8009d7e <__retarget_lock_acquire_recursive>
 800a882:	bf00      	nop
 800a884:	200003ec 	.word	0x200003ec

0800a888 <__malloc_unlock>:
 800a888:	4801      	ldr	r0, [pc, #4]	; (800a890 <__malloc_unlock+0x8>)
 800a88a:	f7ff ba79 	b.w	8009d80 <__retarget_lock_release_recursive>
 800a88e:	bf00      	nop
 800a890:	200003ec 	.word	0x200003ec

0800a894 <_read_r>:
 800a894:	b538      	push	{r3, r4, r5, lr}
 800a896:	4d07      	ldr	r5, [pc, #28]	; (800a8b4 <_read_r+0x20>)
 800a898:	4604      	mov	r4, r0
 800a89a:	4608      	mov	r0, r1
 800a89c:	4611      	mov	r1, r2
 800a89e:	2200      	movs	r2, #0
 800a8a0:	602a      	str	r2, [r5, #0]
 800a8a2:	461a      	mov	r2, r3
 800a8a4:	f7fe f82a 	bl	80088fc <_read>
 800a8a8:	1c43      	adds	r3, r0, #1
 800a8aa:	d102      	bne.n	800a8b2 <_read_r+0x1e>
 800a8ac:	682b      	ldr	r3, [r5, #0]
 800a8ae:	b103      	cbz	r3, 800a8b2 <_read_r+0x1e>
 800a8b0:	6023      	str	r3, [r4, #0]
 800a8b2:	bd38      	pop	{r3, r4, r5, pc}
 800a8b4:	200003f4 	.word	0x200003f4

0800a8b8 <_raise_r>:
 800a8b8:	291f      	cmp	r1, #31
 800a8ba:	b538      	push	{r3, r4, r5, lr}
 800a8bc:	4604      	mov	r4, r0
 800a8be:	460d      	mov	r5, r1
 800a8c0:	d904      	bls.n	800a8cc <_raise_r+0x14>
 800a8c2:	2316      	movs	r3, #22
 800a8c4:	6003      	str	r3, [r0, #0]
 800a8c6:	f04f 30ff 	mov.w	r0, #4294967295	; 0xffffffff
 800a8ca:	bd38      	pop	{r3, r4, r5, pc}
 800a8cc:	6c42      	ldr	r2, [r0, #68]	; 0x44
 800a8ce:	b112      	cbz	r2, 800a8d6 <_raise_r+0x1e>
 800a8d0:	f852 3021 	ldr.w	r3, [r2, r1, lsl #2]
 800a8d4:	b94b      	cbnz	r3, 800a8ea <_raise_r+0x32>
 800a8d6:	4620      	mov	r0, r4
 800a8d8:	f000 f830 	bl	800a93c <_getpid_r>
 800a8dc:	462a      	mov	r2, r5
 800a8de:	4601      	mov	r1, r0
 800a8e0:	4620      	mov	r0, r4
 800a8e2:	e8bd 4038 	ldmia.w	sp!, {r3, r4, r5, lr}
 800a8e6:	f000 b817 	b.w	800a918 <_kill_r>
 800a8ea:	2b01      	cmp	r3, #1
 800a8ec:	d00a      	beq.n	800a904 <_raise_r+0x4c>
 800a8ee:	1c59      	adds	r1, r3, #1
 800a8f0:	d103      	bne.n	800a8fa <_raise_r+0x42>
 800a8f2:	2316      	movs	r3, #22
 800a8f4:	6003      	str	r3, [r0, #0]
 800a8f6:	2001      	movs	r0, #1
 800a8f8:	e7e7      	b.n	800a8ca <_raise_r+0x12>
 800a8fa:	2400      	movs	r4, #0
 800a8fc:	f842 4025 	str.w	r4, [r2, r5, lsl #2]
 800a900:	4628      	mov	r0, r5
 800a902:	4798      	blx	r3
 800a904:	2000      	movs	r0, #0
 800a906:	e7e0      	b.n	800a8ca <_raise_r+0x12>

0800a908 <raise>:
 800a908:	4b02      	ldr	r3, [pc, #8]	; (800a914 <raise+0xc>)
 800a90a:	4601      	mov	r1, r0
 800a90c:	6818      	ldr	r0, [r3, #0]
 800a90e:	f7ff bfd3 	b.w	800a8b8 <_raise_r>
 800a912:	bf00      	nop
 800a914:	20000028 	.word	0x20000028

0800a918 <_kill_r>:
 800a918:	b538      	push	{r3, r4, r5, lr}
 800a91a:	4d07      	ldr	r5, [pc, #28]	; (800a938 <_kill_r+0x20>)
 800a91c:	2300      	movs	r3, #0
 800a91e:	4604      	mov	r4, r0
 800a920:	4608      	mov	r0, r1
 800a922:	4611      	mov	r1, r2
 800a924:	602b      	str	r3, [r5, #0]
 800a926:	f7fd ffe1 	bl	80088ec <_kill>
 800a92a:	1c43      	adds	r3, r0, #1
 800a92c:	d102      	bne.n	800a934 <_kill_r+0x1c>
 800a92e:	682b      	ldr	r3, [r5, #0]
 800a930:	b103      	cbz	r3, 800a934 <_kill_r+0x1c>
 800a932:	6023      	str	r3, [r4, #0]
 800a934:	bd38      	pop	{r3, r4, r5, pc}
 800a936:	bf00      	nop
 800a938:	200003f4 	.word	0x200003f4

0800a93c <_getpid_r>:
 800a93c:	f7fd bfd0 	b.w	80088e0 <_getpid>

0800a940 <_fstat_r>:
 800a940:	b538      	push	{r3, r4, r5, lr}
 800a942:	4d07      	ldr	r5, [pc, #28]	; (800a960 <_fstat_r+0x20>)
 800a944:	2300      	movs	r3, #0
 800a946:	4604      	mov	r4, r0
 800a948:	4608      	mov	r0, r1
 800a94a:	4611      	mov	r1, r2
 800a94c:	602b      	str	r3, [r5, #0]
 800a94e:	f7fd ffbd 	bl	80088cc <_fstat>
 800a952:	1c43      	adds	r3, r0, #1
 800a954:	d102      	bne.n	800a95c <_fstat_r+0x1c>
 800a956:	682b      	ldr	r3, [r5, #0]
 800a958:	b103      	cbz	r3, 800a95c <_fstat_r+0x1c>
 800a95a:	6023      	str	r3, [r4, #0]
 800a95c:	bd38      	pop	{r3, r4, r5, pc}
 800a95e:	bf00      	nop
 800a960:	200003f4 	.word	0x200003f4

0800a964 <_isatty_r>:
 800a964:	b538      	push	{r3, r4, r5, lr}
 800a966:	4d06      	ldr	r5, [pc, #24]	; (800a980 <_isatty_r+0x1c>)
 800a968:	2300      	movs	r3, #0
 800a96a:	4604      	mov	r4, r0
 800a96c:	4608      	mov	r0, r1
 800a96e:	602b      	str	r3, [r5, #0]
 800a970:	f7fd ffb8 	bl	80088e4 <_isatty>
 800a974:	1c43      	adds	r3, r0, #1
 800a976:	d102      	bne.n	800a97e <_isatty_r+0x1a>
 800a978:	682b      	ldr	r3, [r5, #0]
 800a97a:	b103      	cbz	r3, 800a97e <_isatty_r+0x1a>
 800a97c:	6023      	str	r3, [r4, #0]
 800a97e:	bd38      	pop	{r3, r4, r5, pc}
 800a980:	200003f4 	.word	0x200003f4

0800a984 <_fwrite_r>:
 800a984:	e92d 43f8 	stmdb	sp!, {r3, r4, r5, r6, r7, r8, r9, lr}
 800a988:	9c08      	ldr	r4, [sp, #32]
 800a98a:	4689      	mov	r9, r1
 800a98c:	4617      	mov	r7, r2
 800a98e:	fb02 f803 	mul.w	r8, r2, r3
 800a992:	4605      	mov	r5, r0
 800a994:	b118      	cbz	r0, 800a99e <_fwrite_r+0x1a>
 800a996:	6983      	ldr	r3, [r0, #24]
 800a998:	b90b      	cbnz	r3, 800a99e <_fwrite_r+0x1a>
 800a99a:	f7ff f91b 	bl	8009bd4 <__sinit>
 800a99e:	4b26      	ldr	r3, [pc, #152]	; (800aa38 <_fwrite_r+0xb4>)
 800a9a0:	429c      	cmp	r4, r3
 800a9a2:	d123      	bne.n	800a9ec <_fwrite_r+0x68>
 800a9a4:	686c      	ldr	r4, [r5, #4]
 800a9a6:	6e63      	ldr	r3, [r4, #100]	; 0x64
 800a9a8:	07de      	lsls	r6, r3, #31
 800a9aa:	d405      	bmi.n	800a9b8 <_fwrite_r+0x34>
 800a9ac:	89a3      	ldrh	r3, [r4, #12]
 800a9ae:	0598      	lsls	r0, r3, #22
 800a9b0:	d402      	bmi.n	800a9b8 <_fwrite_r+0x34>
 800a9b2:	6da0      	ldr	r0, [r4, #88]	; 0x58
 800a9b4:	f7ff f9e3 	bl	8009d7e <__retarget_lock_acquire_recursive>
 800a9b8:	89a3      	ldrh	r3, [r4, #12]
 800a9ba:	0719      	lsls	r1, r3, #28
 800a9bc:	d520      	bpl.n	800aa00 <_fwrite_r+0x7c>
 800a9be:	6923      	ldr	r3, [r4, #16]
 800a9c0:	b1f3      	cbz	r3, 800aa00 <_fwrite_r+0x7c>
 800a9c2:	2600      	movs	r6, #0
 800a9c4:	4546      	cmp	r6, r8
 800a9c6:	d029      	beq.n	800aa1c <_fwrite_r+0x98>
 800a9c8:	68a0      	ldr	r0, [r4, #8]
 800a9ca:	f819 1006 	ldrb.w	r1, [r9, r6]
 800a9ce:	3801      	subs	r0, #1
 800a9d0:	2800      	cmp	r0, #0
 800a9d2:	60a0      	str	r0, [r4, #8]
 800a9d4:	da04      	bge.n	800a9e0 <_fwrite_r+0x5c>
 800a9d6:	69a3      	ldr	r3, [r4, #24]
 800a9d8:	4298      	cmp	r0, r3
 800a9da:	db19      	blt.n	800aa10 <_fwrite_r+0x8c>
 800a9dc:	290a      	cmp	r1, #10
 800a9de:	d017      	beq.n	800aa10 <_fwrite_r+0x8c>
 800a9e0:	6823      	ldr	r3, [r4, #0]
 800a9e2:	1c5a      	adds	r2, r3, #1
 800a9e4:	6022      	str	r2, [r4, #0]
 800a9e6:	7019      	strb	r1, [r3, #0]
 800a9e8:	3601      	adds	r6, #1
 800a9ea:	e7eb      	b.n	800a9c4 <_fwrite_r+0x40>
 800a9ec:	4b13      	ldr	r3, [pc, #76]	; (800aa3c <_fwrite_r+0xb8>)
 800a9ee:	429c      	cmp	r4, r3
 800a9f0:	d101      	bne.n	800a9f6 <_fwrite_r+0x72>
 800a9f2:	68ac      	ldr	r4, [r5, #8]
 800a9f4:	e7d7      	b.n	800a9a6 <_fwrite_r+0x22>
 800a9f6:	4b12      	ldr	r3, [pc, #72]	; (800aa40 <_fwrite_r+0xbc>)
 800a9f8:	429c      	cmp	r4, r3
 800a9fa:	bf08      	it	eq
 800a9fc:	68ec      	ldreq	r4, [r5, #12]
 800a9fe:	e7d2      	b.n	800a9a6 <_fwrite_r+0x22>
 800aa00:	4621      	mov	r1, r4
 800aa02:	4628      	mov	r0, r5
 800aa04:	f7ff fe16 	bl	800a634 <__swsetup_r>
 800aa08:	2800      	cmp	r0, #0
 800aa0a:	d0da      	beq.n	800a9c2 <_fwrite_r+0x3e>
 800aa0c:	2600      	movs	r6, #0
 800aa0e:	e005      	b.n	800aa1c <_fwrite_r+0x98>
 800aa10:	4622      	mov	r2, r4
 800aa12:	4628      	mov	r0, r5
 800aa14:	f7ff fdaa 	bl	800a56c <__swbuf_r>
 800aa18:	3001      	adds	r0, #1
 800aa1a:	d1e5      	bne.n	800a9e8 <_fwrite_r+0x64>
 800aa1c:	6e63      	ldr	r3, [r4, #100]	; 0x64
 800aa1e:	07da      	lsls	r2, r3, #31
 800aa20:	d405      	bmi.n	800aa2e <_fwrite_r+0xaa>
 800aa22:	89a3      	ldrh	r3, [r4, #12]
 800aa24:	059b      	lsls	r3, r3, #22
 800aa26:	d402      	bmi.n	800aa2e <_fwrite_r+0xaa>
 800aa28:	6da0      	ldr	r0, [r4, #88]	; 0x58
 800aa2a:	f7ff f9a9 	bl	8009d80 <__retarget_lock_release_recursive>
 800aa2e:	fbb6 f0f7 	udiv	r0, r6, r7
 800aa32:	e8bd 83f8 	ldmia.w	sp!, {r3, r4, r5, r6, r7, r8, r9, pc}
 800aa36:	bf00      	nop
 800aa38:	08010a68 	.word	0x08010a68
 800aa3c:	08010a88 	.word	0x08010a88
 800aa40:	08010a48 	.word	0x08010a48

0800aa44 <fwrite>:
 800aa44:	b507      	push	{r0, r1, r2, lr}
 800aa46:	9300      	str	r3, [sp, #0]
 800aa48:	4613      	mov	r3, r2
 800aa4a:	460a      	mov	r2, r1
 800aa4c:	4601      	mov	r1, r0
 800aa4e:	4803      	ldr	r0, [pc, #12]	; (800aa5c <fwrite+0x18>)
 800aa50:	6800      	ldr	r0, [r0, #0]
 800aa52:	f7ff ff97 	bl	800a984 <_fwrite_r>
 800aa56:	b003      	add	sp, #12
 800aa58:	f85d fb04 	ldr.w	pc, [sp], #4
 800aa5c:	20000028 	.word	0x20000028

0800aa60 <malloc>:
 800aa60:	4b02      	ldr	r3, [pc, #8]	; (800aa6c <malloc+0xc>)
 800aa62:	4601      	mov	r1, r0
 800aa64:	6818      	ldr	r0, [r3, #0]
 800aa66:	f7ff b9e5 	b.w	8009e34 <_malloc_r>
 800aa6a:	bf00      	nop
 800aa6c:	20000028 	.word	0x20000028

0800aa70 <free>:
 800aa70:	4b02      	ldr	r3, [pc, #8]	; (800aa7c <free+0xc>)
 800aa72:	4601      	mov	r1, r0
 800aa74:	6818      	ldr	r0, [r3, #0]
 800aa76:	f7ff b98d 	b.w	8009d94 <_free_r>
 800aa7a:	bf00      	nop
 800aa7c:	20000028 	.word	0x20000028

0800aa80 <_exit>:
 800aa80:	e7fe      	b.n	800aa80 <_exit>
 800aa82:	bf00      	nop

0800aa84 <out_func>:

static void out_func(char character, void *arg)
{
	print_buffer_t *buf = arg;

	buf->buffer[buf->position++] = character;
 800aa84:	f8b1 30c8 	ldrh.w	r3, [r1, #200]	; 0xc8
 800aa88:	1c5a      	adds	r2, r3, #1
 800aa8a:	b292      	uxth	r2, r2
	if (buf->position == BUF_SIZE)
 800aa8c:	2ac8      	cmp	r2, #200	; 0xc8
	buf->buffer[buf->position++] = character;
 800aa8e:	f8a1 20c8 	strh.w	r2, [r1, #200]	; 0xc8
 800aa92:	54c8      	strb	r0, [r1, r3]
	if (buf->position == BUF_SIZE)
 800aa94:	d000      	beq.n	800aa98 <out_func+0x14>
 800aa96:	4770      	bx	lr
{
 800aa98:	b510      	push	{r4, lr}
	{
		_write(0, buf->buffer, BUF_SIZE);
 800aa9a:	2000      	movs	r0, #0
 800aa9c:	460c      	mov	r4, r1
 800aa9e:	f7fd ff31 	bl	8008904 <_write>
		buf->position = 0;
 800aaa2:	2300      	movs	r3, #0
 800aaa4:	f8a4 30c8 	strh.w	r3, [r4, #200]	; 0xc8
	}
}
 800aaa8:	bd10      	pop	{r4, pc}
 800aaaa:	bf00      	nop

0800aaac <__wrap_puts>:


int __wrap_puts(const char *str)
{
 800aaac:	b500      	push	{lr}
 800aaae:	b083      	sub	sp, #12
 800aab0:	9001      	str	r0, [sp, #4]
	size_t len = strlen(str);
 800aab2:	f7fc fd7d 	bl	80075b0 <strlen>

	_write(0, str, len);
 800aab6:	9901      	ldr	r1, [sp, #4]
	size_t len = strlen(str);
 800aab8:	4602      	mov	r2, r0
	_write(0, str, len);
 800aaba:	2000      	movs	r0, #0
 800aabc:	f7fd ff22 	bl	8008904 <_write>
	_write(0, "\n", 1);
 800aac0:	4904      	ldr	r1, [pc, #16]	; (800aad4 <__wrap_puts+0x28>)
 800aac2:	2201      	movs	r2, #1
 800aac4:	2000      	movs	r0, #0
 800aac6:	f7fd ff1d 	bl	8008904 <_write>
	return 0;
}
 800aaca:	2000      	movs	r0, #0
 800aacc:	b003      	add	sp, #12
 800aace:	f85d fb04 	ldr.w	pc, [sp], #4
 800aad2:	bf00      	nop
 800aad4:	08010268 	.word	0x08010268

0800aad8 <__wrap_printf>:
	return 0;
}


int __wrap_printf(const char *format, ...)
{
 800aad8:	b40f      	push	{r0, r1, r2, r3}
 800aada:	b530      	push	{r4, r5, lr}
 800aadc:	b0b5      	sub	sp, #212	; 0xd4
 800aade:	ac38      	add	r4, sp, #224	; 0xe0
	print_buffer_t buf = {
 800aae0:	490e      	ldr	r1, [pc, #56]	; (800ab1c <__wrap_printf+0x44>)
{
 800aae2:	f854 5b04 	ldr.w	r5, [r4], #4
	print_buffer_t buf = {
 800aae6:	22ca      	movs	r2, #202	; 0xca
 800aae8:	a801      	add	r0, sp, #4
 800aaea:	f7ff fe9f 	bl	800a82c <memcpy>
		.buffer   = {0}
	};
	va_list        va;

	va_start(va, format);
	int ret = fctvprintf(out_func, &buf, format, va);
 800aaee:	462a      	mov	r2, r5
 800aaf0:	4623      	mov	r3, r4
 800aaf2:	480b      	ldr	r0, [pc, #44]	; (800ab20 <__wrap_printf+0x48>)
	va_start(va, format);
 800aaf4:	9400      	str	r4, [sp, #0]
	int ret = fctvprintf(out_func, &buf, format, va);
 800aaf6:	a901      	add	r1, sp, #4
 800aaf8:	f000 fd54 	bl	800b5a4 <fctvprintf>
	if (buf.position != 0)
 800aafc:	f8bd 20cc 	ldrh.w	r2, [sp, #204]	; 0xcc
	int ret = fctvprintf(out_func, &buf, format, va);
 800ab00:	4604      	mov	r4, r0
	if (buf.position != 0)
 800ab02:	b92a      	cbnz	r2, 800ab10 <__wrap_printf+0x38>
	}

	va_end(va);

	return ret;
}
 800ab04:	4620      	mov	r0, r4
 800ab06:	b035      	add	sp, #212	; 0xd4
 800ab08:	e8bd 4030 	ldmia.w	sp!, {r4, r5, lr}
 800ab0c:	b004      	add	sp, #16
 800ab0e:	4770      	bx	lr
		_write(0, buf.buffer, buf.position);
 800ab10:	a901      	add	r1, sp, #4
 800ab12:	2000      	movs	r0, #0
 800ab14:	f7fd fef6 	bl	8008904 <_write>
	return ret;
 800ab18:	e7f4      	b.n	800ab04 <__wrap_printf+0x2c>
 800ab1a:	bf00      	nop
 800ab1c:	0800f420 	.word	0x0800f420
 800ab20:	0800aa85 	.word	0x0800aa85

0800ab24 <__wrap_vsnprintf>:
}


int __wrap_vsnprintf(char *buffer, size_t count, const char *format, va_list va)
{
	return vsnprintf_(buffer, count, format, va);
 800ab24:	f000 bd2e 	b.w	800b584 <vsnprintf_>

0800ab28 <_out_buffer>:


// internal buffer output
static inline void _out_buffer(char character, void* buffer, size_t idx, size_t maxlen)
{
  if (idx < maxlen) {
 800ab28:	429a      	cmp	r2, r3
    ((char*)buffer)[idx] = character;
 800ab2a:	bf38      	it	cc
 800ab2c:	5488      	strbcc	r0, [r1, r2]
  }
}
 800ab2e:	4770      	bx	lr

0800ab30 <_out_null>:

// internal null output
static inline void _out_null(char character, void* buffer, size_t idx, size_t maxlen)
{
  (void)character; (void)buffer; (void)idx; (void)maxlen;
}
 800ab30:	4770      	bx	lr
 800ab32:	bf00      	nop

0800ab34 <_ntoa_format>:
}


// internal itoa format
static size_t _ntoa_format(out_fct_type out, char* buffer, size_t idx, size_t maxlen, char* buf, size_t len, bool negative, unsigned int base, unsigned int prec, unsigned int width, unsigned int flags)
{
 800ab34:	e92d 4ff0 	stmdb	sp!, {r4, r5, r6, r7, r8, r9, sl, fp, lr}
 800ab38:	b083      	sub	sp, #12
 800ab3a:	4617      	mov	r7, r2
 800ab3c:	f8dd c048 	ldr.w	ip, [sp, #72]	; 0x48
 800ab40:	f89d a038 	ldrb.w	sl, [sp, #56]	; 0x38
  // pad leading zeros
  if (!(flags & FLAGS_LEFT)) {
 800ab44:	f01c 0202 	ands.w	r2, ip, #2
{
 800ab48:	e9dd 840c 	ldrd	r8, r4, [sp, #48]	; 0x30
 800ab4c:	e9dd e610 	ldrd	lr, r6, [sp, #64]	; 0x40
 800ab50:	4605      	mov	r5, r0
 800ab52:	4689      	mov	r9, r1
  if (!(flags & FLAGS_LEFT)) {
 800ab54:	9200      	str	r2, [sp, #0]
 800ab56:	d12a      	bne.n	800abae <_ntoa_format+0x7a>
    if (width && (flags & FLAGS_ZEROPAD) && (negative || (flags & (FLAGS_PLUS | FLAGS_SPACE)))) {
 800ab58:	2e00      	cmp	r6, #0
 800ab5a:	f040 80ae 	bne.w	800acba <_ntoa_format+0x186>
      width--;
    }
    while ((len < prec) && (len < PRINTF_NTOA_BUFFER_SIZE)) {
 800ab5e:	4574      	cmp	r4, lr
 800ab60:	f00c 0001 	and.w	r0, ip, #1
 800ab64:	f080 811a 	bcs.w	800ad9c <_ntoa_format+0x268>
 800ab68:	2c1f      	cmp	r4, #31
 800ab6a:	bf88      	it	hi
 800ab6c:	2420      	movhi	r4, #32
 800ab6e:	f200 8115 	bhi.w	800ad9c <_ntoa_format+0x268>
 800ab72:	1e62      	subs	r2, r4, #1
 800ab74:	4442      	add	r2, r8
      buf[len++] = '0';
 800ab76:	f04f 0b30 	mov.w	fp, #48	; 0x30
 800ab7a:	e001      	b.n	800ab80 <_ntoa_format+0x4c>
    while ((len < prec) && (len < PRINTF_NTOA_BUFFER_SIZE)) {
 800ab7c:	2c20      	cmp	r4, #32
 800ab7e:	d004      	beq.n	800ab8a <_ntoa_format+0x56>
      buf[len++] = '0';
 800ab80:	3401      	adds	r4, #1
    while ((len < prec) && (len < PRINTF_NTOA_BUFFER_SIZE)) {
 800ab82:	45a6      	cmp	lr, r4
      buf[len++] = '0';
 800ab84:	f802 bf01 	strb.w	fp, [r2, #1]!
    while ((len < prec) && (len < PRINTF_NTOA_BUFFER_SIZE)) {
 800ab88:	d8f8      	bhi.n	800ab7c <_ntoa_format+0x48>
    }
    while ((flags & FLAGS_ZEROPAD) && (len < width) && (len < PRINTF_NTOA_BUFFER_SIZE)) {
 800ab8a:	b180      	cbz	r0, 800abae <_ntoa_format+0x7a>
 800ab8c:	42a6      	cmp	r6, r4
 800ab8e:	d90e      	bls.n	800abae <_ntoa_format+0x7a>
 800ab90:	2c20      	cmp	r4, #32
 800ab92:	f000 80a3 	beq.w	800acdc <_ntoa_format+0x1a8>
 800ab96:	1e62      	subs	r2, r4, #1
 800ab98:	4442      	add	r2, r8
      buf[len++] = '0';
 800ab9a:	2030      	movs	r0, #48	; 0x30
 800ab9c:	e002      	b.n	800aba4 <_ntoa_format+0x70>
    while ((flags & FLAGS_ZEROPAD) && (len < width) && (len < PRINTF_NTOA_BUFFER_SIZE)) {
 800ab9e:	2c20      	cmp	r4, #32
 800aba0:	f000 809c 	beq.w	800acdc <_ntoa_format+0x1a8>
      buf[len++] = '0';
 800aba4:	3401      	adds	r4, #1
    while ((flags & FLAGS_ZEROPAD) && (len < width) && (len < PRINTF_NTOA_BUFFER_SIZE)) {
 800aba6:	42b4      	cmp	r4, r6
      buf[len++] = '0';
 800aba8:	f802 0f01 	strb.w	r0, [r2, #1]!
    while ((flags & FLAGS_ZEROPAD) && (len < width) && (len < PRINTF_NTOA_BUFFER_SIZE)) {
 800abac:	d1f7      	bne.n	800ab9e <_ntoa_format+0x6a>
    }
  }

  // handle hash
  if (flags & FLAGS_HASH) {
 800abae:	f01c 0f10 	tst.w	ip, #16
 800abb2:	d033      	beq.n	800ac1c <_ntoa_format+0xe8>
    if (!(flags & FLAGS_PRECISION) && len && ((len == prec) || (len == width))) {
 800abb4:	f41c 6f80 	tst.w	ip, #1024	; 0x400
 800abb8:	f040 809c 	bne.w	800acf4 <_ntoa_format+0x1c0>
 800abbc:	2c00      	cmp	r4, #0
 800abbe:	f040 8095 	bne.w	800acec <_ntoa_format+0x1b8>
      len--;
      if (len && (base == 16U)) {
        len--;
      }
    }
    if ((base == 16U) && !(flags & FLAGS_UPPERCASE) && (len < PRINTF_NTOA_BUFFER_SIZE)) {
 800abc2:	9a0f      	ldr	r2, [sp, #60]	; 0x3c
 800abc4:	2a10      	cmp	r2, #16
 800abc6:	f000 80ce 	beq.w	800ad66 <_ntoa_format+0x232>
      buf[len++] = 'x';
    }
    else if ((base == 16U) && (flags & FLAGS_UPPERCASE) && (len < PRINTF_NTOA_BUFFER_SIZE)) {
      buf[len++] = 'X';
    }
    else if ((base == 2U) && (len < PRINTF_NTOA_BUFFER_SIZE)) {
 800abca:	9a0f      	ldr	r2, [sp, #60]	; 0x3c
 800abcc:	2a02      	cmp	r2, #2
 800abce:	f000 80e0 	beq.w	800ad92 <_ntoa_format+0x25e>
      buf[len++] = 'b';
    }
    if (len < PRINTF_NTOA_BUFFER_SIZE) {
      buf[len++] = '0';
 800abd2:	2230      	movs	r2, #48	; 0x30
 800abd4:	f888 2000 	strb.w	r2, [r8]
 800abd8:	2401      	movs	r4, #1
    }
  }

  if (len < PRINTF_NTOA_BUFFER_SIZE) {
    if (negative) {
 800abda:	f1ba 0f00 	cmp.w	sl, #0
 800abde:	f000 8096 	beq.w	800ad0e <_ntoa_format+0x1da>
      buf[len++] = '-';
 800abe2:	222d      	movs	r2, #45	; 0x2d
 800abe4:	f808 2004 	strb.w	r2, [r8, r4]
 800abe8:	3401      	adds	r4, #1
  if (!(flags & FLAGS_LEFT) && !(flags & FLAGS_ZEROPAD)) {
 800abea:	f01c 0f03 	tst.w	ip, #3
 800abee:	d101      	bne.n	800abf4 <_ntoa_format+0xc0>
    for (size_t i = len; i < width; i++) {
 800abf0:	42b4      	cmp	r4, r6
 800abf2:	d31b      	bcc.n	800ac2c <_ntoa_format+0xf8>
 800abf4:	46ba      	mov	sl, r7
 800abf6:	e02f      	b.n	800ac58 <_ntoa_format+0x124>
    if ((base == 16U) && !(flags & FLAGS_UPPERCASE) && (len < PRINTF_NTOA_BUFFER_SIZE)) {
 800abf8:	f01c 0f20 	tst.w	ip, #32
 800abfc:	f040 80bb 	bne.w	800ad76 <_ntoa_format+0x242>
 800ac00:	2c20      	cmp	r4, #32
 800ac02:	d00d      	beq.n	800ac20 <_ntoa_format+0xec>
 800ac04:	eb08 0004 	add.w	r0, r8, r4
 800ac08:	3401      	adds	r4, #1
      buf[len++] = 'x';
 800ac0a:	2278      	movs	r2, #120	; 0x78
 800ac0c:	7002      	strb	r2, [r0, #0]
    if (len < PRINTF_NTOA_BUFFER_SIZE) {
 800ac0e:	2c20      	cmp	r4, #32
 800ac10:	d006      	beq.n	800ac20 <_ntoa_format+0xec>
 800ac12:	eb08 0204 	add.w	r2, r8, r4
      buf[len++] = '0';
 800ac16:	2030      	movs	r0, #48	; 0x30
 800ac18:	3401      	adds	r4, #1
 800ac1a:	7010      	strb	r0, [r2, #0]
  if (len < PRINTF_NTOA_BUFFER_SIZE) {
 800ac1c:	2c20      	cmp	r4, #32
 800ac1e:	d1dc      	bne.n	800abda <_ntoa_format+0xa6>
  if (!(flags & FLAGS_LEFT) && !(flags & FLAGS_ZEROPAD)) {
 800ac20:	f01c 0f03 	tst.w	ip, #3
 800ac24:	d116      	bne.n	800ac54 <_ntoa_format+0x120>
 800ac26:	2420      	movs	r4, #32
    for (size_t i = len; i < width; i++) {
 800ac28:	42a6      	cmp	r6, r4
 800ac2a:	d979      	bls.n	800ad20 <_ntoa_format+0x1ec>
 800ac2c:	eb07 0a06 	add.w	sl, r7, r6
 800ac30:	ebaa 0a04 	sub.w	sl, sl, r4
  if (!(flags & FLAGS_LEFT) && !(flags & FLAGS_ZEROPAD)) {
 800ac34:	9401      	str	r4, [sp, #4]
 800ac36:	46bb      	mov	fp, r7
 800ac38:	461c      	mov	r4, r3
      out(' ', buffer, idx++, maxlen);
 800ac3a:	465a      	mov	r2, fp
 800ac3c:	4623      	mov	r3, r4
 800ac3e:	f10b 0b01 	add.w	fp, fp, #1
 800ac42:	4649      	mov	r1, r9
 800ac44:	2020      	movs	r0, #32
 800ac46:	47a8      	blx	r5
    for (size_t i = len; i < width; i++) {
 800ac48:	45d3      	cmp	fp, sl
 800ac4a:	d1f6      	bne.n	800ac3a <_ntoa_format+0x106>
  while (len) {
 800ac4c:	4623      	mov	r3, r4
 800ac4e:	9c01      	ldr	r4, [sp, #4]
 800ac50:	b914      	cbnz	r4, 800ac58 <_ntoa_format+0x124>
 800ac52:	e012      	b.n	800ac7a <_ntoa_format+0x146>
  if (!(flags & FLAGS_LEFT) && !(flags & FLAGS_ZEROPAD)) {
 800ac54:	46ba      	mov	sl, r7
 800ac56:	2420      	movs	r4, #32
 800ac58:	44a2      	add	sl, r4
 800ac5a:	9611      	str	r6, [sp, #68]	; 0x44
 800ac5c:	4444      	add	r4, r8
 800ac5e:	eb08 0b0a 	add.w	fp, r8, sl
 800ac62:	461e      	mov	r6, r3
 800ac64:	ebab 0204 	sub.w	r2, fp, r4
    out(buf[--len], buffer, idx++, maxlen);
 800ac68:	f814 0d01 	ldrb.w	r0, [r4, #-1]!
 800ac6c:	4633      	mov	r3, r6
 800ac6e:	4649      	mov	r1, r9
 800ac70:	47a8      	blx	r5
  while (len) {
 800ac72:	4544      	cmp	r4, r8
 800ac74:	d1f6      	bne.n	800ac64 <_ntoa_format+0x130>
 800ac76:	4633      	mov	r3, r6
 800ac78:	9e11      	ldr	r6, [sp, #68]	; 0x44
  if (flags & FLAGS_LEFT) {
 800ac7a:	9a00      	ldr	r2, [sp, #0]
 800ac7c:	b1ca      	cbz	r2, 800acb2 <_ntoa_format+0x17e>
    while (idx - start_idx < width) {
 800ac7e:	ebaa 0407 	sub.w	r4, sl, r7
 800ac82:	42a6      	cmp	r6, r4
 800ac84:	d915      	bls.n	800acb2 <_ntoa_format+0x17e>
 800ac86:	4698      	mov	r8, r3
      out(' ', buffer, idx++, maxlen);
 800ac88:	193a      	adds	r2, r7, r4
 800ac8a:	4643      	mov	r3, r8
 800ac8c:	4649      	mov	r1, r9
 800ac8e:	3401      	adds	r4, #1
 800ac90:	2020      	movs	r0, #32
 800ac92:	47a8      	blx	r5
    while (idx - start_idx < width) {
 800ac94:	42a6      	cmp	r6, r4
 800ac96:	d8f7      	bhi.n	800ac88 <_ntoa_format+0x154>
 800ac98:	1e7b      	subs	r3, r7, #1
 800ac9a:	4433      	add	r3, r6
 800ac9c:	f1c7 0701 	rsb	r7, r7, #1
 800aca0:	eba3 030a 	sub.w	r3, r3, sl
 800aca4:	4457      	add	r7, sl
 800aca6:	42b7      	cmp	r7, r6
 800aca8:	bf88      	it	hi
 800acaa:	2300      	movhi	r3, #0
 800acac:	f10a 0a01 	add.w	sl, sl, #1
 800acb0:	449a      	add	sl, r3
      buf[len++] = ' ';
    }
  }

  return _out_rev(out, buffer, idx, maxlen, buf, len, width, flags);
}
 800acb2:	4650      	mov	r0, sl
 800acb4:	b003      	add	sp, #12
 800acb6:	e8bd 8ff0 	ldmia.w	sp!, {r4, r5, r6, r7, r8, r9, sl, fp, pc}
    if (width && (flags & FLAGS_ZEROPAD) && (negative || (flags & (FLAGS_PLUS | FLAGS_SPACE)))) {
 800acba:	f01c 0001 	ands.w	r0, ip, #1
 800acbe:	d033      	beq.n	800ad28 <_ntoa_format+0x1f4>
 800acc0:	f1ba 0f00 	cmp.w	sl, #0
 800acc4:	d13d      	bne.n	800ad42 <_ntoa_format+0x20e>
 800acc6:	f01c 0f0c 	tst.w	ip, #12
 800acca:	d13a      	bne.n	800ad42 <_ntoa_format+0x20e>
    while ((len < prec) && (len < PRINTF_NTOA_BUFFER_SIZE)) {
 800accc:	4574      	cmp	r4, lr
 800acce:	f4bf af5d 	bcs.w	800ab8c <_ntoa_format+0x58>
 800acd2:	2c1f      	cmp	r4, #31
 800acd4:	f67f af4d 	bls.w	800ab72 <_ntoa_format+0x3e>
    while ((flags & FLAGS_ZEROPAD) && (len < width) && (len < PRINTF_NTOA_BUFFER_SIZE)) {
 800acd8:	2e20      	cmp	r6, #32
 800acda:	d92b      	bls.n	800ad34 <_ntoa_format+0x200>
  if (flags & FLAGS_HASH) {
 800acdc:	f01c 0f10 	tst.w	ip, #16
 800ace0:	d09e      	beq.n	800ac20 <_ntoa_format+0xec>
    if (!(flags & FLAGS_PRECISION) && len && ((len == prec) || (len == width))) {
 800ace2:	f41c 6f80 	tst.w	ip, #1024	; 0x400
 800ace6:	f04f 0420 	mov.w	r4, #32
 800acea:	d103      	bne.n	800acf4 <_ntoa_format+0x1c0>
 800acec:	45a6      	cmp	lr, r4
 800acee:	d02a      	beq.n	800ad46 <_ntoa_format+0x212>
 800acf0:	42b4      	cmp	r4, r6
 800acf2:	d028      	beq.n	800ad46 <_ntoa_format+0x212>
    if ((base == 16U) && !(flags & FLAGS_UPPERCASE) && (len < PRINTF_NTOA_BUFFER_SIZE)) {
 800acf4:	9a0f      	ldr	r2, [sp, #60]	; 0x3c
 800acf6:	2a10      	cmp	r2, #16
 800acf8:	f43f af7e 	beq.w	800abf8 <_ntoa_format+0xc4>
    else if ((base == 2U) && (len < PRINTF_NTOA_BUFFER_SIZE)) {
 800acfc:	9a0f      	ldr	r2, [sp, #60]	; 0x3c
 800acfe:	2a02      	cmp	r2, #2
 800ad00:	d185      	bne.n	800ac0e <_ntoa_format+0xda>
 800ad02:	2c20      	cmp	r4, #32
 800ad04:	d08c      	beq.n	800ac20 <_ntoa_format+0xec>
 800ad06:	eb08 0204 	add.w	r2, r8, r4
 800ad0a:	3401      	adds	r4, #1
 800ad0c:	e054      	b.n	800adb8 <_ntoa_format+0x284>
    else if (flags & FLAGS_PLUS) {
 800ad0e:	f01c 0f04 	tst.w	ip, #4
 800ad12:	d111      	bne.n	800ad38 <_ntoa_format+0x204>
    else if (flags & FLAGS_SPACE) {
 800ad14:	f01c 0f08 	tst.w	ip, #8
 800ad18:	d120      	bne.n	800ad5c <_ntoa_format+0x228>
  if (!(flags & FLAGS_LEFT) && !(flags & FLAGS_ZEROPAD)) {
 800ad1a:	f01c 0f03 	tst.w	ip, #3
 800ad1e:	d083      	beq.n	800ac28 <_ntoa_format+0xf4>
    for (size_t i = len; i < width; i++) {
 800ad20:	46ba      	mov	sl, r7
  while (len) {
 800ad22:	2c00      	cmp	r4, #0
 800ad24:	d198      	bne.n	800ac58 <_ntoa_format+0x124>
 800ad26:	e7a8      	b.n	800ac7a <_ntoa_format+0x146>
    while ((len < prec) && (len < PRINTF_NTOA_BUFFER_SIZE)) {
 800ad28:	4574      	cmp	r4, lr
 800ad2a:	f4bf af40 	bcs.w	800abae <_ntoa_format+0x7a>
 800ad2e:	2c1f      	cmp	r4, #31
 800ad30:	f67f af1f 	bls.w	800ab72 <_ntoa_format+0x3e>
    while ((flags & FLAGS_ZEROPAD) && (len < width) && (len < PRINTF_NTOA_BUFFER_SIZE)) {
 800ad34:	2420      	movs	r4, #32
 800ad36:	e73a      	b.n	800abae <_ntoa_format+0x7a>
      buf[len++] = '+';  // ignore the space if the '+' exists
 800ad38:	222b      	movs	r2, #43	; 0x2b
 800ad3a:	f808 2004 	strb.w	r2, [r8, r4]
 800ad3e:	3401      	adds	r4, #1
 800ad40:	e753      	b.n	800abea <_ntoa_format+0xb6>
      width--;
 800ad42:	3e01      	subs	r6, #1
 800ad44:	e7c2      	b.n	800accc <_ntoa_format+0x198>
      if (len && (base == 16U)) {
 800ad46:	1e62      	subs	r2, r4, #1
 800ad48:	f43f af3b 	beq.w	800abc2 <_ntoa_format+0x8e>
 800ad4c:	990f      	ldr	r1, [sp, #60]	; 0x3c
 800ad4e:	2910      	cmp	r1, #16
 800ad50:	d028      	beq.n	800ada4 <_ntoa_format+0x270>
    else if ((base == 2U) && (len < PRINTF_NTOA_BUFFER_SIZE)) {
 800ad52:	990f      	ldr	r1, [sp, #60]	; 0x3c
 800ad54:	2902      	cmp	r1, #2
 800ad56:	d02e      	beq.n	800adb6 <_ntoa_format+0x282>
 800ad58:	4614      	mov	r4, r2
 800ad5a:	e75a      	b.n	800ac12 <_ntoa_format+0xde>
      buf[len++] = ' ';
 800ad5c:	2220      	movs	r2, #32
 800ad5e:	f808 2004 	strb.w	r2, [r8, r4]
 800ad62:	3401      	adds	r4, #1
 800ad64:	e741      	b.n	800abea <_ntoa_format+0xb6>
    if ((base == 16U) && !(flags & FLAGS_UPPERCASE) && (len < PRINTF_NTOA_BUFFER_SIZE)) {
 800ad66:	f01c 0f20 	tst.w	ip, #32
 800ad6a:	d10d      	bne.n	800ad88 <_ntoa_format+0x254>
      buf[len++] = 'x';
 800ad6c:	2278      	movs	r2, #120	; 0x78
 800ad6e:	f888 2000 	strb.w	r2, [r8]
 800ad72:	2401      	movs	r4, #1
 800ad74:	e74d      	b.n	800ac12 <_ntoa_format+0xde>
    else if ((base == 16U) && (flags & FLAGS_UPPERCASE) && (len < PRINTF_NTOA_BUFFER_SIZE)) {
 800ad76:	2c20      	cmp	r4, #32
 800ad78:	f43f af52 	beq.w	800ac20 <_ntoa_format+0xec>
 800ad7c:	eb08 0204 	add.w	r2, r8, r4
      buf[len++] = 'X';
 800ad80:	2058      	movs	r0, #88	; 0x58
 800ad82:	3401      	adds	r4, #1
 800ad84:	7010      	strb	r0, [r2, #0]
 800ad86:	e742      	b.n	800ac0e <_ntoa_format+0xda>
 800ad88:	2258      	movs	r2, #88	; 0x58
 800ad8a:	f888 2000 	strb.w	r2, [r8]
 800ad8e:	2401      	movs	r4, #1
 800ad90:	e73f      	b.n	800ac12 <_ntoa_format+0xde>
      buf[len++] = 'b';
 800ad92:	2262      	movs	r2, #98	; 0x62
 800ad94:	f888 2000 	strb.w	r2, [r8]
 800ad98:	2401      	movs	r4, #1
 800ad9a:	e73a      	b.n	800ac12 <_ntoa_format+0xde>
    while ((flags & FLAGS_ZEROPAD) && (len < width) && (len < PRINTF_NTOA_BUFFER_SIZE)) {
 800ad9c:	2800      	cmp	r0, #0
 800ad9e:	bf08      	it	eq
 800ada0:	2600      	moveq	r6, #0
 800ada2:	e704      	b.n	800abae <_ntoa_format+0x7a>
    if ((base == 16U) && !(flags & FLAGS_UPPERCASE) && (len < PRINTF_NTOA_BUFFER_SIZE)) {
 800ada4:	f01c 0f20 	tst.w	ip, #32
        len--;
 800ada8:	f1a4 0402 	sub.w	r4, r4, #2
    if ((base == 16U) && !(flags & FLAGS_UPPERCASE) && (len < PRINTF_NTOA_BUFFER_SIZE)) {
 800adac:	d1e6      	bne.n	800ad7c <_ntoa_format+0x248>
 800adae:	eb08 0004 	add.w	r0, r8, r4
 800adb2:	4614      	mov	r4, r2
 800adb4:	e729      	b.n	800ac0a <_ntoa_format+0xd6>
 800adb6:	4442      	add	r2, r8
      buf[len++] = 'b';
 800adb8:	2062      	movs	r0, #98	; 0x62
 800adba:	7010      	strb	r0, [r2, #0]
 800adbc:	e727      	b.n	800ac0e <_ntoa_format+0xda>
 800adbe:	bf00      	nop

0800adc0 <_ntoa_long>:


// internal itoa for 'long' type
static size_t _ntoa_long(out_fct_type out, char* buffer, size_t idx, size_t maxlen, unsigned long value, bool negative, unsigned long base, unsigned int prec, unsigned int width, unsigned int flags)
{
 800adc0:	e92d 4ff0 	stmdb	sp!, {r4, r5, r6, r7, r8, r9, sl, fp, lr}
 800adc4:	b093      	sub	sp, #76	; 0x4c
 800adc6:	9d1c      	ldr	r5, [sp, #112]	; 0x70
 800adc8:	f89d 4074 	ldrb.w	r4, [sp, #116]	; 0x74
 800adcc:	9e1e      	ldr	r6, [sp, #120]	; 0x78
 800adce:	f8dd a084 	ldr.w	sl, [sp, #132]	; 0x84
 800add2:	9409      	str	r4, [sp, #36]	; 0x24
  char buf[PRINTF_NTOA_BUFFER_SIZE];
  size_t len = 0U;

  // no hash for 0 values
  if (!value) {
 800add4:	b92d      	cbnz	r5, 800ade2 <_ntoa_long+0x22>
    flags &= ~FLAGS_HASH;
 800add6:	f02a 0410 	bic.w	r4, sl, #16
  }

  // write if precision != 0 and value is != 0
  if (!(flags & FLAGS_PRECISION) || value) {
 800adda:	f41a 6f80 	tst.w	sl, #1024	; 0x400
    flags &= ~FLAGS_HASH;
 800adde:	46a2      	mov	sl, r4
  if (!(flags & FLAGS_PRECISION) || value) {
 800ade0:	d134      	bne.n	800ae4c <_ntoa_long+0x8c>
 800ade2:	f01a 0f20 	tst.w	sl, #32
 800ade6:	f10d 0b28 	add.w	fp, sp, #40	; 0x28
    do {
      const char digit = (char)(value % base);
      buf[len++] = digit < 10 ? '0' + digit : (flags & FLAGS_UPPERCASE ? 'A' : 'a') + digit - 10;
 800adea:	bf14      	ite	ne
 800adec:	f04f 0937 	movne.w	r9, #55	; 0x37
 800adf0:	f04f 0957 	moveq.w	r9, #87	; 0x57
 800adf4:	46d8      	mov	r8, fp
 800adf6:	2700      	movs	r7, #0
 800adf8:	e002      	b.n	800ae00 <_ntoa_long+0x40>
      value /= base;
    } while (value && (len < PRINTF_NTOA_BUFFER_SIZE));
 800adfa:	2f20      	cmp	r7, #32
 800adfc:	d015      	beq.n	800ae2a <_ntoa_long+0x6a>
      value /= base;
 800adfe:	4675      	mov	r5, lr
      const char digit = (char)(value % base);
 800ae00:	fbb5 fef6 	udiv	lr, r5, r6
 800ae04:	fb06 5c1e 	mls	ip, r6, lr, r5
 800ae08:	fa5f f48c 	uxtb.w	r4, ip
      buf[len++] = digit < 10 ? '0' + digit : (flags & FLAGS_UPPERCASE ? 'A' : 'a') + digit - 10;
 800ae0c:	f1bc 0f09 	cmp.w	ip, #9
 800ae10:	f104 0c30 	add.w	ip, r4, #48	; 0x30
 800ae14:	bf8a      	itet	hi
 800ae16:	444c      	addhi	r4, r9
 800ae18:	fa5f f48c 	uxtbls.w	r4, ip
 800ae1c:	b2e4      	uxtbhi	r4, r4
    } while (value && (len < PRINTF_NTOA_BUFFER_SIZE));
 800ae1e:	42b5      	cmp	r5, r6
      buf[len++] = digit < 10 ? '0' + digit : (flags & FLAGS_UPPERCASE ? 'A' : 'a') + digit - 10;
 800ae20:	f808 4b01 	strb.w	r4, [r8], #1
 800ae24:	f107 0701 	add.w	r7, r7, #1
    } while (value && (len < PRINTF_NTOA_BUFFER_SIZE));
 800ae28:	d2e7      	bcs.n	800adfa <_ntoa_long+0x3a>
  }

  return _ntoa_format(out, buffer, idx, maxlen, buf, len, negative, (unsigned int)base, prec, width, flags);
 800ae2a:	9c20      	ldr	r4, [sp, #128]	; 0x80
 800ae2c:	9405      	str	r4, [sp, #20]
 800ae2e:	9c1f      	ldr	r4, [sp, #124]	; 0x7c
 800ae30:	f8cd a018 	str.w	sl, [sp, #24]
 800ae34:	e9cd 6403 	strd	r6, r4, [sp, #12]
 800ae38:	9c09      	ldr	r4, [sp, #36]	; 0x24
 800ae3a:	f8cd b000 	str.w	fp, [sp]
 800ae3e:	e9cd 7401 	strd	r7, r4, [sp, #4]
 800ae42:	f7ff fe77 	bl	800ab34 <_ntoa_format>
}
 800ae46:	b013      	add	sp, #76	; 0x4c
 800ae48:	e8bd 8ff0 	ldmia.w	sp!, {r4, r5, r6, r7, r8, r9, sl, fp, pc}
  size_t len = 0U;
 800ae4c:	462f      	mov	r7, r5
 800ae4e:	f10d 0b28 	add.w	fp, sp, #40	; 0x28
 800ae52:	e7ea      	b.n	800ae2a <_ntoa_long+0x6a>

0800ae54 <_ntoa_long_long>:


// internal itoa for 'long long' type
#if defined(PRINTF_SUPPORT_LONG_LONG)
static size_t _ntoa_long_long(out_fct_type out, char* buffer, size_t idx, size_t maxlen, unsigned long long value, bool negative, unsigned long long base, unsigned int prec, unsigned int width, unsigned int flags)
{
 800ae54:	e92d 4ff0 	stmdb	sp!, {r4, r5, r6, r7, r8, r9, sl, fp, lr}
 800ae58:	ed2d 8b04 	vpush	{d8-d9}
 800ae5c:	b093      	sub	sp, #76	; 0x4c
 800ae5e:	e9dd 4520 	ldrd	r4, r5, [sp, #128]	; 0x80
 800ae62:	469b      	mov	fp, r3
 800ae64:	f89d 3088 	ldrb.w	r3, [sp, #136]	; 0x88
 800ae68:	9308      	str	r3, [sp, #32]
  char buf[PRINTF_NTOA_BUFFER_SIZE];
  size_t len = 0U;

  // no hash for 0 values
  if (!value) {
 800ae6a:	ea54 0305 	orrs.w	r3, r4, r5
{
 800ae6e:	e9dd 8924 	ldrd	r8, r9, [sp, #144]	; 0x90
 800ae72:	ee08 0a10 	vmov	s16, r0
 800ae76:	ee08 1a90 	vmov	s17, r1
 800ae7a:	ee09 2a10 	vmov	s18, r2
  if (!value) {
 800ae7e:	d106      	bne.n	800ae8e <_ntoa_long_long+0x3a>
    flags &= ~FLAGS_HASH;
 800ae80:	9b28      	ldr	r3, [sp, #160]	; 0xa0
  }

  // write if precision != 0 and value is != 0
  if (!(flags & FLAGS_PRECISION) || value) {
 800ae82:	9a28      	ldr	r2, [sp, #160]	; 0xa0
    flags &= ~FLAGS_HASH;
 800ae84:	f023 0310 	bic.w	r3, r3, #16
 800ae88:	9328      	str	r3, [sp, #160]	; 0xa0
  if (!(flags & FLAGS_PRECISION) || value) {
 800ae8a:	0553      	lsls	r3, r2, #21
 800ae8c:	d440      	bmi.n	800af10 <_ntoa_long_long+0xbc>
 800ae8e:	9b28      	ldr	r3, [sp, #160]	; 0xa0
 800ae90:	f013 0f20 	tst.w	r3, #32
 800ae94:	ab0a      	add	r3, sp, #40	; 0x28
 800ae96:	9309      	str	r3, [sp, #36]	; 0x24
    do {
      const char digit = (char)(value % base);
      buf[len++] = digit < 10 ? '0' + digit : (flags & FLAGS_UPPERCASE ? 'A' : 'a') + digit - 10;
 800ae98:	bf14      	ite	ne
 800ae9a:	f04f 0a37 	movne.w	sl, #55	; 0x37
 800ae9e:	f04f 0a57 	moveq.w	sl, #87	; 0x57
 800aea2:	461f      	mov	r7, r3
 800aea4:	2600      	movs	r6, #0
 800aea6:	e003      	b.n	800aeb0 <_ntoa_long_long+0x5c>
      value /= base;
    } while (value && (len < PRINTF_NTOA_BUFFER_SIZE));
 800aea8:	2e20      	cmp	r6, #32
 800aeaa:	d017      	beq.n	800aedc <_ntoa_long_long+0x88>
      value /= base;
 800aeac:	4604      	mov	r4, r0
 800aeae:	460d      	mov	r5, r1
      const char digit = (char)(value % base);
 800aeb0:	4642      	mov	r2, r8
 800aeb2:	464b      	mov	r3, r9
 800aeb4:	4620      	mov	r0, r4
 800aeb6:	4629      	mov	r1, r5
 800aeb8:	f7fc fb82 	bl	80075c0 <__aeabi_uldivmod>
 800aebc:	b2d2      	uxtb	r2, r2
      buf[len++] = digit < 10 ? '0' + digit : (flags & FLAGS_UPPERCASE ? 'A' : 'a') + digit - 10;
 800aebe:	2a09      	cmp	r2, #9
 800aec0:	f102 0330 	add.w	r3, r2, #48	; 0x30
 800aec4:	bf8a      	itet	hi
 800aec6:	4452      	addhi	r2, sl
 800aec8:	b2da      	uxtbls	r2, r3
 800aeca:	b2d2      	uxtbhi	r2, r2
    } while (value && (len < PRINTF_NTOA_BUFFER_SIZE));
 800aecc:	454d      	cmp	r5, r9
 800aece:	bf08      	it	eq
 800aed0:	4544      	cmpeq	r4, r8
      buf[len++] = digit < 10 ? '0' + digit : (flags & FLAGS_UPPERCASE ? 'A' : 'a') + digit - 10;
 800aed2:	f807 2b01 	strb.w	r2, [r7], #1
 800aed6:	f106 0601 	add.w	r6, r6, #1
    } while (value && (len < PRINTF_NTOA_BUFFER_SIZE));
 800aeda:	d2e5      	bcs.n	800aea8 <_ntoa_long_long+0x54>
  }

  return _ntoa_format(out, buffer, idx, maxlen, buf, len, negative, (unsigned int)base, prec, width, flags);
 800aedc:	9b28      	ldr	r3, [sp, #160]	; 0xa0
 800aede:	9306      	str	r3, [sp, #24]
 800aee0:	9b27      	ldr	r3, [sp, #156]	; 0x9c
 800aee2:	9305      	str	r3, [sp, #20]
 800aee4:	9b26      	ldr	r3, [sp, #152]	; 0x98
 800aee6:	e9cd 8303 	strd	r8, r3, [sp, #12]
 800aeea:	9b08      	ldr	r3, [sp, #32]
 800aeec:	e9cd 6301 	strd	r6, r3, [sp, #4]
 800aef0:	9b09      	ldr	r3, [sp, #36]	; 0x24
 800aef2:	9300      	str	r3, [sp, #0]
 800aef4:	ee19 2a10 	vmov	r2, s18
 800aef8:	ee18 1a90 	vmov	r1, s17
 800aefc:	ee18 0a10 	vmov	r0, s16
 800af00:	465b      	mov	r3, fp
 800af02:	f7ff fe17 	bl	800ab34 <_ntoa_format>
}
 800af06:	b013      	add	sp, #76	; 0x4c
 800af08:	ecbd 8b04 	vpop	{d8-d9}
 800af0c:	e8bd 8ff0 	ldmia.w	sp!, {r4, r5, r6, r7, r8, r9, sl, fp, pc}
 800af10:	ab0a      	add	r3, sp, #40	; 0x28
  size_t len = 0U;
 800af12:	2600      	movs	r6, #0
 800af14:	9309      	str	r3, [sp, #36]	; 0x24
 800af16:	e7e1      	b.n	800aedc <_ntoa_long_long+0x88>

0800af18 <_vsnprintf>:
#endif  // PRINTF_SUPPORT_FLOAT


// internal vsnprintf
static int _vsnprintf(out_fct_type out, char* buffer, const size_t maxlen, const char* format, va_list va)
{
 800af18:	e92d 4ff0 	stmdb	sp!, {r4, r5, r6, r7, r8, r9, sl, fp, lr}
  unsigned int flags, width, precision, n;
  size_t idx = 0U;

  if (!buffer) {
    // use null output function
    out = _out_null;
 800af1c:	4eca      	ldr	r6, [pc, #808]	; (800b248 <_vsnprintf+0x330>)
{
 800af1e:	b091      	sub	sp, #68	; 0x44
 800af20:	461c      	mov	r4, r3
  }

  while (*format)
 800af22:	781b      	ldrb	r3, [r3, #0]
 800af24:	9d1a      	ldr	r5, [sp, #104]	; 0x68
    out = _out_null;
 800af26:	f1b1 0a00 	subs.w	sl, r1, #0
{
 800af2a:	4691      	mov	r9, r2
    out = _out_null;
 800af2c:	bf14      	ite	ne
 800af2e:	4683      	movne	fp, r0
 800af30:	46b3      	moveq	fp, r6
  while (*format)
 800af32:	2b00      	cmp	r3, #0
 800af34:	f000 8279 	beq.w	800b42a <_vsnprintf+0x512>
 800af38:	f04f 0800 	mov.w	r8, #0
        if (is_ll) {
          idx = _ntoa_long_long(out, buffer, idx, maxlen, (uintptr_t)va_arg(va, void*), false, 16U, precision, width, flags);
        }
        else {
#endif
          idx = _ntoa_long(out, buffer, idx, maxlen, (unsigned long)((uintptr_t)va_arg(va, void*)), false, 16U, precision, width, flags);
 800af3c:	4618      	mov	r0, r3
 800af3e:	e00a      	b.n	800af56 <_vsnprintf+0x3e>
        out('%', buffer, idx++, maxlen);
        format++;
        break;

      default :
        out(*format, buffer, idx++, maxlen);
 800af40:	4642      	mov	r2, r8
 800af42:	464b      	mov	r3, r9
 800af44:	4651      	mov	r1, sl
 800af46:	f108 0801 	add.w	r8, r8, #1
        format++;
 800af4a:	3401      	adds	r4, #1
        out(*format, buffer, idx++, maxlen);
 800af4c:	47d8      	blx	fp
  while (*format)
 800af4e:	7820      	ldrb	r0, [r4, #0]
 800af50:	2800      	cmp	r0, #0
 800af52:	f000 8125 	beq.w	800b1a0 <_vsnprintf+0x288>
    if (*format != '%') {
 800af56:	2825      	cmp	r0, #37	; 0x25
 800af58:	d1f2      	bne.n	800af40 <_vsnprintf+0x28>
      format++;
 800af5a:	1c63      	adds	r3, r4, #1
    flags = 0U;
 800af5c:	2100      	movs	r1, #0
 800af5e:	461c      	mov	r4, r3
      switch (*format) {
 800af60:	f813 0b01 	ldrb.w	r0, [r3], #1
 800af64:	f1a0 0220 	sub.w	r2, r0, #32
 800af68:	2a10      	cmp	r2, #16
 800af6a:	d80a      	bhi.n	800af82 <_vsnprintf+0x6a>
 800af6c:	e8df f002 	tbb	[pc, r2]
 800af70:	3809093b 	.word	0x3809093b
 800af74:	09090909 	.word	0x09090909
 800af78:	35090909 	.word	0x35090909
 800af7c:	09093209 	.word	0x09093209
 800af80:	2f          	.byte	0x2f
 800af81:	00          	.byte	0x00
    if (_is_digit(*format)) {
 800af82:	f1a0 0330 	sub.w	r3, r0, #48	; 0x30
 800af86:	2b09      	cmp	r3, #9
 800af88:	f240 80eb 	bls.w	800b162 <_vsnprintf+0x24a>
    else if (*format == '*') {
 800af8c:	282a      	cmp	r0, #42	; 0x2a
 800af8e:	f000 8115 	beq.w	800b1bc <_vsnprintf+0x2a4>
    width = 0U;
 800af92:	2600      	movs	r6, #0
    if (*format == '.') {
 800af94:	282e      	cmp	r0, #46	; 0x2e
 800af96:	f000 80f4 	beq.w	800b182 <_vsnprintf+0x26a>
    precision = 0U;
 800af9a:	2700      	movs	r7, #0
    switch (*format) {
 800af9c:	f1a0 0368 	sub.w	r3, r0, #104	; 0x68
 800afa0:	2b12      	cmp	r3, #18
 800afa2:	d82a      	bhi.n	800affa <_vsnprintf+0xe2>
 800afa4:	e8df f013 	tbh	[pc, r3, lsl #1]
 800afa8:	00290152 	.word	0x00290152
 800afac:	0029014a 	.word	0x0029014a
 800afb0:	00290022 	.word	0x00290022
 800afb4:	00290029 	.word	0x00290029
 800afb8:	00290029 	.word	0x00290029
 800afbc:	00290029 	.word	0x00290029
 800afc0:	002900d8 	.word	0x002900d8
 800afc4:	00290029 	.word	0x00290029
 800afc8:	00290029 	.word	0x00290029
 800afcc:	00d8      	.short	0x00d8
        case '0': flags |= FLAGS_ZEROPAD; format++; n = 1U; break;
 800afce:	f041 0101 	orr.w	r1, r1, #1
    } while (n);
 800afd2:	e7c4      	b.n	800af5e <_vsnprintf+0x46>
        case '-': flags |= FLAGS_LEFT;    format++; n = 1U; break;
 800afd4:	f041 0102 	orr.w	r1, r1, #2
    } while (n);
 800afd8:	e7c1      	b.n	800af5e <_vsnprintf+0x46>
        case '+': flags |= FLAGS_PLUS;    format++; n = 1U; break;
 800afda:	f041 0104 	orr.w	r1, r1, #4
    } while (n);
 800afde:	e7be      	b.n	800af5e <_vsnprintf+0x46>
        case '#': flags |= FLAGS_HASH;    format++; n = 1U; break;
 800afe0:	f041 0110 	orr.w	r1, r1, #16
    } while (n);
 800afe4:	e7bb      	b.n	800af5e <_vsnprintf+0x46>
        case ' ': flags |= FLAGS_SPACE;   format++; n = 1U; break;
 800afe6:	f041 0108 	orr.w	r1, r1, #8
    } while (n);
 800afea:	e7b8      	b.n	800af5e <_vsnprintf+0x46>
        if (*format == 'l') {
 800afec:	7860      	ldrb	r0, [r4, #1]
 800afee:	286c      	cmp	r0, #108	; 0x6c
 800aff0:	f000 820e 	beq.w	800b410 <_vsnprintf+0x4f8>
        flags |= FLAGS_LONG;
 800aff4:	f441 7180 	orr.w	r1, r1, #256	; 0x100
        format++;
 800aff8:	3401      	adds	r4, #1
    switch (*format) {
 800affa:	f1a0 0325 	sub.w	r3, r0, #37	; 0x25
 800affe:	2b53      	cmp	r3, #83	; 0x53
 800b000:	d89e      	bhi.n	800af40 <_vsnprintf+0x28>
 800b002:	a201      	add	r2, pc, #4	; (adr r2, 800b008 <_vsnprintf+0xf0>)
 800b004:	f852 f023 	ldr.w	pc, [r2, r3, lsl #2]
 800b008:	0800b25d 	.word	0x0800b25d
 800b00c:	0800af41 	.word	0x0800af41
 800b010:	0800af41 	.word	0x0800af41
 800b014:	0800af41 	.word	0x0800af41
 800b018:	0800af41 	.word	0x0800af41
 800b01c:	0800af41 	.word	0x0800af41
 800b020:	0800af41 	.word	0x0800af41
 800b024:	0800af41 	.word	0x0800af41
 800b028:	0800af41 	.word	0x0800af41
 800b02c:	0800af41 	.word	0x0800af41
 800b030:	0800af41 	.word	0x0800af41
 800b034:	0800af41 	.word	0x0800af41
 800b038:	0800af41 	.word	0x0800af41
 800b03c:	0800af41 	.word	0x0800af41
 800b040:	0800af41 	.word	0x0800af41
 800b044:	0800af41 	.word	0x0800af41
 800b048:	0800af41 	.word	0x0800af41
 800b04c:	0800af41 	.word	0x0800af41
 800b050:	0800af41 	.word	0x0800af41
 800b054:	0800af41 	.word	0x0800af41
 800b058:	0800af41 	.word	0x0800af41
 800b05c:	0800af41 	.word	0x0800af41
 800b060:	0800af41 	.word	0x0800af41
 800b064:	0800af41 	.word	0x0800af41
 800b068:	0800af41 	.word	0x0800af41
 800b06c:	0800af41 	.word	0x0800af41
 800b070:	0800af41 	.word	0x0800af41
 800b074:	0800af41 	.word	0x0800af41
 800b078:	0800af41 	.word	0x0800af41
 800b07c:	0800af41 	.word	0x0800af41
 800b080:	0800af41 	.word	0x0800af41
 800b084:	0800af41 	.word	0x0800af41
 800b088:	0800af41 	.word	0x0800af41
 800b08c:	0800af41 	.word	0x0800af41
 800b090:	0800af41 	.word	0x0800af41
 800b094:	0800af41 	.word	0x0800af41
 800b098:	0800af41 	.word	0x0800af41
 800b09c:	0800af41 	.word	0x0800af41
 800b0a0:	0800af41 	.word	0x0800af41
 800b0a4:	0800af41 	.word	0x0800af41
 800b0a8:	0800af41 	.word	0x0800af41
 800b0ac:	0800af41 	.word	0x0800af41
 800b0b0:	0800af41 	.word	0x0800af41
 800b0b4:	0800af41 	.word	0x0800af41
 800b0b8:	0800af41 	.word	0x0800af41
 800b0bc:	0800af41 	.word	0x0800af41
 800b0c0:	0800af41 	.word	0x0800af41
 800b0c4:	0800af41 	.word	0x0800af41
 800b0c8:	0800af41 	.word	0x0800af41
 800b0cc:	0800af41 	.word	0x0800af41
 800b0d0:	0800af41 	.word	0x0800af41
 800b0d4:	0800b1d1 	.word	0x0800b1d1
 800b0d8:	0800af41 	.word	0x0800af41
 800b0dc:	0800af41 	.word	0x0800af41
 800b0e0:	0800af41 	.word	0x0800af41
 800b0e4:	0800af41 	.word	0x0800af41
 800b0e8:	0800af41 	.word	0x0800af41
 800b0ec:	0800af41 	.word	0x0800af41
 800b0f0:	0800af41 	.word	0x0800af41
 800b0f4:	0800af41 	.word	0x0800af41
 800b0f8:	0800af41 	.word	0x0800af41
 800b0fc:	0800b1d1 	.word	0x0800b1d1
 800b100:	0800b331 	.word	0x0800b331
 800b104:	0800b1d1 	.word	0x0800b1d1
 800b108:	0800af41 	.word	0x0800af41
 800b10c:	0800af41 	.word	0x0800af41
 800b110:	0800af41 	.word	0x0800af41
 800b114:	0800af41 	.word	0x0800af41
 800b118:	0800b1d1 	.word	0x0800b1d1
 800b11c:	0800af41 	.word	0x0800af41
 800b120:	0800af41 	.word	0x0800af41
 800b124:	0800af41 	.word	0x0800af41
 800b128:	0800af41 	.word	0x0800af41
 800b12c:	0800af41 	.word	0x0800af41
 800b130:	0800b1d1 	.word	0x0800b1d1
 800b134:	0800b305 	.word	0x0800b305
 800b138:	0800af41 	.word	0x0800af41
 800b13c:	0800af41 	.word	0x0800af41
 800b140:	0800b271 	.word	0x0800b271
 800b144:	0800af41 	.word	0x0800af41
 800b148:	0800b1d1 	.word	0x0800b1d1
 800b14c:	0800af41 	.word	0x0800af41
 800b150:	0800af41 	.word	0x0800af41
 800b154:	0800b1d1 	.word	0x0800b1d1
        flags |= (sizeof(size_t) == sizeof(long) ? FLAGS_LONG : FLAGS_LONG_LONG);
 800b158:	7860      	ldrb	r0, [r4, #1]
 800b15a:	f441 7180 	orr.w	r1, r1, #256	; 0x100
        format++;
 800b15e:	3401      	adds	r4, #1
        break;
 800b160:	e74b      	b.n	800affa <_vsnprintf+0xe2>
  unsigned int i = 0U;
 800b162:	2600      	movs	r6, #0
    i = i * 10U + (unsigned int)(*((*str)++) - '0');
 800b164:	eb06 0686 	add.w	r6, r6, r6, lsl #2
 800b168:	eb00 0646 	add.w	r6, r0, r6, lsl #1
  while (_is_digit(**str)) {
 800b16c:	f814 0f01 	ldrb.w	r0, [r4, #1]!
 800b170:	f1a0 0330 	sub.w	r3, r0, #48	; 0x30
 800b174:	2b09      	cmp	r3, #9
    i = i * 10U + (unsigned int)(*((*str)++) - '0');
 800b176:	f1a6 0630 	sub.w	r6, r6, #48	; 0x30
  while (_is_digit(**str)) {
 800b17a:	d9f3      	bls.n	800b164 <_vsnprintf+0x24c>
    if (*format == '.') {
 800b17c:	282e      	cmp	r0, #46	; 0x2e
 800b17e:	f47f af0c 	bne.w	800af9a <_vsnprintf+0x82>
      if (_is_digit(*format)) {
 800b182:	7860      	ldrb	r0, [r4, #1]
 800b184:	f1a0 0230 	sub.w	r2, r0, #48	; 0x30
 800b188:	2a09      	cmp	r2, #9
      flags |= FLAGS_PRECISION;
 800b18a:	f441 6180 	orr.w	r1, r1, #1024	; 0x400
      format++;
 800b18e:	f104 0301 	add.w	r3, r4, #1
      if (_is_digit(*format)) {
 800b192:	f240 80e7 	bls.w	800b364 <_vsnprintf+0x44c>
      else if (*format == '*') {
 800b196:	282a      	cmp	r0, #42	; 0x2a
 800b198:	f000 80f3 	beq.w	800b382 <_vsnprintf+0x46a>
      format++;
 800b19c:	461c      	mov	r4, r3
 800b19e:	e6fc      	b.n	800af9a <_vsnprintf+0x82>
 800b1a0:	4644      	mov	r4, r8
        break;
    }
  }

  // termination
  out((char)0, buffer, idx < maxlen ? idx : maxlen - 1U, maxlen);
 800b1a2:	45c1      	cmp	r9, r8
 800b1a4:	d801      	bhi.n	800b1aa <_vsnprintf+0x292>
 800b1a6:	f109 38ff 	add.w	r8, r9, #4294967295	; 0xffffffff
 800b1aa:	464b      	mov	r3, r9
 800b1ac:	4642      	mov	r2, r8
 800b1ae:	4651      	mov	r1, sl
 800b1b0:	2000      	movs	r0, #0
 800b1b2:	47d8      	blx	fp

  // return written chars without terminating \0
  return (int)idx;
}
 800b1b4:	4620      	mov	r0, r4
 800b1b6:	b011      	add	sp, #68	; 0x44
 800b1b8:	e8bd 8ff0 	ldmia.w	sp!, {r4, r5, r6, r7, r8, r9, sl, fp, pc}
      const int w = va_arg(va, int);
 800b1bc:	f855 6b04 	ldr.w	r6, [r5], #4
      if (w < 0) {
 800b1c0:	7860      	ldrb	r0, [r4, #1]
 800b1c2:	2e00      	cmp	r6, #0
        flags |= FLAGS_LEFT;    // reverse padding
 800b1c4:	bfbc      	itt	lt
 800b1c6:	f041 0102 	orrlt.w	r1, r1, #2
        width = (unsigned int)-w;
 800b1ca:	4276      	neglt	r6, r6
      format++;
 800b1cc:	3401      	adds	r4, #1
 800b1ce:	e6e1      	b.n	800af94 <_vsnprintf+0x7c>
        if (*format == 'x' || *format == 'X') {
 800b1d0:	2878      	cmp	r0, #120	; 0x78
 800b1d2:	f000 8122 	beq.w	800b41a <_vsnprintf+0x502>
 800b1d6:	2858      	cmp	r0, #88	; 0x58
 800b1d8:	f000 80e1 	beq.w	800b39e <_vsnprintf+0x486>
        else if (*format == 'o') {
 800b1dc:	286f      	cmp	r0, #111	; 0x6f
 800b1de:	f000 818a 	beq.w	800b4f6 <_vsnprintf+0x5de>
        else if (*format == 'b') {
 800b1e2:	2862      	cmp	r0, #98	; 0x62
 800b1e4:	f000 80e5 	beq.w	800b3b2 <_vsnprintf+0x49a>
        if ((*format != 'i') && (*format != 'd')) {
 800b1e8:	2869      	cmp	r0, #105	; 0x69
          flags &= ~FLAGS_HASH;   // no hash for dec format
 800b1ea:	f021 0310 	bic.w	r3, r1, #16
          base = 10U;
 800b1ee:	f04f 0c0a 	mov.w	ip, #10
        if ((*format != 'i') && (*format != 'd')) {
 800b1f2:	f040 80e1 	bne.w	800b3b8 <_vsnprintf+0x4a0>
        if (flags & FLAGS_PRECISION) {
 800b1f6:	054a      	lsls	r2, r1, #21
 800b1f8:	f140 80e5 	bpl.w	800b3c6 <_vsnprintf+0x4ae>
          flags &= ~FLAGS_ZEROPAD;
 800b1fc:	f023 0301 	bic.w	r3, r3, #1
        if ((*format == 'i') || (*format == 'd')) {
 800b200:	2869      	cmp	r0, #105	; 0x69
 800b202:	f000 80e0 	beq.w	800b3c6 <_vsnprintf+0x4ae>
 800b206:	2864      	cmp	r0, #100	; 0x64
 800b208:	f000 80dd 	beq.w	800b3c6 <_vsnprintf+0x4ae>
          if (flags & FLAGS_LONG_LONG) {
 800b20c:	f413 7200 	ands.w	r2, r3, #512	; 0x200
 800b210:	f040 8175 	bne.w	800b4fe <_vsnprintf+0x5e6>
          else if (flags & FLAGS_LONG) {
 800b214:	05d8      	lsls	r0, r3, #23
 800b216:	f100 819a 	bmi.w	800b54e <_vsnprintf+0x636>
            const unsigned int value = (flags & FLAGS_CHAR) ? (unsigned char)va_arg(va, unsigned int) : (flags & FLAGS_SHORT) ? (unsigned short int)va_arg(va, unsigned int) : va_arg(va, unsigned int);
 800b21a:	0659      	lsls	r1, r3, #25
 800b21c:	f855 2b04 	ldr.w	r2, [r5], #4
 800b220:	f100 817f 	bmi.w	800b522 <_vsnprintf+0x60a>
 800b224:	0618      	lsls	r0, r3, #24
 800b226:	bf48      	it	mi
 800b228:	b292      	uxthmi	r2, r2
            idx = _ntoa_long(out, buffer, idx, maxlen, value, false, base, precision, width, flags);
 800b22a:	2100      	movs	r1, #0
 800b22c:	9200      	str	r2, [sp, #0]
 800b22e:	e9cd 6304 	strd	r6, r3, [sp, #16]
 800b232:	e9cd c702 	strd	ip, r7, [sp, #8]
 800b236:	4642      	mov	r2, r8
 800b238:	9101      	str	r1, [sp, #4]
 800b23a:	e0dd      	b.n	800b3f8 <_vsnprintf+0x4e0>
        flags |= (sizeof(intmax_t) == sizeof(long) ? FLAGS_LONG : FLAGS_LONG_LONG);
 800b23c:	7860      	ldrb	r0, [r4, #1]
 800b23e:	f441 7100 	orr.w	r1, r1, #512	; 0x200
        format++;
 800b242:	3401      	adds	r4, #1
        break;
 800b244:	e6d9      	b.n	800affa <_vsnprintf+0xe2>
 800b246:	bf00      	nop
 800b248:	0800ab31 	.word	0x0800ab31
        if (*format == 'h') {
 800b24c:	7860      	ldrb	r0, [r4, #1]
 800b24e:	2868      	cmp	r0, #104	; 0x68
 800b250:	f000 80d9 	beq.w	800b406 <_vsnprintf+0x4ee>
        flags |= FLAGS_SHORT;
 800b254:	f041 0180 	orr.w	r1, r1, #128	; 0x80
        format++;
 800b258:	3401      	adds	r4, #1
 800b25a:	e6ce      	b.n	800affa <_vsnprintf+0xe2>
        out('%', buffer, idx++, maxlen);
 800b25c:	f108 0601 	add.w	r6, r8, #1
 800b260:	4642      	mov	r2, r8
 800b262:	464b      	mov	r3, r9
 800b264:	4651      	mov	r1, sl
 800b266:	2025      	movs	r0, #37	; 0x25
        format++;
 800b268:	3401      	adds	r4, #1
        out('%', buffer, idx++, maxlen);
 800b26a:	46b0      	mov	r8, r6
 800b26c:	47d8      	blx	fp
        break;
 800b26e:	e66e      	b.n	800af4e <_vsnprintf+0x36>
        const char* p = va_arg(va, char*);
 800b270:	462a      	mov	r2, r5
 800b272:	f852 3b04 	ldr.w	r3, [r2], #4
 800b276:	930b      	str	r3, [sp, #44]	; 0x2c
 800b278:	920d      	str	r2, [sp, #52]	; 0x34
        unsigned int l = _strnlen_s(p, precision ? precision : (size_t)-1);
 800b27a:	2f00      	cmp	r7, #0
 800b27c:	f040 8088 	bne.w	800b390 <_vsnprintf+0x478>
  for (s = str; *s && maxsize--; ++s);
 800b280:	7818      	ldrb	r0, [r3, #0]
 800b282:	f06f 0501 	mvn.w	r5, #1
 800b286:	2800      	cmp	r0, #0
 800b288:	f000 8174 	beq.w	800b574 <_vsnprintf+0x65c>
 800b28c:	1c6b      	adds	r3, r5, #1
 800b28e:	461a      	mov	r2, r3
 800b290:	930c      	str	r3, [sp, #48]	; 0x30
 800b292:	9b0b      	ldr	r3, [sp, #44]	; 0x2c
 800b294:	189d      	adds	r5, r3, r2
 800b296:	e001      	b.n	800b29c <_vsnprintf+0x384>
 800b298:	429d      	cmp	r5, r3
 800b29a:	d006      	beq.n	800b2aa <_vsnprintf+0x392>
 800b29c:	f813 2f01 	ldrb.w	r2, [r3, #1]!
 800b2a0:	2a00      	cmp	r2, #0
 800b2a2:	d1f9      	bne.n	800b298 <_vsnprintf+0x380>
 800b2a4:	9a0b      	ldr	r2, [sp, #44]	; 0x2c
 800b2a6:	1a9b      	subs	r3, r3, r2
 800b2a8:	930c      	str	r3, [sp, #48]	; 0x30
        if (flags & FLAGS_PRECISION) {
 800b2aa:	f411 6380 	ands.w	r3, r1, #1024	; 0x400
 800b2ae:	930e      	str	r3, [sp, #56]	; 0x38
 800b2b0:	d004      	beq.n	800b2bc <_vsnprintf+0x3a4>
          l = (l < precision ? l : precision);
 800b2b2:	9b0c      	ldr	r3, [sp, #48]	; 0x30
 800b2b4:	42bb      	cmp	r3, r7
 800b2b6:	bf28      	it	cs
 800b2b8:	463b      	movcs	r3, r7
 800b2ba:	930c      	str	r3, [sp, #48]	; 0x30
        if (!(flags & FLAGS_LEFT)) {
 800b2bc:	f011 0302 	ands.w	r3, r1, #2
 800b2c0:	930f      	str	r3, [sp, #60]	; 0x3c
 800b2c2:	f000 80e0 	beq.w	800b486 <_vsnprintf+0x56e>
        while ((*p != 0) && (!(flags & FLAGS_PRECISION) || precision--)) {
 800b2c6:	2800      	cmp	r0, #0
 800b2c8:	f000 80cb 	beq.w	800b462 <_vsnprintf+0x54a>
 800b2cc:	9d0b      	ldr	r5, [sp, #44]	; 0x2c
 800b2ce:	960b      	str	r6, [sp, #44]	; 0x2c
 800b2d0:	4642      	mov	r2, r8
 800b2d2:	9e0e      	ldr	r6, [sp, #56]	; 0x38
 800b2d4:	e000      	b.n	800b2d8 <_vsnprintf+0x3c0>
          out(*(p++), buffer, idx++, maxlen);
 800b2d6:	4642      	mov	r2, r8
 800b2d8:	464b      	mov	r3, r9
 800b2da:	4651      	mov	r1, sl
        while ((*p != 0) && (!(flags & FLAGS_PRECISION) || precision--)) {
 800b2dc:	b11e      	cbz	r6, 800b2e6 <_vsnprintf+0x3ce>
 800b2de:	f107 3cff 	add.w	ip, r7, #4294967295	; 0xffffffff
 800b2e2:	b13f      	cbz	r7, 800b2f4 <_vsnprintf+0x3dc>
 800b2e4:	4667      	mov	r7, ip
          out(*(p++), buffer, idx++, maxlen);
 800b2e6:	47d8      	blx	fp
        while ((*p != 0) && (!(flags & FLAGS_PRECISION) || precision--)) {
 800b2e8:	f815 0f01 	ldrb.w	r0, [r5, #1]!
          out(*(p++), buffer, idx++, maxlen);
 800b2ec:	f108 0801 	add.w	r8, r8, #1
        while ((*p != 0) && (!(flags & FLAGS_PRECISION) || precision--)) {
 800b2f0:	2800      	cmp	r0, #0
 800b2f2:	d1f0      	bne.n	800b2d6 <_vsnprintf+0x3be>
        if (flags & FLAGS_LEFT) {
 800b2f4:	9b0f      	ldr	r3, [sp, #60]	; 0x3c
 800b2f6:	9e0b      	ldr	r6, [sp, #44]	; 0x2c
 800b2f8:	2b00      	cmp	r3, #0
 800b2fa:	f040 80b2 	bne.w	800b462 <_vsnprintf+0x54a>
        const char* p = va_arg(va, char*);
 800b2fe:	9d0d      	ldr	r5, [sp, #52]	; 0x34
        format++;
 800b300:	3401      	adds	r4, #1
        break;
 800b302:	e624      	b.n	800af4e <_vsnprintf+0x36>
          idx = _ntoa_long(out, buffer, idx, maxlen, (unsigned long)((uintptr_t)va_arg(va, void*)), false, 16U, precision, width, flags);
 800b304:	2208      	movs	r2, #8
 800b306:	e9cd 7203 	strd	r7, r2, [sp, #12]
 800b30a:	2300      	movs	r3, #0
 800b30c:	2210      	movs	r2, #16
 800b30e:	e9cd 3201 	strd	r3, r2, [sp, #4]
        flags |= FLAGS_ZEROPAD | FLAGS_UPPERCASE;
 800b312:	f041 0121 	orr.w	r1, r1, #33	; 0x21
          idx = _ntoa_long(out, buffer, idx, maxlen, (unsigned long)((uintptr_t)va_arg(va, void*)), false, 16U, precision, width, flags);
 800b316:	9105      	str	r1, [sp, #20]
 800b318:	f855 3b04 	ldr.w	r3, [r5], #4
 800b31c:	9300      	str	r3, [sp, #0]
 800b31e:	4642      	mov	r2, r8
 800b320:	464b      	mov	r3, r9
 800b322:	4651      	mov	r1, sl
 800b324:	4658      	mov	r0, fp
 800b326:	f7ff fd4b 	bl	800adc0 <_ntoa_long>
        format++;
 800b32a:	3401      	adds	r4, #1
          idx = _ntoa_long(out, buffer, idx, maxlen, (unsigned long)((uintptr_t)va_arg(va, void*)), false, 16U, precision, width, flags);
 800b32c:	4680      	mov	r8, r0
        break;
 800b32e:	e60e      	b.n	800af4e <_vsnprintf+0x36>
        if (!(flags & FLAGS_LEFT)) {
 800b330:	0789      	lsls	r1, r1, #30
 800b332:	d57d      	bpl.n	800b430 <_vsnprintf+0x518>
        out((char)va_arg(va, int), buffer, idx++, maxlen);
 800b334:	f855 0b04 	ldr.w	r0, [r5], #4
 800b338:	464b      	mov	r3, r9
 800b33a:	4642      	mov	r2, r8
 800b33c:	b2c0      	uxtb	r0, r0
 800b33e:	4651      	mov	r1, sl
 800b340:	47d8      	blx	fp
          while (l++ < width) {
 800b342:	2e01      	cmp	r6, #1
        out((char)va_arg(va, int), buffer, idx++, maxlen);
 800b344:	f108 0701 	add.w	r7, r8, #1
          while (l++ < width) {
 800b348:	bf88      	it	hi
 800b34a:	4446      	addhi	r6, r8
 800b34c:	d907      	bls.n	800b35e <_vsnprintf+0x446>
            out(' ', buffer, idx++, maxlen);
 800b34e:	463a      	mov	r2, r7
 800b350:	464b      	mov	r3, r9
 800b352:	3701      	adds	r7, #1
 800b354:	4651      	mov	r1, sl
 800b356:	2020      	movs	r0, #32
 800b358:	47d8      	blx	fp
          while (l++ < width) {
 800b35a:	42b7      	cmp	r7, r6
 800b35c:	d1f7      	bne.n	800b34e <_vsnprintf+0x436>
 800b35e:	46b8      	mov	r8, r7
        format++;
 800b360:	3401      	adds	r4, #1
        break;
 800b362:	e5f4      	b.n	800af4e <_vsnprintf+0x36>
  unsigned int i = 0U;
 800b364:	2700      	movs	r7, #0
    i = i * 10U + (unsigned int)(*((*str)++) - '0');
 800b366:	eb07 0787 	add.w	r7, r7, r7, lsl #2
 800b36a:	eb00 0747 	add.w	r7, r0, r7, lsl #1
  while (_is_digit(**str)) {
 800b36e:	f813 0f01 	ldrb.w	r0, [r3, #1]!
 800b372:	f1a0 0230 	sub.w	r2, r0, #48	; 0x30
 800b376:	2a09      	cmp	r2, #9
    i = i * 10U + (unsigned int)(*((*str)++) - '0');
 800b378:	f1a7 0730 	sub.w	r7, r7, #48	; 0x30
  while (_is_digit(**str)) {
 800b37c:	d9f3      	bls.n	800b366 <_vsnprintf+0x44e>
 800b37e:	461c      	mov	r4, r3
 800b380:	e60c      	b.n	800af9c <_vsnprintf+0x84>
        precision = prec > 0 ? (unsigned int)prec : 0U;
 800b382:	f855 7b04 	ldr.w	r7, [r5], #4
 800b386:	78a0      	ldrb	r0, [r4, #2]
 800b388:	ea27 77e7 	bic.w	r7, r7, r7, asr #31
        format++;
 800b38c:	3402      	adds	r4, #2
 800b38e:	e605      	b.n	800af9c <_vsnprintf+0x84>
  for (s = str; *s && maxsize--; ++s);
 800b390:	9b0b      	ldr	r3, [sp, #44]	; 0x2c
 800b392:	7818      	ldrb	r0, [r3, #0]
 800b394:	2800      	cmp	r0, #0
 800b396:	f000 80eb 	beq.w	800b570 <_vsnprintf+0x658>
 800b39a:	1e7d      	subs	r5, r7, #1
 800b39c:	e776      	b.n	800b28c <_vsnprintf+0x374>
          flags &= ~(FLAGS_PLUS | FLAGS_SPACE);
 800b39e:	f021 030c 	bic.w	r3, r1, #12
        if (flags & FLAGS_PRECISION) {
 800b3a2:	054a      	lsls	r2, r1, #21
          flags &= ~(FLAGS_PLUS | FLAGS_SPACE);
 800b3a4:	f043 0320 	orr.w	r3, r3, #32
          base = 16U;
 800b3a8:	f04f 0c10 	mov.w	ip, #16
        if (flags & FLAGS_PRECISION) {
 800b3ac:	f53f af26 	bmi.w	800b1fc <_vsnprintf+0x2e4>
 800b3b0:	e72c      	b.n	800b20c <_vsnprintf+0x2f4>
          base =  2U;
 800b3b2:	f04f 0c02 	mov.w	ip, #2
        format++;
 800b3b6:	460b      	mov	r3, r1
        if ((*format != 'i') && (*format != 'd')) {
 800b3b8:	2864      	cmp	r0, #100	; 0x64
 800b3ba:	bf18      	it	ne
 800b3bc:	4619      	movne	r1, r3
 800b3be:	d12e      	bne.n	800b41e <_vsnprintf+0x506>
        if (flags & FLAGS_PRECISION) {
 800b3c0:	0559      	lsls	r1, r3, #21
 800b3c2:	f53f af1b 	bmi.w	800b1fc <_vsnprintf+0x2e4>
          if (flags & FLAGS_LONG_LONG) {
 800b3c6:	0599      	lsls	r1, r3, #22
 800b3c8:	d476      	bmi.n	800b4b8 <_vsnprintf+0x5a0>
          else if (flags & FLAGS_LONG) {
 800b3ca:	05da      	lsls	r2, r3, #23
 800b3cc:	f100 80b0 	bmi.w	800b530 <_vsnprintf+0x618>
            const int value = (flags & FLAGS_CHAR) ? (signed char)va_arg(va, int) : (flags & FLAGS_SHORT) ? (short int)va_arg(va, int) : va_arg(va, int);
 800b3d0:	0658      	lsls	r0, r3, #25
 800b3d2:	f855 2b04 	ldr.w	r2, [r5], #4
 800b3d6:	f100 80a2 	bmi.w	800b51e <_vsnprintf+0x606>
 800b3da:	0619      	lsls	r1, r3, #24
 800b3dc:	bf48      	it	mi
 800b3de:	b212      	sxthmi	r2, r2
            idx = _ntoa_long(out, buffer, idx, maxlen, (unsigned int)(value > 0 ? value : 0 - value), value < 0, base, precision, width, flags);
 800b3e0:	ea82 71e2 	eor.w	r1, r2, r2, asr #31
 800b3e4:	0fd0      	lsrs	r0, r2, #31
 800b3e6:	eba1 71e2 	sub.w	r1, r1, r2, asr #31
 800b3ea:	e9cd 6304 	strd	r6, r3, [sp, #16]
 800b3ee:	e9cd c702 	strd	ip, r7, [sp, #8]
 800b3f2:	e9cd 1000 	strd	r1, r0, [sp]
 800b3f6:	4642      	mov	r2, r8
            idx = _ntoa_long(out, buffer, idx, maxlen, value, false, base, precision, width, flags);
 800b3f8:	464b      	mov	r3, r9
 800b3fa:	4651      	mov	r1, sl
 800b3fc:	4658      	mov	r0, fp
 800b3fe:	f7ff fcdf 	bl	800adc0 <_ntoa_long>
 800b402:	4680      	mov	r8, r0
        format++;
 800b404:	e7ac      	b.n	800b360 <_vsnprintf+0x448>
          flags |= FLAGS_CHAR;
 800b406:	78a0      	ldrb	r0, [r4, #2]
 800b408:	f041 01c0 	orr.w	r1, r1, #192	; 0xc0
          format++;
 800b40c:	3402      	adds	r4, #2
 800b40e:	e5f4      	b.n	800affa <_vsnprintf+0xe2>
          flags |= FLAGS_LONG_LONG;
 800b410:	78a0      	ldrb	r0, [r4, #2]
 800b412:	f441 7140 	orr.w	r1, r1, #768	; 0x300
          format++;
 800b416:	3402      	adds	r4, #2
 800b418:	e5ef      	b.n	800affa <_vsnprintf+0xe2>
          base = 16U;
 800b41a:	f04f 0c10 	mov.w	ip, #16
        if (flags & FLAGS_PRECISION) {
 800b41e:	054a      	lsls	r2, r1, #21
          flags &= ~(FLAGS_PLUS | FLAGS_SPACE);
 800b420:	f021 030c 	bic.w	r3, r1, #12
        if (flags & FLAGS_PRECISION) {
 800b424:	f53f aeea 	bmi.w	800b1fc <_vsnprintf+0x2e4>
 800b428:	e6ea      	b.n	800b200 <_vsnprintf+0x2e8>
  while (*format)
 800b42a:	461c      	mov	r4, r3
 800b42c:	4698      	mov	r8, r3
 800b42e:	e6b8      	b.n	800b1a2 <_vsnprintf+0x28a>
          while (l++ < width) {
 800b430:	2e01      	cmp	r6, #1
 800b432:	f240 809b 	bls.w	800b56c <_vsnprintf+0x654>
 800b436:	f108 33ff 	add.w	r3, r8, #4294967295	; 0xffffffff
 800b43a:	441e      	add	r6, r3
            out(' ', buffer, idx++, maxlen);
 800b43c:	4642      	mov	r2, r8
 800b43e:	464b      	mov	r3, r9
 800b440:	f108 0801 	add.w	r8, r8, #1
 800b444:	4651      	mov	r1, sl
 800b446:	2020      	movs	r0, #32
 800b448:	47d8      	blx	fp
          while (l++ < width) {
 800b44a:	45b0      	cmp	r8, r6
 800b44c:	d1f6      	bne.n	800b43c <_vsnprintf+0x524>
        out((char)va_arg(va, int), buffer, idx++, maxlen);
 800b44e:	f855 0b04 	ldr.w	r0, [r5], #4
 800b452:	464b      	mov	r3, r9
 800b454:	4632      	mov	r2, r6
 800b456:	b2c0      	uxtb	r0, r0
 800b458:	4651      	mov	r1, sl
 800b45a:	f106 0801 	add.w	r8, r6, #1
 800b45e:	47d8      	blx	fp
        if (flags & FLAGS_LEFT) {
 800b460:	e77e      	b.n	800b360 <_vsnprintf+0x448>
          while (l++ < width) {
 800b462:	9b0c      	ldr	r3, [sp, #48]	; 0x30
 800b464:	429e      	cmp	r6, r3
 800b466:	4645      	mov	r5, r8
 800b468:	f67f af49 	bls.w	800b2fe <_vsnprintf+0x3e6>
 800b46c:	eb06 0008 	add.w	r0, r6, r8
 800b470:	eba0 0803 	sub.w	r8, r0, r3
            out(' ', buffer, idx++, maxlen);
 800b474:	462a      	mov	r2, r5
 800b476:	464b      	mov	r3, r9
 800b478:	3501      	adds	r5, #1
 800b47a:	4651      	mov	r1, sl
 800b47c:	2020      	movs	r0, #32
 800b47e:	47d8      	blx	fp
          while (l++ < width) {
 800b480:	4545      	cmp	r5, r8
 800b482:	d1f7      	bne.n	800b474 <_vsnprintf+0x55c>
 800b484:	e73b      	b.n	800b2fe <_vsnprintf+0x3e6>
          while (l++ < width) {
 800b486:	9a0c      	ldr	r2, [sp, #48]	; 0x30
 800b488:	4296      	cmp	r6, r2
 800b48a:	f102 0301 	add.w	r3, r2, #1
 800b48e:	d968      	bls.n	800b562 <_vsnprintf+0x64a>
 800b490:	eb06 0508 	add.w	r5, r6, r8
 800b494:	1aad      	subs	r5, r5, r2
            out(' ', buffer, idx++, maxlen);
 800b496:	4642      	mov	r2, r8
 800b498:	464b      	mov	r3, r9
 800b49a:	f108 0801 	add.w	r8, r8, #1
 800b49e:	4651      	mov	r1, sl
 800b4a0:	2020      	movs	r0, #32
 800b4a2:	47d8      	blx	fp
          while (l++ < width) {
 800b4a4:	45a8      	cmp	r8, r5
 800b4a6:	d1f6      	bne.n	800b496 <_vsnprintf+0x57e>
 800b4a8:	1c73      	adds	r3, r6, #1
 800b4aa:	930c      	str	r3, [sp, #48]	; 0x30
        while ((*p != 0) && (!(flags & FLAGS_PRECISION) || precision--)) {
 800b4ac:	9b0b      	ldr	r3, [sp, #44]	; 0x2c
 800b4ae:	7818      	ldrb	r0, [r3, #0]
 800b4b0:	2800      	cmp	r0, #0
 800b4b2:	f47f af0b 	bne.w	800b2cc <_vsnprintf+0x3b4>
 800b4b6:	e722      	b.n	800b2fe <_vsnprintf+0x3e6>
            const long long value = va_arg(va, long long);
 800b4b8:	3507      	adds	r5, #7
 800b4ba:	f025 0507 	bic.w	r5, r5, #7
 800b4be:	686a      	ldr	r2, [r5, #4]
 800b4c0:	f855 eb08 	ldr.w	lr, [r5], #8
            idx = _ntoa_long_long(out, buffer, idx, maxlen, (unsigned long long)(value > 0 ? value : 0 - value), value < 0, base, precision, width, flags);
 800b4c4:	9308      	str	r3, [sp, #32]
 800b4c6:	4670      	mov	r0, lr
 800b4c8:	4611      	mov	r1, r2
 800b4ca:	2300      	movs	r3, #0
 800b4cc:	2800      	cmp	r0, #0
 800b4ce:	e9cd c304 	strd	ip, r3, [sp, #16]
 800b4d2:	ea4f 72d2 	mov.w	r2, r2, lsr #31
 800b4d6:	f171 0300 	sbcs.w	r3, r1, #0
 800b4da:	e9cd 7606 	strd	r7, r6, [sp, #24]
 800b4de:	9202      	str	r2, [sp, #8]
 800b4e0:	db21      	blt.n	800b526 <_vsnprintf+0x60e>
 800b4e2:	e9cd 0100 	strd	r0, r1, [sp]
 800b4e6:	4642      	mov	r2, r8
            idx = _ntoa_long_long(out, buffer, idx, maxlen, va_arg(va, unsigned long long), false, base, precision, width, flags);
 800b4e8:	464b      	mov	r3, r9
 800b4ea:	4651      	mov	r1, sl
 800b4ec:	4658      	mov	r0, fp
 800b4ee:	f7ff fcb1 	bl	800ae54 <_ntoa_long_long>
 800b4f2:	4680      	mov	r8, r0
 800b4f4:	e734      	b.n	800b360 <_vsnprintf+0x448>
          base =  8U;
 800b4f6:	f04f 0c08 	mov.w	ip, #8
        format++;
 800b4fa:	460b      	mov	r3, r1
 800b4fc:	e75c      	b.n	800b3b8 <_vsnprintf+0x4a0>
            idx = _ntoa_long_long(out, buffer, idx, maxlen, va_arg(va, unsigned long long), false, base, precision, width, flags);
 800b4fe:	2200      	movs	r2, #0
 800b500:	e9cd c204 	strd	ip, r2, [sp, #16]
 800b504:	e9cd 6307 	strd	r6, r3, [sp, #28]
 800b508:	3507      	adds	r5, #7
 800b50a:	9202      	str	r2, [sp, #8]
 800b50c:	f025 0507 	bic.w	r5, r5, #7
 800b510:	9706      	str	r7, [sp, #24]
 800b512:	e8f5 0102 	ldrd	r0, r1, [r5], #8
 800b516:	4642      	mov	r2, r8
 800b518:	e9cd 0100 	strd	r0, r1, [sp]
 800b51c:	e7e4      	b.n	800b4e8 <_vsnprintf+0x5d0>
            const int value = (flags & FLAGS_CHAR) ? (signed char)va_arg(va, int) : (flags & FLAGS_SHORT) ? (short int)va_arg(va, int) : va_arg(va, int);
 800b51e:	b252      	sxtb	r2, r2
 800b520:	e75e      	b.n	800b3e0 <_vsnprintf+0x4c8>
 800b522:	b2d2      	uxtb	r2, r2
 800b524:	e681      	b.n	800b22a <_vsnprintf+0x312>
            idx = _ntoa_long_long(out, buffer, idx, maxlen, (unsigned long long)(value > 0 ? value : 0 - value), value < 0, base, precision, width, flags);
 800b526:	f1de 0000 	rsbs	r0, lr, #0
 800b52a:	eb61 0141 	sbc.w	r1, r1, r1, lsl #1
 800b52e:	e7d8      	b.n	800b4e2 <_vsnprintf+0x5ca>
            const long value = va_arg(va, long);
 800b530:	f855 1b04 	ldr.w	r1, [r5], #4
            idx = _ntoa_long(out, buffer, idx, maxlen, (unsigned long)(value > 0 ? value : 0 - value), value < 0, base, precision, width, flags);
 800b534:	9305      	str	r3, [sp, #20]
 800b536:	2900      	cmp	r1, #0
 800b538:	ea4f 73d1 	mov.w	r3, r1, lsr #31
 800b53c:	bfb8      	it	lt
 800b53e:	4249      	neglt	r1, r1
 800b540:	e9cd 7603 	strd	r7, r6, [sp, #12]
 800b544:	e9cd 3c01 	strd	r3, ip, [sp, #4]
 800b548:	4642      	mov	r2, r8
 800b54a:	9100      	str	r1, [sp, #0]
 800b54c:	e754      	b.n	800b3f8 <_vsnprintf+0x4e0>
            idx = _ntoa_long(out, buffer, idx, maxlen, va_arg(va, unsigned long), false, base, precision, width, flags);
 800b54e:	e9cd 6304 	strd	r6, r3, [sp, #16]
 800b552:	e9cd c702 	strd	ip, r7, [sp, #8]
 800b556:	9201      	str	r2, [sp, #4]
 800b558:	f855 3b04 	ldr.w	r3, [r5], #4
 800b55c:	9300      	str	r3, [sp, #0]
 800b55e:	4642      	mov	r2, r8
 800b560:	e74a      	b.n	800b3f8 <_vsnprintf+0x4e0>
          while (l++ < width) {
 800b562:	930c      	str	r3, [sp, #48]	; 0x30
        while ((*p != 0) && (!(flags & FLAGS_PRECISION) || precision--)) {
 800b564:	2800      	cmp	r0, #0
 800b566:	f47f aeb1 	bne.w	800b2cc <_vsnprintf+0x3b4>
 800b56a:	e6c8      	b.n	800b2fe <_vsnprintf+0x3e6>
          while (l++ < width) {
 800b56c:	4646      	mov	r6, r8
 800b56e:	e76e      	b.n	800b44e <_vsnprintf+0x536>
  for (s = str; *s && maxsize--; ++s);
 800b570:	900c      	str	r0, [sp, #48]	; 0x30
 800b572:	e69a      	b.n	800b2aa <_vsnprintf+0x392>
 800b574:	970c      	str	r7, [sp, #48]	; 0x30
 800b576:	e698      	b.n	800b2aa <_vsnprintf+0x392>

0800b578 <_out_fct>:
  if (character) {
 800b578:	b110      	cbz	r0, 800b580 <_out_fct+0x8>
    ((out_fct_wrap_type*)buffer)->fct(character, ((out_fct_wrap_type*)buffer)->arg);
 800b57a:	e9d1 3100 	ldrd	r3, r1, [r1]
 800b57e:	4718      	bx	r3
}
 800b580:	4770      	bx	lr
 800b582:	bf00      	nop

0800b584 <vsnprintf_>:
  return _vsnprintf(_out_char, buffer, (size_t)-1, format, va);
}


int vsnprintf_(char* buffer, size_t count, const char* format, va_list va)
{
 800b584:	b530      	push	{r4, r5, lr}
 800b586:	b083      	sub	sp, #12
 800b588:	460d      	mov	r5, r1
 800b58a:	4614      	mov	r4, r2
  return _vsnprintf(_out_buffer, buffer, count, format, va);
 800b58c:	4601      	mov	r1, r0
 800b58e:	9300      	str	r3, [sp, #0]
 800b590:	462a      	mov	r2, r5
 800b592:	4623      	mov	r3, r4
 800b594:	4802      	ldr	r0, [pc, #8]	; (800b5a0 <vsnprintf_+0x1c>)
 800b596:	f7ff fcbf 	bl	800af18 <_vsnprintf>
}
 800b59a:	b003      	add	sp, #12
 800b59c:	bd30      	pop	{r4, r5, pc}
 800b59e:	bf00      	nop
 800b5a0:	0800ab29 	.word	0x0800ab29

0800b5a4 <fctvprintf>:
  va_end(va);
  return ret;
}

int fctvprintf(void (*out)(char character, void* arg), void* arg, const char* format, va_list va)
{
 800b5a4:	b530      	push	{r4, r5, lr}
 800b5a6:	b085      	sub	sp, #20
 800b5a8:	4605      	mov	r5, r0
  const out_fct_wrap_type out_fct_wrap = { out, arg };
  return _vsnprintf(_out_fct, (char*)(uintptr_t)&out_fct_wrap, (size_t)-1, format, va);
 800b5aa:	9300      	str	r3, [sp, #0]
{
 800b5ac:	460c      	mov	r4, r1
  return _vsnprintf(_out_fct, (char*)(uintptr_t)&out_fct_wrap, (size_t)-1, format, va);
 800b5ae:	4613      	mov	r3, r2
 800b5b0:	a902      	add	r1, sp, #8
 800b5b2:	f04f 32ff 	mov.w	r2, #4294967295	; 0xffffffff
 800b5b6:	4803      	ldr	r0, [pc, #12]	; (800b5c4 <fctvprintf+0x20>)
  const out_fct_wrap_type out_fct_wrap = { out, arg };
 800b5b8:	e9cd 5402 	strd	r5, r4, [sp, #8]
  return _vsnprintf(_out_fct, (char*)(uintptr_t)&out_fct_wrap, (size_t)-1, format, va);
 800b5bc:	f7ff fcac 	bl	800af18 <_vsnprintf>
}
 800b5c0:	b005      	add	sp, #20
 800b5c2:	bd30      	pop	{r4, r5, pc}
 800b5c4:	0800b579 	.word	0x0800b579

0800b5c8 <_init>:
 800b5c8:	b5f8      	push	{r3, r4, r5, r6, r7, lr}
 800b5ca:	bf00      	nop
 800b5cc:	bcf8      	pop	{r3, r4, r5, r6, r7}
 800b5ce:	bc08      	pop	{r3}
 800b5d0:	469e      	mov	lr, r3
 800b5d2:	4770      	bx	lr

0800b5d4 <_fini>:
 800b5d4:	b5f8      	push	{r3, r4, r5, r6, r7, lr}
 800b5d6:	bf00      	nop
 800b5d8:	bcf8      	pop	{r3, r4, r5, r6, r7}
 800b5da:	bc08      	pop	{r3}
 800b5dc:	469e      	mov	lr, r3
 800b5de:	4770      	bx	lr
